################################################################################
#                                                                              #
#      IAR Universal Linker V5.6.0.36                                          #
#                                                                              #
#           Link time     =  10/Jun/2013  18:20:58                             #
#           Target CPU    =  MSP430                                            #
#           List file     =  "C:\Texas Instruments\ZStack-MSP2618-2.5.1\Projec #
#                            ts\zstack\HomeAutomation\SampleSwitch\CC2520DB\En #
#                            dDevice\List\SampleSwitch.map"                    #
#           Output file 1 =  "C:\Texas Instruments\ZStack-MSP2618-2.5.1\Projec #
#                            ts\zstack\HomeAutomation\SampleSwitch\CC2520DB\En #
#                            dDevice\Exe\SampleSwitch.d43"                     #
#                            Format: debug                                     #
#                            UBROF version 10.0.6                              #
#                            Using library modules for C-SPY (-rt)             #
#           Command line  =  -C                                                #
#                            "C:\Texas Instruments\ZStack-MSP2618-2.5.1\Projec #
#                            ts\zstack\HomeAutomation\SampleSwitch\CC2520DB\.. #
#                            \..\..\Libraries\MSP2618\bin\EndDevice2618-Pro.li #
#                            b"                                                #
#                            -C                                                #
#                            "C:\Texas Instruments\ZStack-MSP2618-2.5.1\Projec #
#                            ts\zstack\HomeAutomation\SampleSwitch\CC2520DB\.. #
#                            \..\..\Libraries\MSP2618\bin\Security2618.lib"    #
#                            -C                                                #
#                            "C:\Texas Instruments\ZStack-MSP2618-2.5.1\Projec #
#                            ts\zstack\HomeAutomation\SampleSwitch\CC2520DB\.. #
#                            \..\..\Libraries\TIMAC\bin\TIMAC-MSP2618.lib"     #
#                            "C:\Texas Instruments\ZStack-MSP2618-2.5.1\Projec #
#                            ts\zstack\HomeAutomation\SampleSwitch\CC2520DB\En #
#                            dDevice\Obj\AF.r43"                               #
#                            "C:\Texas Instruments\ZStack-MSP2618-2.5.1\Projec #
#                            ts\zstack\HomeAutomation\SampleSwitch\CC2520DB\En #
#                            dDevice\Obj\BindingTable.r43"                     #
#                            "C:\Texas Instruments\ZStack-MSP2618-2.5.1\Projec #
#                            ts\zstack\HomeAutomation\SampleSwitch\CC2520DB\En #
#                            dDevice\Obj\DCO_calibrate.r43"                    #
#                            "C:\Texas Instruments\ZStack-MSP2618-2.5.1\Projec #
#                            ts\zstack\HomeAutomation\SampleSwitch\CC2520DB\En #
#                            dDevice\Obj\DebugTrace.r43"                       #
#                            "C:\Texas Instruments\ZStack-MSP2618-2.5.1\Projec #
#                            ts\zstack\HomeAutomation\SampleSwitch\CC2520DB\En #
#                            dDevice\Obj\MSP430FlashUtil.r43"                  #
#                            "C:\Texas Instruments\ZStack-MSP2618-2.5.1\Projec #
#                            ts\zstack\HomeAutomation\SampleSwitch\CC2520DB\En #
#                            dDevice\Obj\MT.r43"                               #
#                            "C:\Texas Instruments\ZStack-MSP2618-2.5.1\Projec #
#                            ts\zstack\HomeAutomation\SampleSwitch\CC2520DB\En #
#                            dDevice\Obj\MT_AF.r43"                            #
#                            "C:\Texas Instruments\ZStack-MSP2618-2.5.1\Projec #
#                            ts\zstack\HomeAutomation\SampleSwitch\CC2520DB\En #
#                            dDevice\Obj\MT_APP.r43"                           #
#                            "C:\Texas Instruments\ZStack-MSP2618-2.5.1\Projec #
#                            ts\zstack\HomeAutomation\SampleSwitch\CC2520DB\En #
#                            dDevice\Obj\MT_DEBUG.r43"                         #
#                            "C:\Texas Instruments\ZStack-MSP2618-2.5.1\Projec #
#                            ts\zstack\HomeAutomation\SampleSwitch\CC2520DB\En #
#                            dDevice\Obj\MT_NWK.r43"                           #
#                            "C:\Texas Instruments\ZStack-MSP2618-2.5.1\Projec #
#                            ts\zstack\HomeAutomation\SampleSwitch\CC2520DB\En #
#                            dDevice\Obj\MT_SYS.r43"                           #
#                            "C:\Texas Instruments\ZStack-MSP2618-2.5.1\Projec #
#                            ts\zstack\HomeAutomation\SampleSwitch\CC2520DB\En #
#                            dDevice\Obj\MT_TASK.r43"                          #
#                            "C:\Texas Instruments\ZStack-MSP2618-2.5.1\Projec #
#                            ts\zstack\HomeAutomation\SampleSwitch\CC2520DB\En #
#                            dDevice\Obj\MT_UART.r43"                          #
#                            "C:\Texas Instruments\ZStack-MSP2618-2.5.1\Projec #
#                            ts\zstack\HomeAutomation\SampleSwitch\CC2520DB\En #
#                            dDevice\Obj\MT_UTIL.r43"                          #
#                            "C:\Texas Instruments\ZStack-MSP2618-2.5.1\Projec #
#                            ts\zstack\HomeAutomation\SampleSwitch\CC2520DB\En #
#                            dDevice\Obj\MT_VERSION.r43"                       #
#                            "C:\Texas Instruments\ZStack-MSP2618-2.5.1\Projec #
#                            ts\zstack\HomeAutomation\SampleSwitch\CC2520DB\En #
#                            dDevice\Obj\MT_ZDO.r43"                           #
#                            "C:\Texas Instruments\ZStack-MSP2618-2.5.1\Projec #
#                            ts\zstack\HomeAutomation\SampleSwitch\CC2520DB\En #
#                            dDevice\Obj\OSAL.r43"                             #
#                            "C:\Texas Instruments\ZStack-MSP2618-2.5.1\Projec #
#                            ts\zstack\HomeAutomation\SampleSwitch\CC2520DB\En #
#                            dDevice\Obj\OSAL_Clock.r43"                       #
#                            "C:\Texas Instruments\ZStack-MSP2618-2.5.1\Projec #
#                            ts\zstack\HomeAutomation\SampleSwitch\CC2520DB\En #
#                            dDevice\Obj\OSAL_Memory.r43"                      #
#                            "C:\Texas Instruments\ZStack-MSP2618-2.5.1\Projec #
#                            ts\zstack\HomeAutomation\SampleSwitch\CC2520DB\En #
#                            dDevice\Obj\OSAL_Nv.r43"                          #
#                            "C:\Texas Instruments\ZStack-MSP2618-2.5.1\Projec #
#                            ts\zstack\HomeAutomation\SampleSwitch\CC2520DB\En #
#                            dDevice\Obj\OSAL_PwrMgr.r43"                      #
#                            "C:\Texas Instruments\ZStack-MSP2618-2.5.1\Projec #
#                            ts\zstack\HomeAutomation\SampleSwitch\CC2520DB\En #
#                            dDevice\Obj\OSAL_SampleSw.r43"                    #
#                            "C:\Texas Instruments\ZStack-MSP2618-2.5.1\Projec #
#                            ts\zstack\HomeAutomation\SampleSwitch\CC2520DB\En #
#                            dDevice\Obj\OSAL_Timers.r43"                      #
#                            "C:\Texas Instruments\ZStack-MSP2618-2.5.1\Projec #
#                            ts\zstack\HomeAutomation\SampleSwitch\CC2520DB\En #
#                            dDevice\Obj\OnBoard.r43"                          #
#                            "C:\Texas Instruments\ZStack-MSP2618-2.5.1\Projec #
#                            ts\zstack\HomeAutomation\SampleSwitch\CC2520DB\En #
#                            dDevice\Obj\ZDApp.r43"                            #
#                            "C:\Texas Instruments\ZStack-MSP2618-2.5.1\Projec #
#                            ts\zstack\HomeAutomation\SampleSwitch\CC2520DB\En #
#                            dDevice\Obj\ZDConfig.r43"                         #
#                            "C:\Texas Instruments\ZStack-MSP2618-2.5.1\Projec #
#                            ts\zstack\HomeAutomation\SampleSwitch\CC2520DB\En #
#                            dDevice\Obj\ZDNwkMgr.r43"                         #
#                            "C:\Texas Instruments\ZStack-MSP2618-2.5.1\Projec #
#                            ts\zstack\HomeAutomation\SampleSwitch\CC2520DB\En #
#                            dDevice\Obj\ZDObject.r43"                         #
#                            "C:\Texas Instruments\ZStack-MSP2618-2.5.1\Projec #
#                            ts\zstack\HomeAutomation\SampleSwitch\CC2520DB\En #
#                            dDevice\Obj\ZDProfile.r43"                        #
#                            "C:\Texas Instruments\ZStack-MSP2618-2.5.1\Projec #
#                            ts\zstack\HomeAutomation\SampleSwitch\CC2520DB\En #
#                            dDevice\Obj\ZDSecMgr.r43"                         #
#                            "C:\Texas Instruments\ZStack-MSP2618-2.5.1\Projec #
#                            ts\zstack\HomeAutomation\SampleSwitch\CC2520DB\En #
#                            dDevice\Obj\ZGlobals.r43"                         #
#                            "C:\Texas Instruments\ZStack-MSP2618-2.5.1\Projec #
#                            ts\zstack\HomeAutomation\SampleSwitch\CC2520DB\En #
#                            dDevice\Obj\ZMain.r43"                            #
#                            "C:\Texas Instruments\ZStack-MSP2618-2.5.1\Projec #
#                            ts\zstack\HomeAutomation\SampleSwitch\CC2520DB\En #
#                            dDevice\Obj\hal_adc.r43"                          #
#                            "C:\Texas Instruments\ZStack-MSP2618-2.5.1\Projec #
#                            ts\zstack\HomeAutomation\SampleSwitch\CC2520DB\En #
#                            dDevice\Obj\hal_assert.r43"                       #
#                            "C:\Texas Instruments\ZStack-MSP2618-2.5.1\Projec #
#                            ts\zstack\HomeAutomation\SampleSwitch\CC2520DB\En #
#                            dDevice\Obj\hal_drivers.r43"                      #
#                            "C:\Texas Instruments\ZStack-MSP2618-2.5.1\Projec #
#                            ts\zstack\HomeAutomation\SampleSwitch\CC2520DB\En #
#                            dDevice\Obj\hal_key.r43"                          #
#                            "C:\Texas Instruments\ZStack-MSP2618-2.5.1\Projec #
#                            ts\zstack\HomeAutomation\SampleSwitch\CC2520DB\En #
#                            dDevice\Obj\hal_lcd.r43"                          #
#                            "C:\Texas Instruments\ZStack-MSP2618-2.5.1\Projec #
#                            ts\zstack\HomeAutomation\SampleSwitch\CC2520DB\En #
#                            dDevice\Obj\hal_led.r43"                          #
#                            "C:\Texas Instruments\ZStack-MSP2618-2.5.1\Projec #
#                            ts\zstack\HomeAutomation\SampleSwitch\CC2520DB\En #
#                            dDevice\Obj\hal_mac_cfg.r43"                      #
#                            "C:\Texas Instruments\ZStack-MSP2618-2.5.1\Projec #
#                            ts\zstack\HomeAutomation\SampleSwitch\CC2520DB\En #
#                            dDevice\Obj\hal_sleep.r43"                        #
#                            "C:\Texas Instruments\ZStack-MSP2618-2.5.1\Projec #
#                            ts\zstack\HomeAutomation\SampleSwitch\CC2520DB\En #
#                            dDevice\Obj\hal_startup.r43"                      #
#                            "C:\Texas Instruments\ZStack-MSP2618-2.5.1\Projec #
#                            ts\zstack\HomeAutomation\SampleSwitch\CC2520DB\En #
#                            dDevice\Obj\hal_timer.r43"                        #
#                            "C:\Texas Instruments\ZStack-MSP2618-2.5.1\Projec #
#                            ts\zstack\HomeAutomation\SampleSwitch\CC2520DB\En #
#                            dDevice\Obj\hal_uart.r43"                         #
#                            "C:\Texas Instruments\ZStack-MSP2618-2.5.1\Projec #
#                            ts\zstack\HomeAutomation\SampleSwitch\CC2520DB\En #
#                            dDevice\Obj\mac_autopend.r43"                     #
#                            "C:\Texas Instruments\ZStack-MSP2618-2.5.1\Projec #
#                            ts\zstack\HomeAutomation\SampleSwitch\CC2520DB\En #
#                            dDevice\Obj\mac_backoff_timer.r43"                #
#                            "C:\Texas Instruments\ZStack-MSP2618-2.5.1\Projec #
#                            ts\zstack\HomeAutomation\SampleSwitch\CC2520DB\En #
#                            dDevice\Obj\mac_cfg.r43"                          #
#                            "C:\Texas Instruments\ZStack-MSP2618-2.5.1\Projec #
#                            ts\zstack\HomeAutomation\SampleSwitch\CC2520DB\En #
#                            dDevice\Obj\mac_dualchip.r43"                     #
#                            "C:\Texas Instruments\ZStack-MSP2618-2.5.1\Projec #
#                            ts\zstack\HomeAutomation\SampleSwitch\CC2520DB\En #
#                            dDevice\Obj\mac_dualchip_tx.r43"                  #
#                            "C:\Texas Instruments\ZStack-MSP2618-2.5.1\Projec #
#                            ts\zstack\HomeAutomation\SampleSwitch\CC2520DB\En #
#                            dDevice\Obj\mac_low_level.r43"                    #
#                            "C:\Texas Instruments\ZStack-MSP2618-2.5.1\Projec #
#                            ts\zstack\HomeAutomation\SampleSwitch\CC2520DB\En #
#                            dDevice\Obj\mac_mcu_timer.r43"                    #
#                            "C:\Texas Instruments\ZStack-MSP2618-2.5.1\Projec #
#                            ts\zstack\HomeAutomation\SampleSwitch\CC2520DB\En #
#                            dDevice\Obj\mac_pib.r43"                          #
#                            "C:\Texas Instruments\ZStack-MSP2618-2.5.1\Projec #
#                            ts\zstack\HomeAutomation\SampleSwitch\CC2520DB\En #
#                            dDevice\Obj\mac_radio.r43"                        #
#                            "C:\Texas Instruments\ZStack-MSP2618-2.5.1\Projec #
#                            ts\zstack\HomeAutomation\SampleSwitch\CC2520DB\En #
#                            dDevice\Obj\mac_radio_defs.r43"                   #
#                            "C:\Texas Instruments\ZStack-MSP2618-2.5.1\Projec #
#                            ts\zstack\HomeAutomation\SampleSwitch\CC2520DB\En #
#                            dDevice\Obj\mac_rx.r43"                           #
#                            "C:\Texas Instruments\ZStack-MSP2618-2.5.1\Projec #
#                            ts\zstack\HomeAutomation\SampleSwitch\CC2520DB\En #
#                            dDevice\Obj\mac_rx_onoff.r43"                     #
#                            "C:\Texas Instruments\ZStack-MSP2618-2.5.1\Projec #
#                            ts\zstack\HomeAutomation\SampleSwitch\CC2520DB\En #
#                            dDevice\Obj\mac_sleep.r43"                        #
#                            "C:\Texas Instruments\ZStack-MSP2618-2.5.1\Projec #
#                            ts\zstack\HomeAutomation\SampleSwitch\CC2520DB\En #
#                            dDevice\Obj\mac_spi.r43"                          #
#                            "C:\Texas Instruments\ZStack-MSP2618-2.5.1\Projec #
#                            ts\zstack\HomeAutomation\SampleSwitch\CC2520DB\En #
#                            dDevice\Obj\mac_tx.r43"                           #
#                            "C:\Texas Instruments\ZStack-MSP2618-2.5.1\Projec #
#                            ts\zstack\HomeAutomation\SampleSwitch\CC2520DB\En #
#                            dDevice\Obj\nwk_globals.r43"                      #
#                            "C:\Texas Instruments\ZStack-MSP2618-2.5.1\Projec #
#                            ts\zstack\HomeAutomation\SampleSwitch\CC2520DB\En #
#                            dDevice\Obj\saddr.r43"                            #
#                            "C:\Texas Instruments\ZStack-MSP2618-2.5.1\Projec #
#                            ts\zstack\HomeAutomation\SampleSwitch\CC2520DB\En #
#                            dDevice\Obj\stub_aps.r43"                         #
#                            "C:\Texas Instruments\ZStack-MSP2618-2.5.1\Projec #
#                            ts\zstack\HomeAutomation\SampleSwitch\CC2520DB\En #
#                            dDevice\Obj\zcl.r43"                              #
#                            "C:\Texas Instruments\ZStack-MSP2618-2.5.1\Projec #
#                            ts\zstack\HomeAutomation\SampleSwitch\CC2520DB\En #
#                            dDevice\Obj\zcl_general.r43"                      #
#                            "C:\Texas Instruments\ZStack-MSP2618-2.5.1\Projec #
#                            ts\zstack\HomeAutomation\SampleSwitch\CC2520DB\En #
#                            dDevice\Obj\zcl_ha.r43"                           #
#                            "C:\Texas Instruments\ZStack-MSP2618-2.5.1\Projec #
#                            ts\zstack\HomeAutomation\SampleSwitch\CC2520DB\En #
#                            dDevice\Obj\zcl_samplesw.r43"                     #
#                            "C:\Texas Instruments\ZStack-MSP2618-2.5.1\Projec #
#                            ts\zstack\HomeAutomation\SampleSwitch\CC2520DB\En #
#                            dDevice\Obj\zcl_samplesw_data.r43"                #
#                            "C:\Texas Instruments\ZStack-MSP2618-2.5.1\Projec #
#                            ts\zstack\HomeAutomation\SampleSwitch\CC2520DB\En #
#                            dDevice\Obj\zmac.r43"                             #
#                            "C:\Texas Instruments\ZStack-MSP2618-2.5.1\Projec #
#                            ts\zstack\HomeAutomation\SampleSwitch\CC2520DB\En #
#                            dDevice\Obj\zmac_cb.r43"                          #
#                            -o                                                #
#                            "C:\Texas Instruments\ZStack-MSP2618-2.5.1\Projec #
#                            ts\zstack\HomeAutomation\SampleSwitch\CC2520DB\En #
#                            dDevice\Exe\SampleSwitch.d43"                     #
#                            -l                                                #
#                            "C:\Texas Instruments\ZStack-MSP2618-2.5.1\Projec #
#                            ts\zstack\HomeAutomation\SampleSwitch\CC2520DB\En #
#                            dDevice\List\SampleSwitch.map"                    #
#                            -xmsn                                             #
#                            "-IC:\Program Files (x86)\IAR Systems\Embedded Wo #
#                            rkbench 6.5\430\LIB\"                             #
#                            -f                                                #
#                            "C:\Texas Instruments\ZStack-MSP2618-2.5.1\Projec #
#                            ts\zstack\HomeAutomation\SampleSwitch\CC2520DB\.. #
#                            \..\..\Tools\MSP2618\MSP430F2618.xcl"             #
#                            (-D_LO_ROM_BEG=0x3100 -D_LO_ROM_END=0xFFBD        #
#                            -D_HI_ROM_BEG=0x10000 -D_HI_ROM_END=0x1FFFF       #
#                            -D_ZIGNV_BEG=0xE200 -D_ZIGNV_END=0xF9FF           #
#                            -cmsp430                                          #
#                            -Z(DATA)DATA16_I,DATA16_Z,DATA16_N,DATA16_HEAP+_D #
#                            ATA16_HEAP_SIZE=1100-30FF                         #
#                            -Z(DATA)CSTACK+_STACK_SIZE#                       #
#                            -Z(CODE)INFO=1000-10FF -Z(CODE)INFOA=10C0-10FF    #
#                            -Z(CODE)INFOB=1080-10BF -Z(CODE)INFOC=1040-107F   #
#                            -Z(CODE)INFOD=1000-103F                           #
#                            -Z(CODE)CSTART,ISR_CODE=_LO_ROM_BEG-_LO_ROM_END   #
#                            -Z(CODE)ZIGNV_ADDRESS_SPACE=_ZIGNV_BEG-_ZIGNV_END #
#                            -Z(CODE)INTVEC=FFC0-FFFF                          #
#                            -Z(CODE)RESET=FFFE-FFFF                           #
#                            -Z(CONST)DATA16_C,DATA16_ID,DIFUNCT=_LO_ROM_BEG-_ #
#                            LO_ROM_END                                        #
#                            -Z(CONST)DATA20_C,DATA20_ID=_LO_ROM_BEG-_LO_ROM_E #
#                            ND                                                #
#                            -P(CODE)CODE=_LO_ROM_BEG-_LO_ROM_END,_HI_ROM_BEG- #
#                            _HI_ROM_END)                                      #
#                            -f                                                #
#                            "C:\Program Files (x86)\IAR Systems\Embedded Work #
#                            bench 6.5\430\config\multiplier.xcl"              #
#                            (-e?Mul8Hw=?Mul8 -e?Mul16Hw=?Mul16                #
#                            -e?Mul16to32uHw=?Mul16to32u                       #
#                            -e?Mul16to32sHw=?Mul16to32s -e?Mul32Hw=?Mul32     #
#                            -e_Mul64iHw=_Mul64i                               #
#                            -e_Mul32u32uto64iHw=_Mul32u32uto64i               #
#                            -e?Mul32fHw=_Mul32f -e_Mul64fHwPtr=_Mul64fPtr)    #
#                            -D_STACK_SIZE=200 -rt                             #
#                            "C:\Program Files (x86)\IAR Systems\Embedded Work #
#                            bench 6.5\430\LIB\CLIB\cl430xsf.r43"              #
#                            -e_small_write=_formatted_write                   #
#                            -e_medium_read=_formatted_read                    #
#                            -D_DATA16_HEAP_SIZE=0 -s __program_start          #
#                            -D_DATA20_HEAP_SIZE=50                            #
#                                                                              #
#                           Copyright (C) 1987-2013 IAR Systems AB.            #
################################################################################





                ****************************************
                *                                      *
                *           CROSS REFERENCE            *
                *                                      *
                ****************************************

       Program entry at :           3100  Relocatable, from module : ?cstart




                ****************************************
                *                                      *
                *            RUNTIME MODEL             *
                *                                      *
                ****************************************

  __SystemLibrary = CLib
  __core          = 430X
  __data_model    = small
  __double_size   = 32
  __pic           = no
  __reg_r4        = free
  __reg_r5        = free
  __rt_version    = 3

                ****************************************
                *                                      *
                *    AUTOMATIC SYMBOL REDIRECTIONS     *
                *                                      *
                ****************************************

                  There are no automatic symbol redirections.



                ****************************************
                *                                      *
                *              MODULE MAP              *
                *                                      *
                ****************************************


  DEFINED ABSOLUTE ENTRIES
    *************************************************************************

  DEFINED ABSOLUTE ENTRIES
  PROGRAM MODULE, NAME : ?ABS_ENTRY_MOD

Absolute parts
           ENTRY                   ADDRESS         REF BY
           =====                   =======         ======
           _DATA20_HEAP_SIZE       0050 
           _DATA16_HEAP_SIZE       0000 
           _STACK_SIZE             0200 
           _ZIGNV_END              F9FF 
           _ZIGNV_BEG              E200 
           _HI_ROM_END             0001FFFF 
           _HI_ROM_BEG             00010000 
           _LO_ROM_END             FFBD 
           _LO_ROM_BEG             3100 
    *************************************************************************

  FILE NAME : C:\Texas Instruments\ZStack-MSP2618-2.5.1\Projects\zstack\Libraries\MSP2618\bin\EndDevice2618-Pro.lib
  LIBRARY MODULE, NAME : APS

  SEGMENTS IN THE MODULE
  ======================
DATA16_Z
  Relative segment, address: 1998 - 1998 (0x1 bytes), align: 0
  Segment part 5.             Intra module refs:   APSDE_DataIndication
                                                   APS_CmdInd
                                                   APS_EndDeviceBroadcastCheck
                                                   APS_Init
                                                   APS_event_loop
                                                   Segment part 722
                                                   Segment part 840
                                                   Segment part 843
           ENTRY                   ADDRESS         REF BY
           =====                   =======         ======
           APS_TaskID              1998 
    -------------------------------------------------------------------------
DATA16_Z
  Relative segment, address: 1999 - 1999 (0x1 bytes), align: 0
  Segment part 6.             Intra module refs:   APSDE_FrameHdrSet
                                                   APSF_SendFragmented
                                                   APS_Init
           ENTRY                   ADDRESS         REF BY
           =====                   =======         ======
           APS_Counter             1999 
    -------------------------------------------------------------------------
DATA16_Z
  Relative segment, address: 199A - 19A1 (0x8 bytes), align: 0
  Segment part 7.             Intra module refs:   APS_Init
           ENTRY                   ADDRESS         REF BY
           =====                   =======         ======
           AIB_apsUseExtendedPANID
                                   199A            ZDAppDetermineDeviceType (ZDApp)
                                                   ZDO_Init (ZDObject)
    -------------------------------------------------------------------------
DATA16_Z
  Relative segment, address: 19A2 - 19A2 (0x1 bytes), align: 0
  Segment part 8.             Intra module refs:   APS_Init
           ENTRY                   ADDRESS         REF BY
           =====                   =======         ======
           AIB_apsUseInsecureJoin
                                   19A2            ZDApp_ProcessNetworkJoin (ZDApp)
    -------------------------------------------------------------------------
DATA16_Z
  Relative segment, address: 1226 - 1229 (0x4 bytes), align: 1
  Segment part 9.             Intra module refs:   APSME_UnBindRequest
                                                   APS_ReflectorInit
           ENTRY                   ADDRESS         REF BY
           =====                   =======         ======
           pAPS_UnBind             1226 
    -------------------------------------------------------------------------
DATA16_Z
  Relative segment, address: 122A - 122D (0x4 bytes), align: 1
  Segment part 10.            Intra module refs:   APS_ReflectorInit
           ENTRY                   ADDRESS         REF BY
           =====                   =======         ======
           pAPS_GetBind            122A 
    -------------------------------------------------------------------------
DATA16_Z
  Relative segment, address: 122E - 1231 (0x4 bytes), align: 1
  Segment part 11.            Intra module refs:   APS_ReflectorInit
                                                   NLDE_DataCnf
           ENTRY                   ADDRESS         REF BY
           =====                   =======         ======
           pAPS_DataConfirmReflect
                                   122E 
    -------------------------------------------------------------------------
DATA16_Z
  Relative segment, address: 1232 - 1235 (0x4 bytes), align: 1
  Segment part 12.            Intra module refs:   APS_ReflectorInit
                                                   NLDE_DataIndication
           ENTRY                   ADDRESS         REF BY
           =====                   =======         ======
           pAPS_DataIndReflect     1232 
    -------------------------------------------------------------------------
DATA16_Z
  Relative segment, address: 1236 - 1239 (0x4 bytes), align: 1
  Segment part 14.            Intra module refs:   APSF_Init
           ENTRY                   ADDRESS         REF BY
           =====                   =======         ======
           apsfSendFragmented      1236            AF_DataRequest (AF)
    -------------------------------------------------------------------------
DATA16_Z
  Relative segment, address: 123A - 123D (0x4 bytes), align: 1
  Segment part 15.            Intra module refs:   APSF_Init
                                                   apsProcessAck
           ENTRY                   ADDRESS         REF BY
           =====                   =======         ======
           apsfProcessAck          123A 
    -------------------------------------------------------------------------
DATA16_Z
  Relative segment, address: 123E - 1241 (0x4 bytes), align: 1
  Segment part 16.            Intra module refs:   APSDE_DataIndication
                                                   APSF_Init
           ENTRY                   ADDRESS         REF BY
           =====                   =======         ======
           apsfSendOsalMsg         123E 
    -------------------------------------------------------------------------
DATA16_I
  Relative segment, address: 11F2 - 11F2 (0x1 bytes), align: 0
  Segment part 17.            Intra module refs:   APSDE_DataReq
                                                   APSME_HoldDataRequests
                                                   APS_event_loop
           ENTRY                   ADDRESS         REF BY
           =====                   =======         ======
           APS_AllowDataRequests   11F2 
    -------------------------------------------------------------------------
DATA16_I
  Relative segment, address: 11F3 - 11F3 (0x1 bytes), align: 0
  Segment part 19.            Intra module refs:   APS_ReflectorInit
           ENTRY                   ADDRESS         REF BY
           =====                   =======         ======
           APS_ReflectorType       11F3 
    -------------------------------------------------------------------------
<CODE> 3 (was CODE)
  Relative segment, address: 00013A20 - 00013A5F (0x40 bytes), align: 1
  Segment part 853.
           ENTRY                   ADDRESS         REF BY
           =====                   =======         ======
           APS_ReflectorInit       00013A20        ZDO_Init (ZDObject)
               calls direct
               CSTACK = 00000000 ( 00000006 )
    -------------------------------------------------------------------------
<CODE> 3 (was CODE)
  Relative segment, address: 00014C5A - 00014C77 (0x1e bytes), align: 1
  Segment part 852.
           ENTRY                   ADDRESS         REF BY
           =====                   =======         ======
           APS_Init                00014C5A        osalInitTasks (OSAL_SampleSw)
               calls direct
               CSTACK = 00000000 ( 00000004 )
    -------------------------------------------------------------------------
<CODE> 3 (was CODE)
  Relative segment, address: 000124C2 - 00012543 (0x82 bytes), align: 1
  Segment part 851.
           ENTRY                   ADDRESS         REF BY
           =====                   =======         ======
           APS_event_loop          000124C2        tasksArr (OSAL_SampleSw)
               calls direct
               CSTACK = 00000000 ( 00000010 )
    -------------------------------------------------------------------------
DATA16_Z
  Relative segment, address: 1242 - 1245 (0x4 bytes), align: 1
  Segment part 22.            Intra module refs:   APSME_FrameSecInit
                                                   APSME_FrameSecNM
           ENTRY                   ADDRESS         REF BY
           =====                   =======         ======
           APSME_FrameSecSetupHook
                                   1242 
    -------------------------------------------------------------------------
DATA16_Z
  Relative segment, address: 1246 - 1249 (0x4 bytes), align: 1
  Segment part 23.            Intra module refs:   APSME_FrameSecNM
                                                   Segment part 738
           ENTRY                   ADDRESS         REF BY
           =====                   =======         ======
           APSME_FrameSecApplyHook
                                   1246 
    -------------------------------------------------------------------------
DATA16_Z
  Relative segment, address: 124A - 124D (0x4 bytes), align: 1
  Segment part 24.            Intra module refs:   APSME_FrameSecNM
           ENTRY                   ADDRESS         REF BY
           =====                   =======         ======
           APSME_FrameSecApplyExtHook
                                   124A 
    -------------------------------------------------------------------------
DATA16_Z
  Relative segment, address: 124E - 1251 (0x4 bytes), align: 1
  Segment part 25.            Intra module refs:   APSME_FrameSecNM
                                                   APSME_FrameSecurityRemove
           ENTRY                   ADDRESS         REF BY
           =====                   =======         ======
           APSME_FrameSecRemoveHook
                                   124E 
    -------------------------------------------------------------------------
DATA16_Z
  Relative segment, address: 1252 - 1255 (0x4 bytes), align: 1
  Segment part 26.            Intra module refs:   APSME_CmdPkt
                                                   APSME_SecurityNM
           ENTRY                   ADDRESS         REF BY
           =====                   =======         ======
           APSME_CmdPktHook        1252 
    -------------------------------------------------------------------------
DATA16_Z
  Relative segment, address: 1256 - 1259 (0x4 bytes), align: 1
  Segment part 27.            Intra module refs:   APSDE_DataReq
    -------------------------------------------------------------------------
DATA16_Z
  Relative segment, address: 125A - 125B (0x2 bytes), align: 1
  Segment part 28.            Intra module refs:   AddrMgrEntryAdd
                                                   AddrMgrEntryLookupExt
                                                   AddrMgrEntryLookupNwk
                                                   AddrMgrEntryValidate
                                                   AddrMgrInit
           ENTRY                   ADDRESS         REF BY
           =====                   =======         ======
           AddrMgrEntryTotal       125A 
    -------------------------------------------------------------------------
DATA16_Z
  Relative segment, address: 125C - 125D (0x2 bytes), align: 1
  Segment part 29.            Intra module refs:   AddrMgrEntryGet
                                                   AddrMgrEntryLookupExt
                                                   AddrMgrEntrySet
                                                   AddrMgrEntryValidate
                                                   AddrMgrInit
                                                   Segment part 420
                                                   Segment part 444
           ENTRY                   ADDRESS         REF BY
           =====                   =======         ======
           AddrMgrEntryData        125C 
    -------------------------------------------------------------------------
DATA16_Z
  Relative segment, address: 125E - 125F (0x2 bytes), align: 1
  Segment part 35.            Intra module refs:   NLME_NwkDiscReq2
                                                   NLME_NwkDiscTerm
                                                   nwkScanPanIDs
                                                   nwk_beacon_notify_ind_processing
                                                   nwk_init
                                                   nwk_scan_cnf_processing
           ENTRY                   ADDRESS         REF BY
           =====                   =======         ======
           NLME_ScanFields         125E 
    -------------------------------------------------------------------------
DATA16_Z
  Relative segment, address: 1260 - 1261 (0x2 bytes), align: 1
  Segment part 36.            Intra module refs:   NLME_ReJoinReq
                                                   NLME_RejoinRspCmdProcess
                                                   nwk_event_loop
           ENTRY                   ADDRESS         REF BY
           =====                   =======         ======
           savedResponseRate       1260 
    -------------------------------------------------------------------------
DATA16_Z
  Relative segment, address: 1262 - 1265 (0x4 bytes), align: 1
  Segment part 37.            Intra module refs:   nwk_scan_cnf_processing
           ENTRY                   ADDRESS         REF BY
           =====                   =======         ======
           pnwk_ScanPANChanSelect
                                   1262 
    -------------------------------------------------------------------------
DATA16_Z
  Relative segment, address: 1266 - 1269 (0x4 bytes), align: 1
  Segment part 38.            Intra module refs:   nwk_scan_cnf_processing
           ENTRY                   ADDRESS         REF BY
           =====                   =======         ======
           pnwk_ScanPANChanVerify
                                   1266 
    -------------------------------------------------------------------------
DATA16_Z
  Relative segment, address: 126A - 126D (0x4 bytes), align: 1
  Segment part 39.            Intra module refs:   NLME_DeviceJoiningInit
                                                   nwk_scan_cnf_processing
           ENTRY                   ADDRESS         REF BY
           =====                   =======         ======
           pnwk_ScanJoiningOrphan
                                   126A 
    -------------------------------------------------------------------------
DATA16_I
  Relative segment, address: 11F4 - 11F4 (0x1 bytes), align: 0
  Segment part 41.            Intra module refs:   APSF_Init
                                                   APSF_ProcessEvent
                                                   APSF_Schedule
                                                   APSF_SendOsalMsg
                                                   Segment part 627
           ENTRY                   ADDRESS         REF BY
           =====                   =======         ======
           APSF_taskID             11F4 
    -------------------------------------------------------------------------
DATA16_Z
  Relative segment, address: 126E - 126F (0x2 bytes), align: 1
  Segment part 43.            Intra module refs:   APSF_AddObj
                                                   APSF_FindObj
                                                   APSF_FreeObj
                                                   APSF_Schedule
    -------------------------------------------------------------------------
DATA16_Z
  Relative segment, address: 1270 - 1273 (0x4 bytes), align: 1
  Segment part 44.            Intra module refs:   APSF_IncomingData
                                                   APSF_TxNextFrame
           ENTRY                   ADDRESS         REF BY
           =====                   =======         ======
           pAPSF_IgnoreBlock       1270 
    -------------------------------------------------------------------------
DATA16_Z
  Relative segment, address: 1274 - 1275 (0x2 bytes), align: 1
  Segment part 45.            Intra module refs:   aps_FindGroup
                                                   aps_FindGroupForEndpoint
           ENTRY                   ADDRESS         REF BY
           =====                   =======         ======
           apsGroupTable           1274 
    -------------------------------------------------------------------------
DATA16_Z
  Relative segment, address: 1276 - 12E9 (0x74 bytes), align: 1
  Segment part 46.            Intra module refs:   APSDE_DataReq
                                                   APSDE_DataReqMTU
                                                   APSF_AllocRxObj
                                                   APSME_FrameSecInit
                                                   APSME_HoldDataRequests
                                                   APSME_LookupNwkAddr
                                                   APS_DataIndReflect
                                                   APS_Reflect
                                                   NLDE_BuildFrameControl
                                                   NLDE_CheckFrameSecurity
                                                   NLDE_DataIndication
                                                   NLDE_DataReq
                                                   NLDE_DataReqAlloc
                                                   NLDE_DataReqSend
                                                   NLME_CheckNewAddrSet
                                                   NLME_CmdDataReqAlloc
                                                   NLME_GetShortAddr
                                                   NLME_JoinRequest
                                                   NLME_NetworkDiscoveryRequest
                                                   NLME_OrphanJoinRequest
                                                   NLME_ReJoinReq
                                                   NLME_RejoinRspCmdProcess
                                                   NLME_RouteDiscoveryRequest
                                                   RTG_AddRtgEntry
                                                   RTG_CheckRtStatus
                                                   RTG_GetRoutingAddress
                                                   RTG_SendRErr
                                                   RTG_UpdateNeighborEntry
                                                   RTG_UpdateRtDiscEntry
                                                   RTG_ValidateSrcRtg
                                                   Segment part 246
                                                   Segment part 319
                                                   Segment part 390
                                                   Segment part 464
                                                   Segment part 494
                                                   Segment part 556
                                                   Segment part 564
                                                   Segment part 592
                                                   Segment part 593
                                                   Segment part 620
                                                   Segment part 649
                                                   Segment part 650
                                                   Segment part 663
                                                   Segment part 664
                                                   nwkChangePanID
                                                   nwkDB_AddIndirectEntry
                                                   nwkFrameHdrValid
                                                   nwkNeighborAdd
                                                   nwkProcessPanIdScan
                                                   nwkScanPanIDs
                                                   nwk_MacDataBuffersAdd
                                                   nwk_MacDataBuffersDealloc
                                                   nwk_ScanJoiningOrphan
                                                   nwk_associate_cnf_processing
                                                   nwk_beacon_notify_ind_processing
                                                   nwk_data_ind_processing
                                                   nwk_indSendError
                                                   nwk_init
                                                   nwk_process_dstAddr
                                                   nwk_scan_cnf_processing
                                                   nwk_set_poll_evt
           ENTRY                   ADDRESS         REF BY
           =====                   =======         ======
           _NIB                    1276            ?Subroutine15 (ZDApp)
                                                   MAC_CbackEvent (zmac_cb)
                                                   NIB_init (nwk_globals)
                                                   ZDApp_LeaveUpdate (ZDApp)
                                                   ZDApp_NwkDescListProcessing (ZDApp)
                                                   ZDApp_ProcessNetworkJoin (ZDApp)
                                                   ZDApp_ProcessOSALMsg (ZDApp)
                                                   ZDOInitDevice (ZDApp)
                                                   ZDO_JoinConfirmCB (ZDApp)
                                                   ZDO_beaconNotifyIndCB (ZDApp)
                                                   bindAddrMgrLocalLoad (BindingTable)
    -------------------------------------------------------------------------
DATA16_Z
  Relative segment, address: 19A3 - 19A3 (0x1 bytes), align: 0
  Segment part 47.            Intra module refs:   NLME_SetPollRate
                                                   RTG_MTORouteReq
                                                   Segment part 232
                                                   Segment part 256
                                                   Segment part 258
                                                   Segment part 264
                                                   Segment part 473
                                                   Segment part 589
                                                   Segment part 594
                                                   nwkBuildDataCnf
                                                   nwk_broadcastReceive
                                                   nwk_broadcastSend
                                                   nwk_init
                                                   nwk_sys_event_processing
           ENTRY                   ADDRESS         REF BY
           =====                   =======         ======
           NWK_TaskID              19A3            MAC_CbackEvent (zmac_cb)
                                                   ZDApp_event_loop (ZDApp)
    -------------------------------------------------------------------------
DATA16_Z
  Relative segment, address: 12EA - 12EB (0x2 bytes), align: 1
  Segment part 48.            Intra module refs:   nwk_desc_list_free
                                                   nwk_getNetworkDesc
                                                   nwk_getNwkDescList
                                                   nwk_init
           ENTRY                   ADDRESS         REF BY
           =====                   =======         ======
           NwkDescList             12EA            ZDO_beaconNotifyIndCB (ZDApp)
    -------------------------------------------------------------------------
DATA16_Z
  Relative segment, address: 19A4 - 19A4 (0x1 bytes), align: 0
  Segment part 52.            Intra module refs:   RTG_MTORouteReq
           ENTRY                   ADDRESS         REF BY
           =====                   =======         ======
           nwkSendMTOReq           19A4 
    -------------------------------------------------------------------------
DATA16_Z
  Relative segment, address: 19A5 - 19A5 (0x1 bytes), align: 0
  Segment part 53.            Intra module refs:   nwk_SendNextDataBuf
    -------------------------------------------------------------------------
DATA16_C
  Relative segment, address: 353E - 3545 (0x8 bytes), align: 0
  Segment part 2.             Intra module refs:   nwk_getNetworkDesc
    -------------------------------------------------------------------------
DATA16_C
  Relative segment, address: 32D4 - 32FD (0x2a bytes), align: 1
  Segment part 54.            Intra module refs:   nwk_sys_event_processing
           ENTRY                   ADDRESS         REF BY
           =====                   =======         ======
           nwkMsgProcs             32D4 
    -------------------------------------------------------------------------
DATA16_Z
  Relative segment, address: 12EC - 12ED (0x2 bytes), align: 1
  Segment part 55.            Intra module refs:   nwkDB_Add
                                                   nwkDB_CountTypes
                                                   nwkDB_FindHandle
                                                   nwkDB_FindMatch
                                                   nwkDB_FindNextIndirectHold
                                                   nwkDB_FindNextType
                                                   nwkDB_RemoveFromList
                                                   nwk_init
           ENTRY                   ADDRESS         REF BY
           =====                   =======         ======
           nwkDataBufQueue         12EC 
    -------------------------------------------------------------------------
DATA16_Z
  Relative segment, address: 12EE - 12EF (0x2 bytes), align: 1
  Segment part 56.            Intra module refs:   nwk_broadcastReceive
                                                   nwk_broadcastSend
    -------------------------------------------------------------------------
DATA16_Z
  Relative segment, address: 19A6 - 19A6 (0x1 bytes), align: 0
  Segment part 57.            Intra module refs:   NLME_IsAddressBroadcast
                                                   NLME_SetBroadcastFilter
    -------------------------------------------------------------------------
DATA16_Z
  Relative segment, address: 12F0 - 12F1 (0x2 bytes), align: 1
  Segment part 58.            Intra module refs:   nwkAddPanId
                                                   nwkFreePanIdList
                                                   nwkProcessPanIdScan
    -------------------------------------------------------------------------
DATA16_Z
  Relative segment, address: 12F2 - 12FD (0xc bytes), align: 1
  Segment part 59.            Intra module refs:   nwkNeighborInitTable
    -------------------------------------------------------------------------
DATA16_Z
  Relative segment, address: 19A7 - 19AE (0x8 bytes), align: 0
  Segment part 60.            Intra module refs:   NLME_GetExtAddr
           ENTRY                   ADDRESS         REF BY
           =====                   =======         ======
           saveExtAddr             19A7            ZDP_NwkAddrReq (ZDProfile)
                                                   zdpProcessAddrReq (ZDProfile)
    -------------------------------------------------------------------------
DATA16_Z
  Relative segment, address: 19AF - 19AF (0x1 bytes), align: 0
  Segment part 61.            Intra module refs:   NLDE_GetHandle
           ENTRY                   ADDRESS         REF BY
           =====                   =======         ======
           nsduHandleCounter       19AF 
    -------------------------------------------------------------------------
DATA16_Z
  Relative segment, address: 12FE - 12FF (0x2 bytes), align: 1
  Segment part 67.            Intra module refs:   nwkChangePanID
           ENTRY                   ADDRESS         REF BY
           =====                   =======         ======
           nwkNewPanId             12FE 
    -------------------------------------------------------------------------
DATA16_Z
  Relative segment, address: 1300 - 1303 (0x4 bytes), align: 1
  Segment part 69.            Intra module refs:   Segment part 312
           ENTRY                   ADDRESS         REF BY
           =====                   =======         ======
           pNLME_UpdateLinkStatus
                                   1300 
    -------------------------------------------------------------------------
DATA16_Z
  Relative segment, address: 1304 - 1307 (0x4 bytes), align: 1
  Segment part 71.            Intra module refs:   nwk_scan_cnf_processing
           ENTRY                   ADDRESS         REF BY
           =====                   =======         ======
           pNwkFreqAgilityScanCfg
                                   1304 
    -------------------------------------------------------------------------
DATA16_Z
  Relative segment, address: 19B0 - 19B0 (0x1 bytes), align: 0
  Segment part 74.            Intra module refs:   RTG_UpdateNeighborEntry
    -------------------------------------------------------------------------
DATA16_Z
  Relative segment, address: 1308 - 1309 (0x2 bytes), align: 1
  Segment part 75.            Intra module refs:   reflectTrack_AddNewEntry
                                                   reflectTrack_AddToEnd
                                                   reflectTrack_FindHandle
                                                   reflectTrack_NumEntries
                                                   reflectTrack_RemoveEntry
    -------------------------------------------------------------------------
DATA16_I
  Relative segment, address: 11F5 - 11F5 (0x1 bytes), align: 0
  Segment part 76.            Intra module refs:   reflectTrack_AddNewEntry
    -------------------------------------------------------------------------
DATA16_Z
  Relative segment, address: 19B1 - 19B1 (0x1 bytes), align: 0
  Segment part 78.            Intra module refs:   reflectTrack_AddNewEntry
    -------------------------------------------------------------------------
DATA16_I
  Relative segment, address: 11F6 - 11F6 (0x1 bytes), align: 0
  Segment part 79.            Intra module refs:   reflectTracking_GetMaxSimultaneousAdjusted
    -------------------------------------------------------------------------
DATA16_I
  Relative segment, address: 11F7 - 11F7 (0x1 bytes), align: 0
  Segment part 81.            Intra module refs:   reflectTracking_GetMaxIndirectAdjusted
    -------------------------------------------------------------------------
DATA16_Z
  Relative segment, address: 19B2 - 19B2 (0x1 bytes), align: 0
  Segment part 83.            Intra module refs:   NLME_RouteDiscoveryRequest
           ENTRY                   ADDRESS         REF BY
           =====                   =======         ======
           rreqCounter             19B2 
    -------------------------------------------------------------------------
DATA16_Z
  Relative segment, address: 130A - 130D (0x4 bytes), align: 1
  Segment part 93.            Intra module refs:   SSP_NwkSecurity
    -------------------------------------------------------------------------
DATA16_Z
  Relative segment, address: 130E - 1311 (0x4 bytes), align: 1
  Segment part 94.            Intra module refs:   SSP_GetMicLen
    -------------------------------------------------------------------------
<CODE> 1 (was CODE)
  Relative segment, address: 3A3E - 3A51 (0x14 bytes), align: 1
  Segment part 110.           Intra module refs:   APSDE_DataReqMTU
                                                   Segment part 390
           ENTRY                   ADDRESS         REF BY
           =====                   =======         ======
           SSP_GetMicLen           3A3E 
               calls indirect
               CSTACK = 00000000 ( 00000004 )
    -------------------------------------------------------------------------
<CODE> 1 (was CODE)
  Relative segment, address: 3A52 - 3A6B (0x1a bytes), align: 1
  Segment part 111.           Intra module refs:   nwkApplyNwkSec
                                                   nwk_data_ind_processing
           ENTRY                   ADDRESS         REF BY
           =====                   =======         ======
           SSP_NwkSecurity         3A52 
               calls indirect
               CSTACK = 00000000 ( 00000006 )
    -------------------------------------------------------------------------
<CODE> 1 (was CODE)
  Relative segment, address: 3A6C - 3A7D (0x12 bytes), align: 1
  Segment part 117.           Intra module refs:   NLME_SendNetworkReport
                                                   Segment part 305
                                                   Segment part 470
                                                   Segment part 781
           ENTRY                   ADDRESS         REF BY
           =====                   =======         ======
           NLME_GetExtAddr         3A6C            ZDApp_AnnounceNewAddress (ZDApp)
                                                   ZDApp_Init (ZDApp)
                                                   ZDO_LeaveCnf (ZDApp)
                                                   ZDO_ProcessBindUnbindReq (ZDObject)
                                                   ZDO_UpdateNwkStatus (ZDObject)
                                                   ZDP_EndDeviceBindReq (ZDProfile)
                                                   bindAddrMgrLocalLoad (BindingTable)
               calls direct
               CSTACK = 00000000 ( 00000004 )
    -------------------------------------------------------------------------
<CODE> 1 (was CODE)
  Relative segment, address: 3A7E - 3A83 (0x6 bytes), align: 1
  Segment part 126.           Intra module refs:   NLME_SendNetworkStatus
    -------------------------------------------------------------------------
<CODE> 1 (was CODE)
  Relative segment, address: 3A84 - 3AA9 (0x26 bytes), align: 1
  Segment part 127.
           ENTRY                   ADDRESS         REF BY
           =====                   =======         ======
           SSP_StoreRandomSeedNV   3A84            ZMacInit (zmac)
               calls direct
               CSTACK = 00000000 ( 00000006 )
    -------------------------------------------------------------------------
<CODE> 1 (was CODE)
  Relative segment, address: 3AAA - 3AB1 (0x8 bytes), align: 1
  Segment part 131.           Intra module refs:   nwk_data_ind_processing
    -------------------------------------------------------------------------
<CODE> 1 (was CODE)
  Relative segment, address: 3AB2 - 3AB9 (0x8 bytes), align: 1
  Segment part 139.           Intra module refs:   APS_GetBind
    -------------------------------------------------------------------------
<CODE> 1 (was CODE)
  Relative segment, address: 3ABA - 3AEB (0x32 bytes), align: 1
  Segment part 144.           Intra module refs:   nwkNeighborFindEmptySlot
           ENTRY                   ADDRESS         REF BY
           =====                   =======         ======
           RTG_nextHopIsBad        3ABA 
               CSTACK = 00000000 ( 00000004 )
    -------------------------------------------------------------------------
<CODE> 1 (was CODE)
  Relative segment, address: 3AEC - 3BC1 (0xd6 bytes), align: 1
  Segment part 145.           Intra module refs:   RTG_SendBrokenRoute
           ENTRY                   ADDRESS         REF BY
           =====                   =======         ======
           nwkNeighborFindRandom   3AEC 
               calls direct
               CSTACK = 00000000 ( 00000010 )
    -------------------------------------------------------------------------
<CODE> 1 (was CODE)
  Relative segment, address: 3BC2 - 3BE1 (0x20 bytes), align: 1
  Segment part 146.           Intra module refs:   AddrMgrExtAddrLookup
                                                   Segment part 439
                                                   Segment part 644
           ENTRY                   ADDRESS         REF BY
           =====                   =======         ======
           AddrMgrExtAddrValid     3BC2 
               CSTACK = 00000000 ( 00000004 )
    -------------------------------------------------------------------------
<CODE> 1 (was CODE)
  Relative segment, address: 3BE2 - 3C07 (0x26 bytes), align: 1
  Segment part 147.           Intra module refs:   AddrMgrEntryAddRef
                                                   AddrMgrEntryGet
                                                   AddrMgrEntryRelease
           ENTRY                   ADDRESS         REF BY
           =====                   =======         ======
           AddrMgrEntryValidate    3BE2 
               CSTACK = 00000000 ( 00000004 )
    -------------------------------------------------------------------------
<CODE> 1 (was CODE)
  Relative segment, address: 3C08 - 3C17 (0x10 bytes), align: 1
  Segment part 148.           Intra module refs:   AddrMgrEntryGet
                                                   AddrMgrExtAddrLookup
                                                   Segment part 423
                                                   Segment part 568
           ENTRY                   ADDRESS         REF BY
           =====                   =======         ======
           AddrMgrExtAddrSet       3C08            ?Subroutine30 (ZDSecMgr)
                                                   ?Subroutine6 (BindingTable)
                                                   ZDO_UpdateAddrManager (ZDObject)
                                                   ZDSecMgrExtAddrLookup (ZDSecMgr)
               calls direct
               CSTACK = 00000000 ( 00000004 )
    -------------------------------------------------------------------------
<CODE> 1 (was CODE)
  Relative segment, address: 3C18 - 3C59 (0x42 bytes), align: 1
  Segment part 149.           Intra module refs:   AssocGetWithAddress
           ENTRY                   ADDRESS         REF BY
           =====                   =======         ======
           AddrMgrEntryGet         3C18            ?Subroutine2 (BindingTable)
               calls direct
               CSTACK = 00000000 ( 0000000C )
    -------------------------------------------------------------------------
<CODE> 1 (was CODE)
  Relative segment, address: 3C5A - 3C5F (0x6 bytes), align: 1
  Segment part 150.           Intra module refs:   AddrMgrEntryGet
                                                   AddrMgrEntryLookupExt
    -------------------------------------------------------------------------
<CODE> 1 (was CODE)
  Relative segment, address: 3C60 - 3CCB (0x6c bytes), align: 1
  Segment part 151.           Intra module refs:   AssocGetWithExt
                                                   AssocGetWithShort
           ENTRY                   ADDRESS         REF BY
           =====                   =======         ======
           AssocGetWithAddress     3C60 
               calls direct
               CSTACK = 00000000 ( 0000001A )
    -------------------------------------------------------------------------
<CODE> 1 (was CODE)
  Relative segment, address: 3CCC - 3CD3 (0x8 bytes), align: 1
  Segment part 152.           Intra module refs:   Segment part 284
           ENTRY                   ADDRESS         REF BY
           =====                   =======         ======
           AssocGetWithShort       3CCC 
               calls direct
               CSTACK = 00000000 ( 00000004 )
    -------------------------------------------------------------------------
<CODE> 1 (was CODE)
  Relative segment, address: 3CD4 - 3CF9 (0x26 bytes), align: 1
  Segment part 153.           Intra module refs:   Segment part 236
           ENTRY                   ADDRESS         REF BY
           =====                   =======         ======
           aps_FindGroup           3CD4 
               CSTACK = 00000000 ( 00000004 )
    -------------------------------------------------------------------------
<CODE> 1 (was CODE)
  Relative segment, address: 3CFA - 3D2F (0x36 bytes), align: 1
  Segment part 154.           Intra module refs:   NLME_RouteDiscoveryRequest
                                                   RTG_AddRtgEntry
                                                   RTG_SendRErr
                                                   Segment part 224
           ENTRY                   ADDRESS         REF BY
           =====                   =======         ======
           RTG_GetRoutingAddress   3CFA 
               calls direct
               CSTACK = 00000000 ( 00000006 )
    -------------------------------------------------------------------------
<CODE> 1 (was CODE)
  Relative segment, address: 3D30 - 3D57 (0x28 bytes), align: 1
  Segment part 155.           Intra module refs:   NLME_RouteDiscoveryIndication
                                                   RTG_GetRtgEntry
           ENTRY                   ADDRESS         REF BY
           =====                   =======         ======
           RTG_RemoveRtgEntry      3D30            ZDApp_LeaveUpdate (ZDApp)
               calls direct
               CSTACK = 00000000 ( 00000006 )
    -------------------------------------------------------------------------
<CODE> 1 (was CODE)
  Relative segment, address: 3D58 - 3DBB (0x64 bytes), align: 1
  Segment part 156.           Intra module refs:   RTG_AddRtgEntry
                                                   RTG_SendBrokenRoute
                                                   Segment part 224
                                                   Segment part 575
           ENTRY                   ADDRESS         REF BY
           =====                   =======         ======
           RTG_GetRtgEntry         3D58 
               calls direct
               CSTACK = 00000000 ( 00000006 )
    -------------------------------------------------------------------------
<CODE> 1 (was CODE)
  Relative segment, address: 3DBC - 3E79 (0xbe bytes), align: 1
  Segment part 157.           Intra module refs:   APS_DataIndReflect
                                                   NLDE_DataIndication
           ENTRY                   ADDRESS         REF BY
           =====                   =======         ======
           APSDE_DataIndication    3DBC 
               calls direct and indirect
               CSTACK = 00000000 ( 00000010 )
    -------------------------------------------------------------------------
<CODE> 1 (was CODE)
  Relative segment, address: 3E7A - 3EBB (0x42 bytes), align: 1
  Segment part 158.           Intra module refs:   APS_EndDeviceBroadcastCheck
                                                   Segment part 433
                                                   nwk_data_ind_processing
                                                   nwk_process_dstAddr
           ENTRY                   ADDRESS         REF BY
           =====                   =======         ======
           NLME_IsAddressBroadcast
                                   3E7A            ?Subroutine25 (ZDObject)
                                                   AF_DataRequest (AF)
               CSTACK = 00000000 ( 00000004 )
    -------------------------------------------------------------------------
<CODE> 1 (was CODE)
  Relative segment, address: 3EBC - 3F3F (0x84 bytes), align: 1
  Segment part 159.           Intra module refs:   NLDE_DataIndication
           ENTRY                   ADDRESS         REF BY
           =====                   =======         ======
           APS_EndDeviceBroadcastCheck
                                   3EBC 
               calls direct
               CSTACK = 00000000 ( 00000006 )
    -------------------------------------------------------------------------
<CODE> 1 (was CODE)
  Relative segment, address: 3F40 - 3FAB (0x6c bytes), align: 1
  Segment part 160.           Intra module refs:   NLDE_DataIndication
           ENTRY                   ADDRESS         REF BY
           =====                   =======         ======
           APS_CmdInd              3F40 
               calls direct
               CSTACK = 00000000 ( 0000000C )
    -------------------------------------------------------------------------
<CODE> 1 (was CODE)
  Relative segment, address: 3FAC - 3FAF (0x4 bytes), align: 1
  Segment part 161.           Intra module refs:   APSDE_FrameAlloc
                                                   APSDE_FrameSend
           ENTRY                   ADDRESS         REF BY
           =====                   =======         ======
           APSDE_FrameBlkFree      3FAC 
               calls direct
               CSTACK = 00000000 ( 00000004 )
    -------------------------------------------------------------------------
<CODE> 1 (was CODE)
  Relative segment, address: 3FB0 - 3FB9 (0xa bytes), align: 1
  Segment part 162.           Intra module refs:   APSDE_FrameBlkFree
                                                   nwkDB_DeleteRecAll
                                                   nwk_MacDataBuffersAdd
    -------------------------------------------------------------------------
<CODE> 1 (was CODE)
  Relative segment, address: 3FBA - 40B7 (0xfe bytes), align: 1
  Segment part 163.           Intra module refs:   Segment part 738
           ENTRY                   ADDRESS         REF BY
           =====                   =======         ======
           APSDE_FrameHdrSet       3FBA 
               CSTACK = 00000000 ( 00000008 )
    -------------------------------------------------------------------------
<CODE> 1 (was CODE)
  Relative segment, address: 40B8 - 40DD (0x26 bytes), align: 1
  Segment part 164.           Intra module refs:   APSDE_DataReq
                                                   APS_Reflect
                                                   apsGenerateAck
           ENTRY                   ADDRESS         REF BY
           =====                   =======         ======
           APSDE_FrameSend         40B8 
               calls direct and indirect
               CSTACK = 00000000 ( 00000006 )
    -------------------------------------------------------------------------
<CODE> 1 (was CODE)
  Relative segment, address: 40DE - 40F9 (0x1c bytes), align: 1
  Segment part 165.           Intra module refs:   NLDE_GetHandle
                                                   nwkBuildDataCnf
                                                   nwk_MacDataBuffersAdd
                                                   nwk_MacDataBuffersDealloc
                                                   nwk_data_cnf_processing
           ENTRY                   ADDRESS         REF BY
           =====                   =======         ======
           nwkDB_FindHandle        40DE 
               CSTACK = 00000000 ( 00000004 )
    -------------------------------------------------------------------------
<CODE> 1 (was CODE)
  Relative segment, address: 40FA - 4113 (0x1a bytes), align: 1
  Segment part 166.           Intra module refs:   NLDE_DataReqAlloc
           ENTRY                   ADDRESS         REF BY
           =====                   =======         ======
           NLDE_GetHandle          40FA 
               calls direct
               CSTACK = 00000000 ( 00000004 )
    -------------------------------------------------------------------------
<CODE> 1 (was CODE)
  Relative segment, address: 4114 - 4119 (0x6 bytes), align: 1
  Segment part 167.
           ENTRY                   ADDRESS         REF BY
           =====                   =======         ======
           NLME_GetShortAddr       4114            AF_DataRequest (AF)
                                                   ZDApp_AnnounceNewAddress (ZDApp)
                                                   ZDApp_ProcessNetworkJoin (ZDApp)
                                                   ZDO_ProcessActiveEPReq (ZDObject)
                                                   ZDO_UpdateNwkStatus (ZDObject)
                                                   ZDP_EndDeviceBindReq (ZDProfile)
                                                   zclSampleSw_HandleKeys (zcl_samplesw)
               CSTACK = 00000000 ( 00000004 )
    -------------------------------------------------------------------------
<CODE> 1 (was CODE)
  Relative segment, address: 411A - 415B (0x42 bytes), align: 1
  Segment part 168.           Intra module refs:   APSDE_FrameAlloc
                                                   NLME_CmdDataReqAlloc
           ENTRY                   ADDRESS         REF BY
           =====                   =======         ======
           NLDE_DataReqAlloc       411A 
               calls direct
               CSTACK = 00000000 ( 00000008 )
    -------------------------------------------------------------------------
<CODE> 1 (was CODE)
  Relative segment, address: 415C - 4161 (0x6 bytes), align: 1
  Segment part 169.           Intra module refs:   NLDE_DataReqAlloc
                                                   nwk_broadcastReceive
    -------------------------------------------------------------------------
<CODE> 1 (was CODE)
  Relative segment, address: 4162 - 418D (0x2c bytes), align: 1
  Segment part 170.           Intra module refs:   APSDE_FrameBlkInit
           ENTRY                   ADDRESS         REF BY
           =====                   =======         ======
           APSME_FrameSecInit      4162 
               calls indirect
               CSTACK = 00000000 ( 00000006 )
    -------------------------------------------------------------------------
<CODE> 1 (was CODE)
  Relative segment, address: 418E - 4215 (0x88 bytes), align: 1
  Segment part 171.           Intra module refs:   APSDE_FrameBlkInit
           ENTRY                   ADDRESS         REF BY
           =====                   =======         ======
           APSDE_FrameHdrInit      418E 
               CSTACK = 00000000 ( 00000006 )
    -------------------------------------------------------------------------
<CODE> 1 (was CODE)
  Relative segment, address: 4216 - 4235 (0x20 bytes), align: 1
  Segment part 172.           Intra module refs:   APSDE_FrameAlloc
           ENTRY                   ADDRESS         REF BY
           =====                   =======         ======
           APSDE_FrameBlkInit      4216 
               calls direct
               CSTACK = 00000000 ( 00000006 )
    -------------------------------------------------------------------------
<CODE> 1 (was CODE)
  Relative segment, address: 4236 - 42D5 (0xa0 bytes), align: 1
  Segment part 173.           Intra module refs:   Segment part 732
           ENTRY                   ADDRESS         REF BY
           =====                   =======         ======
           APSDE_FrameAlloc        4236 
               calls direct
               CSTACK = 00000000 ( 0000000E )
    -------------------------------------------------------------------------
<CODE> 1 (was CODE)
  Relative segment, address: 42D6 - 437B (0xa6 bytes), align: 1
  Segment part 174.           Intra module refs:   APSF_IncomingData
                                                   Segment part 191
           ENTRY                   ADDRESS         REF BY
           =====                   =======         ======
           apsGenerateAck          42D6 
               calls direct
               CSTACK = 00000000 ( 0000001A )
    -------------------------------------------------------------------------
<CODE> 1 (was CODE)
  Relative segment, address: 437C - 43A7 (0x2c bytes), align: 1
  Segment part 175.           Intra module refs:   nwkDB_AddIndirectEntry
                                                   nwk_MacDataBuffersDealloc
           LOCAL                   ADDRESS         
           =====                   =======         
           nwkDB_FindNextIndirectHold
                                   437C 
               CSTACK = 00000000 ( 00000004 )
    -------------------------------------------------------------------------
<CODE> 1 (was CODE)
  Relative segment, address: 43A8 - 43DD (0x36 bytes), align: 1
  Segment part 176.           Intra module refs:   nwk_MacDataBuffersDealloc
           LOCAL                   ADDRESS         
           =====                   =======         
           nwkDB_AddIndirectEntry
                                   43A8 
               calls direct
               CSTACK = 00000000 ( 00000006 )
    -------------------------------------------------------------------------
<CODE> 1 (was CODE)
  Relative segment, address: 43DE - 4409 (0x2c bytes), align: 1
  Segment part 177.           Intra module refs:   nwkDB_DeleteRecAll
           ENTRY                   ADDRESS         REF BY
           =====                   =======         ======
           nwkDB_RemoveFromList    43DE 
               CSTACK = 00000000 ( 00000004 )
    -------------------------------------------------------------------------
<CODE> 1 (was CODE)
  Relative segment, address: 440A - 4435 (0x2c bytes), align: 1
  Segment part 178.           Intra module refs:   nwk_MacDataBuffersDealloc
           ENTRY                   ADDRESS         REF BY
           =====                   =======         ======
           nwkDB_DeleteRecAll      440A 
               calls direct
               CSTACK = 00000000 ( 00000006 )
    -------------------------------------------------------------------------
<CODE> 1 (was CODE)
  Relative segment, address: 4436 - 4487 (0x52 bytes), align: 1
  Segment part 179.           Intra module refs:   nwkBuildDataCnf
                                                   nwk_data_cnf_processing
           ENTRY                   ADDRESS         REF BY
           =====                   =======         ======
           nwk_MacDataBuffersDealloc
                                   4436 
               calls direct
               CSTACK = 00000000 ( 00000010 )
    -------------------------------------------------------------------------
<CODE> 1 (was CODE)
  Relative segment, address: 4488 - 448F (0x8 bytes), align: 1
  Segment part 180.           Intra module refs:   nwk_MacDataBuffersDealloc
                                                   nwk_associate_cnf_processing
    -------------------------------------------------------------------------
<CODE> 1 (was CODE)
  Relative segment, address: 4490 - 44A7 (0x18 bytes), align: 1
  Segment part 181.           Intra module refs:   nwkBuildDataCnf
           ENTRY                   ADDRESS         REF BY
           =====                   =======         ======
           RTG_BcastDel            4490 
               CSTACK = 00000000 ( 00000004 )
    -------------------------------------------------------------------------
<CODE> 1 (was CODE)
  Relative segment, address: 44A8 - 44FB (0x54 bytes), align: 1
  Segment part 182.           Intra module refs:   Segment part 524
           ENTRY                   ADDRESS         REF BY
           =====                   =======         ======
           nwkBuildDataCnf         44A8 
               calls direct
               CSTACK = 00000000 ( 00000008 )
    -------------------------------------------------------------------------
<CODE> 1 (was CODE)
  Relative segment, address: 44FC - 452F (0x34 bytes), align: 1
  Segment part 183.           Intra module refs:   apsProcessAck
           ENTRY                   ADDRESS         REF BY
           =====                   =======         ======
           nwkDB_FindMatch         44FC 
               calls indirect
               CSTACK = 00000000 ( 00000010 )
    -------------------------------------------------------------------------
<CODE> 1 (was CODE)
  Relative segment, address: 4530 - 4579 (0x4a bytes), align: 1
  Segment part 184.           Intra module refs:   NLDE_DataIndication
           ENTRY                   ADDRESS         REF BY
           =====                   =======         ======
           apsProcessAck           4530 
               calls direct and indirect
               CSTACK = 00000000 ( 00000008 )
    -------------------------------------------------------------------------
<CODE> 1 (was CODE)
  Relative segment, address: 457A - 4583 (0xa bytes), align: 1
  Segment part 185.           Intra module refs:   apsProcessAck
    -------------------------------------------------------------------------
<CODE> 1 (was CODE)
  Relative segment, address: 4584 - 45A1 (0x1e bytes), align: 1
  Segment part 186.           Intra module refs:   NLDE_DataIndication
           ENTRY                   ADDRESS         REF BY
           =====                   =======         ======
           APSME_FrameSecurityRemove
                                   4584 
               calls direct and indirect
               CSTACK = 00000000 ( 00000008 )
    -------------------------------------------------------------------------
<CODE> 1 (was CODE)
  Relative segment, address: 45A2 - 46A9 (0x108 bytes), align: 1
  Segment part 187.           Intra module refs:   NLDE_DataIndication
           ENTRY                   ADDRESS         REF BY
           =====                   =======         ======
           APSDE_ParseMsg          45A2 
               CSTACK = 00000000 ( 0000000C )
    -------------------------------------------------------------------------
<CODE> 1 (was CODE)
  Relative segment, address: 46AA - 46AF (0x6 bytes), align: 1
  Segment part 188.           Intra module refs:   APSDE_ParseMsg
    -------------------------------------------------------------------------
<CODE> 1 (was CODE)
  Relative segment, address: 46B0 - 46B7 (0x8 bytes), align: 1
  Segment part 189.           Intra module refs:   NLME_RejoinRspCmdProcess
                                                   Segment part 188
                                                   Segment part 460
    -------------------------------------------------------------------------
<CODE> 1 (was CODE)
  Relative segment, address: 46B8 - 481F (0x168 bytes), align: 1
  Segment part 190.           Intra module refs:   NLDE_DataIndSend
                                                   nwk_data_ind_processing
           ENTRY                   ADDRESS         REF BY
           =====                   =======         ======
           NLDE_DataIndication     46B8 
               calls direct and indirect
               CSTACK = 00000000 ( 00000044 )
    -------------------------------------------------------------------------
<CODE> 1 (was CODE)
  Relative segment, address: 4820 - 482D (0xe bytes), align: 1
  Segment part 191.           Intra module refs:   NLDE_DataIndication
    -------------------------------------------------------------------------
<CODE> 1 (was CODE)
  Relative segment, address: 482E - 487D (0x50 bytes), align: 1
  Segment part 192.           Intra module refs:   NLDE_DataReq
           ENTRY                   ADDRESS         REF BY
           =====                   =======         ======
           NLDE_DataIndSend        482E 
               calls direct
               CSTACK = 00000000 ( 00000028 )
    -------------------------------------------------------------------------
<CODE> 1 (was CODE)
  Relative segment, address: 487E - 489D (0x20 bytes), align: 1
  Segment part 193.           Intra module refs:   nwkDB_Add
                                                   nwk_MacDataBuffersFull
           ENTRY                   ADDRESS         REF BY
           =====                   =======         ======
           nwkDB_CountTypes        487E 
               CSTACK = 00000000 ( 00000004 )
    -------------------------------------------------------------------------
<CODE> 1 (was CODE)
  Relative segment, address: 489E - 490D (0x70 bytes), align: 1
  Segment part 194.           Intra module refs:   nwk_MacDataBuffersAdd
           ENTRY                   ADDRESS         REF BY
           =====                   =======         ======
           nwkDB_Add               489E 
               calls direct
               CSTACK = 00000000 ( 00000008 )
    -------------------------------------------------------------------------
<CODE> 1 (was CODE)
  Relative segment, address: 490E - 4957 (0x4a bytes), align: 1
  Segment part 195.           Intra module refs:   nwkDB_UserDataLoad
           ENTRY                   ADDRESS         REF BY
           =====                   =======         ======
           NLDE_FrameDataLoad      490E 
               calls direct
               CSTACK = 00000000 ( 00000006 )
    -------------------------------------------------------------------------
<CODE> 1 (was CODE)
  Relative segment, address: 4958 - 496D (0x16 bytes), align: 1
  Segment part 196.           Intra module refs:   nwk_MacDataBuffersAdd
           ENTRY                   ADDRESS         REF BY
           =====                   =======         ======
           nwkDB_UserDataLoad      4958 
               calls direct
               CSTACK = 00000000 ( 00000004 )
    -------------------------------------------------------------------------
<CODE> 1 (was CODE)
  Relative segment, address: 496E - 49A3 (0x36 bytes), align: 1
  Segment part 197.           Intra module refs:   nwk_MacDataBuffersAdd
           ENTRY                   ADDRESS         REF BY
           =====                   =======         ======
           nwkDB_CreateHdr         496E 
               calls direct
               CSTACK = 00000000 ( 0000000C )
    -------------------------------------------------------------------------
<CODE> 1 (was CODE)
  Relative segment, address: 49A4 - 4AB1 (0x10e bytes), align: 1
  Segment part 198.           Intra module refs:   NLDE_SendMsg
                                                   nwk_data_cnf_processing
                                                   nwk_data_req_send
           ENTRY                   ADDRESS         REF BY
           =====                   =======         ======
           nwk_MacDataBuffersAdd   49A4 
               calls direct
               CSTACK = 00000000 ( 00000010 )
    -------------------------------------------------------------------------
<CODE> 1 (was CODE)
  Relative segment, address: 4AB2 - 4B55 (0xa4 bytes), align: 1
  Segment part 199.           Intra module refs:   NLDE_DataReqSend
           ENTRY                   ADDRESS         REF BY
           =====                   =======         ======
           NLDE_SendMsg            4AB2 
               calls direct
               CSTACK = 00000000 ( 00000024 )
    -------------------------------------------------------------------------
<CODE> 1 (was CODE)
  Relative segment, address: 4B56 - 4BAB (0x56 bytes), align: 1
  Segment part 201.           Intra module refs:   NLDE_BuildMsg
           ENTRY                   ADDRESS         REF BY
           =====                   =======         ======
           NLDE_BuildFrameControl
                                   4B56 
               CSTACK = 00000000 ( 00000008 )
    -------------------------------------------------------------------------
<CODE> 1 (was CODE)
  Relative segment, address: 4BAC - 4CE3 (0x138 bytes), align: 1
  Segment part 202.           Intra module refs:   NLDE_DataReqSend
           ENTRY                   ADDRESS         REF BY
           =====                   =======         ======
           NLDE_BuildMsg           4BAC 
               calls direct
               CSTACK = 00000000 ( 00000010 )
    -------------------------------------------------------------------------
<CODE> 1 (was CODE)
  Relative segment, address: 4CE4 - 4D0B (0x28 bytes), align: 1
  Segment part 203.           Intra module refs:   NLME_ReJoinReq
                                                   NLME_RouteDiscoveryRequest
                                                   NLME_SendNetworkReport
                                                   NLME_SendNetworkStatus
           ENTRY                   ADDRESS         REF BY
           =====                   =======         ======
           NLME_CmdDataReqAlloc    4CE4 
               calls direct
               CSTACK = 00000000 ( 00000006 )
    -------------------------------------------------------------------------
<CODE> 1 (was CODE)
  Relative segment, address: 4D0C - 4D11 (0x6 bytes), align: 1
  Segment part 204.           Intra module refs:   APSF_FreeObj
                                                   NLME_CmdDataReqAlloc
    -------------------------------------------------------------------------
<CODE> 1 (was CODE)
  Relative segment, address: 4D12 - 4D33 (0x22 bytes), align: 1
  Segment part 205.           Intra module refs:   Segment part 268
           ENTRY                   ADDRESS         REF BY
           =====                   =======         ======
           RTG_GetRtDiscEntry      4D12 
               CSTACK = 00000000 ( 00000004 )
    -------------------------------------------------------------------------
<CODE> 1 (was CODE)
  Relative segment, address: 4D34 - 4D9D (0x6a bytes), align: 1
  Segment part 206.           Intra module refs:   NLME_RouteDiscoveryRequest
           ENTRY                   ADDRESS         REF BY
           =====                   =======         ======
           RTG_UpdateRtDiscEntry   4D34 
               calls direct
               CSTACK = 00000000 ( 00000010 )
    -------------------------------------------------------------------------
<CODE> 1 (was CODE)
  Relative segment, address: 4D9E - 4DD3 (0x36 bytes), align: 1
  Segment part 207.           Intra module refs:   Segment part 319
                                                   nwkNeighborFindEmptySlot
                                                   nwkNeighborGetLinkInfo
                                                   nwkNeighborRemove
           ENTRY                   ADDRESS         REF BY
           =====                   =======         ======
           nwkNeighborFind         4D9E 
               CSTACK = 00000000 ( 00000006 )
    -------------------------------------------------------------------------
<CODE> 1 (was CODE)
  Relative segment, address: 4DD4 - 4E23 (0x50 bytes), align: 1
  Segment part 208.           Intra module refs:   AddrMgrEntryUpdate
                                                   AddrMgrExtAddrLookup
                                                   NLME_CheckNewAddrSet
           ENTRY                   ADDRESS         REF BY
           =====                   =======         ======
           AddrMgrEntryLookupNwk   4DD4            ?Subroutine4 (BindingTable)
               calls direct
               CSTACK = 00000000 ( 0000000C )
    -------------------------------------------------------------------------
<CODE> 1 (was CODE)
  Relative segment, address: 4E24 - 4E4D (0x2a bytes), align: 1
  Segment part 209.           Intra module refs:   NLME_RouteDiscoveryRequest
                                                   NLME_SendNetworkReport
           ENTRY                   ADDRESS         REF BY
           =====                   =======         ======
           AddrMgrExtAddrLookup    4E24 
               calls direct
               CSTACK = 00000000 ( 00000014 )
    -------------------------------------------------------------------------
<CODE> 1 (was CODE)
  Relative segment, address: 4E4E - 4E5F (0x12 bytes), align: 1
  Segment part 210.           Intra module refs:   Segment part 311
                                                   nwk_data_ind_processing
           ENTRY                   ADDRESS         REF BY
           =====                   =======         ======
           nwkNeighborGetLinkInfo
                                   4E4E 
               calls direct
               CSTACK = 00000000 ( 00000004 )
    -------------------------------------------------------------------------
<CODE> 1 (was CODE)
  Relative segment, address: 4E60 - 4F85 (0x126 bytes), align: 1
  Segment part 211.           Intra module refs:   NLME_RouteDiscoveryRequest
           ENTRY                   ADDRESS         REF BY
           =====                   =======         ======
           RTG_AddRtgEntry         4E60 
               calls direct
               CSTACK = 00000000 ( 00000010 )
    -------------------------------------------------------------------------
<CODE> 1 (was CODE)
  Relative segment, address: 4F86 - 4FD9 (0x54 bytes), align: 1
  Segment part 212.           Intra module refs:   NLME_RouteDiscoveryRequest
           ENTRY                   ADDRESS         REF BY
           =====                   =======         ======
           RTG_CheckRtStatus       4F86            AF_DataRequest (AF)
               calls direct
               CSTACK = 00000000 ( 0000000C )
    -------------------------------------------------------------------------
<CODE> 1 (was CODE)
  Relative segment, address: 4FDA - 4FE3 (0xa bytes), align: 1
  Segment part 213.           Intra module refs:   RTG_CheckRtStatus
                                                   RTG_RemoveRtgEntry
    -------------------------------------------------------------------------
<CODE> 1 (was CODE)
  Relative segment, address: 4FE4 - 5117 (0x134 bytes), align: 1
  Segment part 214.           Intra module refs:   NLME_RouteDiscoveryIndication
                                                   RTG_MTORouteReq
           ENTRY                   ADDRESS         REF BY
           =====                   =======         ======
           NLME_RouteDiscoveryRequest
                                   4FE4 
               calls direct
               CSTACK = 00000000 ( 0000001E )
    -------------------------------------------------------------------------
<CODE> 1 (was CODE)
  Relative segment, address: 5118 - 511F (0x8 bytes), align: 1
  Segment part 215.           Intra module refs:   NLME_RouteDiscoveryRequest
    -------------------------------------------------------------------------
<CODE> 1 (was CODE)
  Relative segment, address: 5120 - 513D (0x1e bytes), align: 1
  Segment part 216.           Intra module refs:   RTG_SendRErr
           ENTRY                   ADDRESS         REF BY
           =====                   =======         ======
           NLME_RouteDiscoveryIndication
                                   5120 
               calls direct
               CSTACK = 00000000 ( 00000006 )
    -------------------------------------------------------------------------
<CODE> 1 (was CODE)
  Relative segment, address: 513E - 5195 (0x58 bytes), align: 1
  Segment part 217.           Intra module refs:   nwk_indSendError
           ENTRY                   ADDRESS         REF BY
           =====                   =======         ======
           RTG_SendRErr            513E 
               calls direct
               CSTACK = 00000000 ( 0000000E )
    -------------------------------------------------------------------------
<CODE> 1 (was CODE)
  Relative segment, address: 5196 - 519D (0x8 bytes), align: 1
  Segment part 222.           Intra module refs:   APSDE_FrameHdrSet
    -------------------------------------------------------------------------
<CODE> 1 (was CODE)
  Relative segment, address: 519E - 51A7 (0xa bytes), align: 1
  Segment part 224.           Intra module refs:   Segment part 213
    -------------------------------------------------------------------------
<CODE> 1 (was CODE)
  Relative segment, address: 51A8 - 51AF (0x8 bytes), align: 1
  Segment part 226.           Intra module refs:   AssocChangeNwkAddr
                                                   AssocGetWithAddress
                                                   NLME_CheckNewAddrSet
                                                   NLME_LeaveCmdCnf
                                                   NLME_LeaveCmdProcess
                                                   apsGenerateAck
    -------------------------------------------------------------------------
<CODE> 1 (was CODE)
  Relative segment, address: 51B0 - 51B7 (0x8 bytes), align: 1
  Segment part 232.           Intra module refs:   nwk_event_loop
    -------------------------------------------------------------------------
<CODE> 1 (was CODE)
  Relative segment, address: 51B8 - 51D7 (0x20 bytes), align: 1
  Segment part 234.           Intra module refs:   NLDE_DataReqSend
           ENTRY                   ADDRESS         REF BY
           =====                   =======         ======
           nwk_MacDataBuffersFull
                                   51B8 
               calls direct
               CSTACK = 00000000 ( 00000004 )
    -------------------------------------------------------------------------
<CODE> 1 (was CODE)
  Relative segment, address: 51D8 - 52E5 (0x10e bytes), align: 1
  Segment part 235.           Intra module refs:   NLDE_DataReq
           ENTRY                   ADDRESS         REF BY
           =====                   =======         ======
           NLDE_DataReqSend        51D8 
               calls direct
               CSTACK = 00000000 ( 00000018 )
    -------------------------------------------------------------------------
<CODE> 1 (was CODE)
  Relative segment, address: 52E6 - 52EF (0xa bytes), align: 1
  Segment part 236.           Intra module refs:   NLDE_DataReqSend
                                                   RTG_GetRoutingAddress
                                                   nwk_process_dstAddr
    -------------------------------------------------------------------------
<CODE> 1 (was CODE)
  Relative segment, address: 52F0 - 5343 (0x54 bytes), align: 1
  Segment part 237.           Intra module refs:   APSDE_FrameSend
                                                   NLME_ReJoinReq
                                                   NLME_RouteDiscoveryRequest
                                                   NLME_SendNetworkReport
                                                   NLME_SendNetworkStatus
           ENTRY                   ADDRESS         REF BY
           =====                   =======         ======
           NLDE_DataReq            52F0 
               calls direct
               CSTACK = 00000000 ( 00000008 )
    -------------------------------------------------------------------------
<CODE> 1 (was CODE)
  Relative segment, address: 5344 - 5349 (0x6 bytes), align: 1
  Segment part 238.           Intra module refs:   NLDE_DataReq
                                                   nwkProcessPanIdScan
                                                   nwk_MacDataBuffersAdd
    -------------------------------------------------------------------------
<CODE> 1 (was CODE)
  Relative segment, address: 534A - 53A5 (0x5c bytes), align: 1
  Segment part 239.           Intra module refs:   RTG_SendBrokenRoute
                                                   RTG_SendRErr
           ENTRY                   ADDRESS         REF BY
           =====                   =======         ======
           NLME_SendNetworkStatus
                                   534A 
               calls direct
               CSTACK = 00000000 ( 00000014 )
    -------------------------------------------------------------------------
<CODE> 1 (was CODE)
  Relative segment, address: 53A6 - 53F5 (0x50 bytes), align: 1
  Segment part 240.           Intra module refs:   Segment part 246
                                                   nwk_indSendError
           ENTRY                   ADDRESS         REF BY
           =====                   =======         ======
           RTG_SendBrokenRoute     53A6 
               calls direct
               CSTACK = 00000000 ( 0000000C )
    -------------------------------------------------------------------------
<CODE> 1 (was CODE)
  Relative segment, address: 53F6 - 541F (0x2a bytes), align: 1
  Segment part 241.           Intra module refs:   Segment part 595
                                                   nwk_event_loop
           ENTRY                   ADDRESS         REF BY
           =====                   =======         ======
           nwkDB_FindNextType      53F6 
               CSTACK = 00000000 ( 00000004 )
    -------------------------------------------------------------------------
<CODE> 1 (was CODE)
  Relative segment, address: 5420 - 542F (0x10 bytes), align: 1
  Segment part 246.           Intra module refs:   RTG_SendRErr
    -------------------------------------------------------------------------
<CODE> 1 (was CODE)
  Relative segment, address: 5430 - 5445 (0x16 bytes), align: 1
  Segment part 256.           Intra module refs:   NLDE_DataCnf
                                                   nwkDB_Add
                                                   nwk_MacDataBuffersAdd
    -------------------------------------------------------------------------
<CODE> 1 (was CODE)
  Relative segment, address: 5446 - 5449 (0x4 bytes), align: 1
  Segment part 257.           Intra module refs:   Segment part 256
    -------------------------------------------------------------------------
<CODE> 1 (was CODE)
  Relative segment, address: 544A - 5451 (0x8 bytes), align: 1
  Segment part 258.           Intra module refs:   Segment part 257
                                                   nwk_broadcastSend
    -------------------------------------------------------------------------
<CODE> 1 (was CODE)
  Relative segment, address: 5452 - 5457 (0x6 bytes), align: 1
  Segment part 263.           Intra module refs:   apsProcessAck
    -------------------------------------------------------------------------
<CODE> 1 (was CODE)
  Relative segment, address: 5458 - 545B (0x4 bytes), align: 1
  Segment part 264.           Intra module refs:   RTG_MTORouteReq
                                                   nwkScanPanIDs
                                                   nwk_event_loop
    -------------------------------------------------------------------------
<CODE> 1 (was CODE)
  Relative segment, address: 545C - 5463 (0x8 bytes), align: 1
  Segment part 265.           Intra module refs:   APS_EndDeviceBroadcastCheck
                                                   Segment part 264
    -------------------------------------------------------------------------
<CODE> 1 (was CODE)
  Relative segment, address: 5464 - 546D (0xa bytes), align: 1
  Segment part 268.           Intra module refs:   RTG_UpdateRtDiscEntry
    -------------------------------------------------------------------------
<CODE> 1 (was CODE)
  Relative segment, address: 546E - 5477 (0xa bytes), align: 1
  Segment part 269.           Intra module refs:   RTG_UpdateRtDiscEntry
    -------------------------------------------------------------------------
<CODE> 1 (was CODE)
  Relative segment, address: 5478 - 54A7 (0x30 bytes), align: 1
  Segment part 273.           Intra module refs:   nwk_process_dstAddr
           ENTRY                   ADDRESS         REF BY
           =====                   =======         ======
           RTG_ValidateSrcRtg      5478 
               CSTACK = 00000000 ( 00000008 )
    -------------------------------------------------------------------------
<CODE> 1 (was CODE)
  Relative segment, address: 54A8 - 54AF (0x8 bytes), align: 1
  Segment part 280.           Intra module refs:   NLDE_ParseMsg2
                                                   nwkDB_CreateHdr
                                                   nwk_BeaconFromNative
    -------------------------------------------------------------------------
<CODE> 1 (was CODE)
  Relative segment, address: 54B0 - 54B5 (0x6 bytes), align: 1
  Segment part 282.           Intra module refs:   reflectTrack_GetNewEntry
    -------------------------------------------------------------------------
<CODE> 1 (was CODE)
  Relative segment, address: 54B6 - 54BD (0x8 bytes), align: 1
  Segment part 284.           Intra module refs:   RTG_GetRoutingAddress
    -------------------------------------------------------------------------
<CODE> 1 (was CODE)
  Relative segment, address: 54BE - 5547 (0x8a bytes), align: 1
  Segment part 288.           Intra module refs:   nwk_beacon_notify_ind_processing
           ENTRY                   ADDRESS         REF BY
           =====                   =======         ======
           nwk_BeaconFromNative    54BE 
               calls direct
               CSTACK = 00000000 ( 0000000C )
    -------------------------------------------------------------------------
<CODE> 1 (was CODE)
  Relative segment, address: 5548 - 5555 (0xe bytes), align: 1
  Segment part 294.           Intra module refs:   NLME_LeaveCmdProcess
                                                   nwk_data_req_send
           ENTRY                   ADDRESS         REF BY
           =====                   =======         ======
           NLME_GetCoordShortAddr
                                   5548            ZDO_LeaveInd (ZDApp)
                                                   bindAddrMgrLocalLoad (BindingTable)
               calls direct
               CSTACK = 00000000 ( 00000006 )
    -------------------------------------------------------------------------
<CODE> 1 (was CODE)
  Relative segment, address: 5556 - 55B9 (0x64 bytes), align: 1
  Segment part 298.           Intra module refs:   Segment part 456
           ENTRY                   ADDRESS         REF BY
           =====                   =======         ======
           NLDE_ParseFrameControl
                                   5556 
               CSTACK = 00000000 ( 00000004 )
    -------------------------------------------------------------------------
<CODE> 1 (was CODE)
  Relative segment, address: 55BA - 55C1 (0x8 bytes), align: 1
  Segment part 299.           Intra module refs:   NLDE_ParseFrameControl
    -------------------------------------------------------------------------
<CODE> 1 (was CODE)
  Relative segment, address: 55C2 - 5693 (0xd2 bytes), align: 1
  Segment part 300.           Intra module refs:   nwkApplyNwkSec
                                                   nwk_data_ind_processing
           ENTRY                   ADDRESS         REF BY
           =====                   =======         ======
           NLDE_ParseMsg           55C2 
               calls direct
               CSTACK = 00000000 ( 00000010 )
    -------------------------------------------------------------------------
<CODE> 1 (was CODE)
  Relative segment, address: 5694 - 569B (0x8 bytes), align: 1
  Segment part 304.           Intra module refs:   APS_DataIndReflect
    -------------------------------------------------------------------------
<CODE> 1 (was CODE)
  Relative segment, address: 569C - 56A3 (0x8 bytes), align: 1
  Segment part 305.           Intra module refs:   NLME_CmdDataReqAlloc
                                                   NLME_ReJoinReq
                                                   NLME_RouteDiscoveryRequest
    -------------------------------------------------------------------------
<CODE> 1 (was CODE)
  Relative segment, address: 56A4 - 56AB (0x8 bytes), align: 1
  Segment part 311.           Intra module refs:   RTG_AddRtgEntry
                                                   RTG_CheckRtStatus
                                                   RTG_UpdateNeighborEntry
    -------------------------------------------------------------------------
<CODE> 1 (was CODE)
  Relative segment, address: 56AC - 56B7 (0xc bytes), align: 1
  Segment part 312.           Intra module refs:   RTG_CheckRtStatus
                                                   nwkNeighborAdd
    -------------------------------------------------------------------------
<CODE> 1 (was CODE)
  Relative segment, address: 56B8 - 56C1 (0xa bytes), align: 1
  Segment part 319.           Intra module refs:   NLME_RouteDiscoveryRequest
    -------------------------------------------------------------------------
<CODE> 1 (was CODE)
  Relative segment, address: 56C2 - 56F9 (0x38 bytes), align: 1
  Segment part 320.           Intra module refs:   nwk_indSendError
           ENTRY                   ADDRESS         REF BY
           =====                   =======         ======
           RTG_MTORouteReq         56C2 
               calls direct
               CSTACK = 00000000 ( 00000004 )
    -------------------------------------------------------------------------
<CODE> 1 (was CODE)
  Relative segment, address: 56FA - 5703 (0xa bytes), align: 1
  Segment part 327.           Intra module refs:   Segment part 347
    -------------------------------------------------------------------------
<CODE> 1 (was CODE)
  Relative segment, address: 5704 - 5727 (0x24 bytes), align: 1
  Segment part 329.           Intra module refs:   APS_ReReflect
           ENTRY                   ADDRESS         REF BY
           =====                   =======         ======
           reflectTrack_UpdateOption
                                   5704 
               CSTACK = 00000000 ( 00000008 )
    -------------------------------------------------------------------------
<CODE> 1 (was CODE)
  Relative segment, address: 5728 - 5759 (0x32 bytes), align: 1
  Segment part 330.           Intra module refs:   APS_ReReflect
           ENTRY                   ADDRESS         REF BY
           =====                   =======         ======
           reflectTrack_FindHandle
                                   5728 
               CSTACK = 00000000 ( 00000006 )
    -------------------------------------------------------------------------
<CODE> 1 (was CODE)
  Relative segment, address: 575A - 577F (0x26 bytes), align: 1
  Segment part 332.           Intra module refs:   reflectTrack_AddNewEntry
           ENTRY                   ADDRESS         REF BY
           =====                   =======         ======
           reflectTrack_AddToEnd   575A 
               CSTACK = 00000000 ( 00000004 )
    -------------------------------------------------------------------------
<CODE> 1 (was CODE)
  Relative segment, address: 5780 - 578F (0x10 bytes), align: 1
  Segment part 333.           Intra module refs:   APS_DataIndReflect
                                                   APS_ReflectMonitor
           ENTRY                   ADDRESS         REF BY
           =====                   =======         ======
           APSDE_DataCnf           5780 
               calls direct
               CSTACK = 00000000 ( 00000004 )
    -------------------------------------------------------------------------
<CODE> 1 (was CODE)
  Relative segment, address: 5790 - 57F3 (0x64 bytes), align: 1
  Segment part 334.           Intra module refs:   APS_Reflect
                                                   reflectTrack_RemoveEntryNotify
           ENTRY                   ADDRESS         REF BY
           =====                   =======         ======
           APS_ReflectMonitor      5790 
               calls direct
               CSTACK = 00000000 ( 00000012 )
    -------------------------------------------------------------------------
<CODE> 1 (was CODE)
  Relative segment, address: 57F4 - 57F9 (0x6 bytes), align: 1
  Segment part 335.           Intra module refs:   reflectTrack_RemoveEntry
           ENTRY                   ADDRESS         REF BY
           =====                   =======         ======
           reflectTrack_RemoveEntryNotify
                                   57F4 
               calls direct
               CSTACK = 00000000 ( 00000004 )
    -------------------------------------------------------------------------
<CODE> 1 (was CODE)
  Relative segment, address: 57FA - 5837 (0x3e bytes), align: 1
  Segment part 336.           Intra module refs:   reflectTrack_AddNewEntry
           ENTRY                   ADDRESS         REF BY
           =====                   =======         ======
           reflectTrack_RemoveEntry
                                   57FA 
               calls direct
               CSTACK = 00000000 ( 00000006 )
    -------------------------------------------------------------------------
<CODE> 1 (was CODE)
  Relative segment, address: 5838 - 583D (0x6 bytes), align: 1
  Segment part 337.           Intra module refs:   nwkDB_DeleteRecAll
                                                   reflectTrack_RemoveEntry
    -------------------------------------------------------------------------
<CODE> 1 (was CODE)
  Relative segment, address: 583E - 5843 (0x6 bytes), align: 1
  Segment part 338.           Intra module refs:   reflectTrack_AddNewEntry
           ENTRY                   ADDRESS         REF BY
           =====                   =======         ======
           reflectTrack_NumEntries
                                   583E 
               CSTACK = 00000000 ( 00000004 )
    -------------------------------------------------------------------------
<CODE> 1 (was CODE)
  Relative segment, address: 5844 - 584F (0xc bytes), align: 1
  Segment part 339.           Intra module refs:   reflectTrack_NumEntries
    -------------------------------------------------------------------------
<CODE> 1 (was CODE)
  Relative segment, address: 5850 - 587D (0x2e bytes), align: 1
  Segment part 340.           Intra module refs:   APS_DataIndReflect
           ENTRY                   ADDRESS         REF BY
           =====                   =======         ======
           reflectTrack_AddNewEntry
                                   5850 
               calls direct
               CSTACK = 00000000 ( 00000006 )
    -------------------------------------------------------------------------
<CODE> 1 (was CODE)
  Relative segment, address: 587E - 58AB (0x2e bytes), align: 1
  Segment part 341.           Intra module refs:   APS_DataIndReflect
           ENTRY                   ADDRESS         REF BY
           =====                   =======         ======
           reflectTrack_GetNewEntry
                                   587E 
               calls direct
               CSTACK = 00000000 ( 0000000C )
    -------------------------------------------------------------------------
<CODE> 1 (was CODE)
  Relative segment, address: 58AC - 58D1 (0x26 bytes), align: 1
  Segment part 342.           Intra module refs:   APS_Reflect
           ENTRY                   ADDRESS         REF BY
           =====                   =======         ======
           reflectTracking_GetMaxIndirectAdjusted
                                   58AC 
               CSTACK = 00000000 ( 00000006 )
    -------------------------------------------------------------------------
<CODE> 1 (was CODE)
  Relative segment, address: 58D2 - 58D7 (0x6 bytes), align: 1
  Segment part 343.           Intra module refs:   reflectTracking_GetMaxIndirectAdjusted
                                                   reflectTracking_GetMaxSimultaneousAdjusted
    -------------------------------------------------------------------------
<CODE> 1 (was CODE)
  Relative segment, address: 58D8 - 58FD (0x26 bytes), align: 1
  Segment part 346.           Intra module refs:   APS_Reflect
           ENTRY                   ADDRESS         REF BY
           =====                   =======         ======
           reflectTracking_GetMaxSimultaneousAdjusted
                                   58D8 
               CSTACK = 00000000 ( 00000006 )
    -------------------------------------------------------------------------
<CODE> 1 (was CODE)
  Relative segment, address: 58FE - 5907 (0xa bytes), align: 1
  Segment part 347.           Intra module refs:   reflectTracking_GetMaxIndirectAdjusted
                                                   reflectTracking_GetMaxSimultaneousAdjusted
    -------------------------------------------------------------------------
<CODE> 1 (was CODE)
  Relative segment, address: 5908 - 5927 (0x20 bytes), align: 1
  Segment part 351.
           ENTRY                   ADDRESS         REF BY
           =====                   =======         ======
           nwk_ExtPANIDValid       5908            ZDAppDetermineDeviceType (ZDApp)
                                                   ZDApp_NwkDescListProcessing (ZDApp)
               calls direct
               CSTACK = 00000000 ( 0000000C )
    -------------------------------------------------------------------------
<CODE> 1 (was CODE)
  Relative segment, address: 5928 - 593D (0x16 bytes), align: 1
  Segment part 355.           Intra module refs:   NLME_NwkDiscTerm
           ENTRY                   ADDRESS         REF BY
           =====                   =======         ======
           nwkFreePanIdList        5928 
               calls direct
               CSTACK = 00000000 ( 00000004 )
    -------------------------------------------------------------------------
<CODE> 1 (was CODE)
  Relative segment, address: 593E - 595B (0x1e bytes), align: 1
  Segment part 356.           Intra module refs:   NLME_NwkDiscTerm
                                                   nwk_associate_cnf_processing
           ENTRY                   ADDRESS         REF BY
           =====                   =======         ======
           nwk_desc_list_free      593E 
               calls direct
               CSTACK = 00000000 ( 00000006 )
    -------------------------------------------------------------------------
<CODE> 1 (was CODE)
  Relative segment, address: 595C - 5975 (0x1a bytes), align: 1
  Segment part 357.           Intra module refs:   nwkProcessPanIdScan
                                                   nwkScanPanIDs
           ENTRY                   ADDRESS         REF BY
           =====                   =======         ======
           NLME_NwkDiscTerm        595C            ZDApp_ProcessNetworkJoin (ZDApp)
               calls direct
               CSTACK = 00000000 ( 00000004 )
    -------------------------------------------------------------------------
<CODE> 1 (was CODE)
  Relative segment, address: 5976 - 5991 (0x1c bytes), align: 1
  Segment part 361.           Intra module refs:   Segment part 375
                                                   nwkNeighborRemove
                                                   nwkNeighborRemoveStranded
           ENTRY                   ADDRESS         REF BY
           =====                   =======         ======
           nwkNeighborClearEntry   5976 
               calls direct
               CSTACK = 00000000 ( 00000006 )
    -------------------------------------------------------------------------
<CODE> 1 (was CODE)
  Relative segment, address: 5992 - 59C7 (0x36 bytes), align: 1
  Segment part 363.           Intra module refs:   NLME_CheckNewAddrSet
           ENTRY                   ADDRESS         REF BY
           =====                   =======         ======
           nwkNeighborRemoveStranded
                                   5992 
               calls direct
               CSTACK = 00000000 ( 0000000C )
    -------------------------------------------------------------------------
<CODE> 1 (was CODE)
  Relative segment, address: 59C8 - 59F7 (0x30 bytes), align: 1
  Segment part 364.           Intra module refs:   nwkChangePanID
           ENTRY                   ADDRESS         REF BY
           =====                   =======         ======
           nwkNeighborChangePANID
                                   59C8 
               calls direct
               CSTACK = 00000000 ( 0000000C )
    -------------------------------------------------------------------------
<CODE> 1 (was CODE)
  Relative segment, address: 59F8 - 5A37 (0x40 bytes), align: 1
  Segment part 365.           Intra module refs:   nwkNeighborAdd
           ENTRY                   ADDRESS         REF BY
           =====                   =======         ======
           nwkNeighborFindEmptySlot
                                   59F8 
               calls direct
               CSTACK = 00000000 ( 00000006 )
    -------------------------------------------------------------------------
<CODE> 1 (was CODE)
  Relative segment, address: 5A38 - 5A41 (0xa bytes), align: 1
  Segment part 366.           Intra module refs:   nwkNeighborFindEmptySlot
    -------------------------------------------------------------------------
<CODE> 1 (was CODE)
  Relative segment, address: 5A42 - 5A91 (0x50 bytes), align: 1
  Segment part 367.           Intra module refs:   RTG_UpdateNeighborEntry
           ENTRY                   ADDRESS         REF BY
           =====                   =======         ======
           nwkNeighborAdd          5A42 
               calls direct
               CSTACK = 00000000 ( 0000000C )
    -------------------------------------------------------------------------
<CODE> 1 (was CODE)
  Relative segment, address: 5A92 - 5AC3 (0x32 bytes), align: 1
  Segment part 368.           Intra module refs:   NLME_CheckNewAddrSet
           ENTRY                   ADDRESS         REF BY
           =====                   =======         ======
           nwkNeighborUpdateNwkAddr
                                   5A92 
               calls direct
               CSTACK = 00000000 ( 0000000C )
    -------------------------------------------------------------------------
<CODE> 1 (was CODE)
  Relative segment, address: 5AC4 - 5B09 (0x46 bytes), align: 1
  Segment part 372.           Intra module refs:   NLME_CheckNewAddrSet
           ENTRY                   ADDRESS         REF BY
           =====                   =======         ======
           nwkNeighborCheckAddr    5AC4 
               calls direct
               CSTACK = 00000000 ( 00000010 )
    -------------------------------------------------------------------------
<CODE> 1 (was CODE)
  Relative segment, address: 5B0A - 5B0F (0x6 bytes), align: 1
  Segment part 373.           Intra module refs:   nwkNeighborCheckAddr
    -------------------------------------------------------------------------
<CODE> 1 (was CODE)
  Relative segment, address: 5B10 - 5B31 (0x22 bytes), align: 1
  Segment part 374.           Intra module refs:   NLME_ReJoinReq
                                                   nwk_associate_cnf_processing
           ENTRY                   ADDRESS         REF BY
           =====                   =======         ======
           nwkNeighborKeepPANID    5B10 
               calls direct
               CSTACK = 00000000 ( 00000008 )
    -------------------------------------------------------------------------
<CODE> 1 (was CODE)
  Relative segment, address: 5B32 - 5B39 (0x8 bytes), align: 1
  Segment part 375.           Intra module refs:   nwkNeighborChangePANID
                                                   nwkNeighborInitTable
                                                   nwkNeighborKeepPANID
    -------------------------------------------------------------------------
<CODE> 1 (was CODE)
  Relative segment, address: 5B3A - 5B45 (0xc bytes), align: 1
  Segment part 376.           Intra module refs:   nwkNeighborChangePANID
                                                   nwkNeighborInitTable
                                                   nwkNeighborKeepPANID
    -------------------------------------------------------------------------
<CODE> 1 (was CODE)
  Relative segment, address: 5B46 - 5B61 (0x1c bytes), align: 1
  Segment part 378.
           ENTRY                   ADDRESS         REF BY
           =====                   =======         ======
           nwkNeighborRemove       5B46            ZDApp_LeaveUpdate (ZDApp)
               calls direct
               CSTACK = 00000000 ( 00000008 )
    -------------------------------------------------------------------------
<CODE> 1 (was CODE)
  Relative segment, address: 5B62 - 5B93 (0x32 bytes), align: 1
  Segment part 380.           Intra module refs:   nwk_init
           ENTRY                   ADDRESS         REF BY
           =====                   =======         ======
           nwkNeighborInitTable    5B62            ZDApp_ProcessNetworkJoin (ZDApp)
                                                   ZDO_SyncIndicationCB (ZDApp)
               calls direct
               CSTACK = 00000000 ( 00000006 )
    -------------------------------------------------------------------------
<CODE> 1 (was CODE)
  Relative segment, address: 5B94 - 5B9F (0xc bytes), align: 1
  Segment part 383.           Intra module refs:   RTG_AddRtgEntry
                                                   nwkNeighborAdd
    -------------------------------------------------------------------------
<CODE> 1 (was CODE)
  Relative segment, address: 5BA0 - 5BA7 (0x8 bytes), align: 1
  Segment part 390.           Intra module refs:   APSDE_DataReqMTU
                                                   NLDE_BuildMsg
                                                   NLDE_ParseMsg
                                                   NLDE_ParseMsg2
    -------------------------------------------------------------------------
<CODE> 1 (was CODE)
  Relative segment, address: 5BA8 - 5BF7 (0x50 bytes), align: 1
  Segment part 396.           Intra module refs:   nwk_event_loop
           ENTRY                   ADDRESS         REF BY
           =====                   =======         ======
           nwkChangePanID          5BA8 
               calls direct and indirect
               CSTACK = 00000000 ( 00000008 )
    -------------------------------------------------------------------------
<CODE> 1 (was CODE)
  Relative segment, address: 5BF8 - 5CB7 (0xc0 bytes), align: 1
  Segment part 397.           Intra module refs:   nwkProcessPanIdScan
           ENTRY                   ADDRESS         REF BY
           =====                   =======         ======
           NLME_SendNetworkReport
                                   5BF8 
               calls direct
               CSTACK = 00000000 ( 00000020 )
    -------------------------------------------------------------------------
<CODE> 1 (was CODE)
  Relative segment, address: 5CB8 - 5D17 (0x60 bytes), align: 1
  Segment part 398.           Intra module refs:   nwkProcessPanIdScan
           LOCAL                   ADDRESS         
           =====                   =======         
           NLME_NetworkReportCB    5CB8 
               calls direct and indirect
               CSTACK = 00000000 ( 00000010 )
    -------------------------------------------------------------------------
<CODE> 1 (was CODE)
  Relative segment, address: 5D18 - 5D7F (0x68 bytes), align: 1
  Segment part 399.           Intra module refs:   nwk_scan_cnf_processing
           ENTRY                   ADDRESS         REF BY
           =====                   =======         ======
           nwkProcessPanIdScan     5D18 
               calls direct
               CSTACK = 00000000 ( 0000000A )
    -------------------------------------------------------------------------
<CODE> 1 (was CODE)
  Relative segment, address: 5D80 - 5D85 (0x6 bytes), align: 1
  Segment part 400.           Intra module refs:   APSF_SendFragmented
                                                   NLDE_DataReqAlloc
                                                   nwkProcessPanIdScan
    -------------------------------------------------------------------------
<CODE> 1 (was CODE)
  Relative segment, address: 5D86 - 5D89 (0x4 bytes), align: 1
  Segment part 401.           Intra module refs:   APS_CmdInd
                                                   NLME_RejoinRspCmdProcess
                                                   Segment part 700
    -------------------------------------------------------------------------
<CODE> 1 (was CODE)
  Relative segment, address: 5D8A - 5D8F (0x6 bytes), align: 1
  Segment part 402.           Intra module refs:   Segment part 400
                                                   Segment part 401
    -------------------------------------------------------------------------
<CODE> 1 (was CODE)
  Relative segment, address: 5D90 - 5DC3 (0x34 bytes), align: 1
  Segment part 403.           Intra module refs:   nwkScanPanIDs
           ENTRY                   ADDRESS         REF BY
           =====                   =======         ======
           nwkAddPanId             5D90 
               calls direct
               CSTACK = 00000000 ( 00000006 )
    -------------------------------------------------------------------------
<CODE> 1 (was CODE)
  Relative segment, address: 5DC4 - 5DCB (0x8 bytes), align: 1
  Segment part 409.           Intra module refs:   NLME_CmdCnf
                                                   nwkApplyNwkSec
    -------------------------------------------------------------------------
<CODE> 1 (was CODE)
  Relative segment, address: 5DCC - 5DD1 (0x6 bytes), align: 1
  Segment part 414.           Intra module refs:   nwk_getNetworkDesc
    -------------------------------------------------------------------------
<CODE> 1 (was CODE)
  Relative segment, address: 5DD2 - 5DD7 (0x6 bytes), align: 1
  Segment part 415.           Intra module refs:   NLME_LeaveCmdProcess
    -------------------------------------------------------------------------
<CODE> 1 (was CODE)
  Relative segment, address: 5DD8 - 5DE1 (0xa bytes), align: 1
  Segment part 417.           Intra module refs:   AddrMgrEntryAdd
                                                   AddrMgrEntryAddRef
                                                   AddrMgrEntryRelease
                                                   AddrMgrEntrySet
           ENTRY                   ADDRESS         REF BY
           =====                   =======         ======
           AddrMgrEntryDataSave    5DD8 
               calls direct
               CSTACK = 00000000 ( 00000004 )
    -------------------------------------------------------------------------
<CODE> 1 (was CODE)
  Relative segment, address: 5DE2 - 5E0D (0x2c bytes), align: 1
  Segment part 418.           Intra module refs:   AddrMgrEntryUpdate
           ENTRY                   ADDRESS         REF BY
           =====                   =======         ======
           AddrMgrEntryAddRef      5DE2 
               calls direct
               CSTACK = 00000000 ( 00000008 )
    -------------------------------------------------------------------------
<CODE> 1 (was CODE)
  Relative segment, address: 5E0E - 5E59 (0x4c bytes), align: 1
  Segment part 419.           Intra module refs:   AddrMgrEntryUpdateEx
           ENTRY                   ADDRESS         REF BY
           =====                   =======         ======
           AddrMgrEntryAdd         5E0E 
               calls direct
               CSTACK = 00000000 ( 0000000C )
    -------------------------------------------------------------------------
<CODE> 1 (was CODE)
  Relative segment, address: 5E5A - 5E6D (0x14 bytes), align: 1
  Segment part 420.           Intra module refs:   AddrMgrEntryAdd
                                                   AddrMgrEntryLookupNwk
    -------------------------------------------------------------------------
<CODE> 1 (was CODE)
  Relative segment, address: 5E6E - 5EB3 (0x46 bytes), align: 1
  Segment part 421.           Intra module refs:   AddrMgrEntryUpdateEx
           ENTRY                   ADDRESS         REF BY
           =====                   =======         ======
           AddrMgrEntrySet         5E6E 
               calls direct
               CSTACK = 00000000 ( 00000006 )
    -------------------------------------------------------------------------
<CODE> 1 (was CODE)
  Relative segment, address: 5EB4 - 5EB5 (0x2 bytes), align: 1
  Segment part 422.           Intra module refs:   AddrMgrEntryGet
                                                   AddrMgrEntryLookupNwk
    -------------------------------------------------------------------------
<CODE> 1 (was CODE)
  Relative segment, address: 5EB6 - 5EBB (0x6 bytes), align: 1
  Segment part 423.           Intra module refs:   AddrMgrEntryAdd
                                                   AddrMgrEntryLookupNwk
                                                   AddrMgrEntrySet
                                                   AddrMgrEntryUpdate
                                                   Segment part 422
    -------------------------------------------------------------------------
<CODE> 1 (was CODE)
  Relative segment, address: 5EBC - 5F2B (0x70 bytes), align: 1
  Segment part 424.           Intra module refs:   AddrMgrEntryUpdate
           ENTRY                   ADDRESS         REF BY
           =====                   =======         ======
           AddrMgrEntryUpdateEx    5EBC 
               calls direct
               CSTACK = 00000000 ( 0000000C )
    -------------------------------------------------------------------------
<CODE> 1 (was CODE)
  Relative segment, address: 5F2C - 5F31 (0x6 bytes), align: 1
  Segment part 425.           Intra module refs:   APSME_LookupNwkAddr
                                                   AddrMgrEntryUpdateEx
    -------------------------------------------------------------------------
<CODE> 1 (was CODE)
  Relative segment, address: 5F32 - 5F8B (0x5a bytes), align: 1
  Segment part 426.           Intra module refs:   AddrMgrEntryUpdate
                                                   AddrMgrNwkAddrLookup
           ENTRY                   ADDRESS         REF BY
           =====                   =======         ======
           AddrMgrEntryLookupExt   5F32            ?Subroutine3 (BindingTable)
                                                   ZDSecMgrExtAddrLookup (ZDSecMgr)
               calls direct
               CSTACK = 00000000 ( 0000000C )
    -------------------------------------------------------------------------
<CODE> 1 (was CODE)
  Relative segment, address: 5F8C - 5FFF (0x74 bytes), align: 1
  Segment part 427.           Intra module refs:   AssocChangeNwkAddr
           ENTRY                   ADDRESS         REF BY
           =====                   =======         ======
           AddrMgrEntryUpdate      5F8C            ?Subroutine30 (ZDSecMgr)
                                                   ZDO_UpdateAddrManager (ZDObject)
                                                   bindAddrIndexGet (BindingTable)
                                                   bindAddrMgrLocalLoad (BindingTable)
               calls direct
               CSTACK = 00000000 ( 0000002C )
    -------------------------------------------------------------------------
<CODE> 1 (was CODE)
  Relative segment, address: 6000 - 6003 (0x4 bytes), align: 1
  Segment part 432.           Intra module refs:   NLME_LeaveCmdProcess
    -------------------------------------------------------------------------
<CODE> 1 (was CODE)
  Relative segment, address: 6004 - 600B (0x8 bytes), align: 1
  Segment part 433.           Intra module refs:   APSF_SendFragmented
                                                   NLDE_DataIndication
                                                   NLDE_DataReqSend
                                                   Segment part 432
                                                   nwk_data_req_send
    -------------------------------------------------------------------------
<CODE> 1 (was CODE)
  Relative segment, address: 600C - 6011 (0x6 bytes), align: 1
  Segment part 435.           Intra module refs:   AssocChangeNwkAddr
           ENTRY                   ADDRESS         REF BY
           =====                   =======         ======
           AssocGetWithExt         600C 
               calls direct
               CSTACK = 00000000 ( 00000004 )
    -------------------------------------------------------------------------
<CODE> 1 (was CODE)
  Relative segment, address: 6012 - 6055 (0x44 bytes), align: 1
  Segment part 436.           Intra module refs:   NLME_CheckNewAddrSet
           ENTRY                   ADDRESS         REF BY
           =====                   =======         ======
           AssocChangeNwkAddr      6012 
               calls direct
               CSTACK = 00000000 ( 0000001A )
    -------------------------------------------------------------------------
<CODE> 1 (was CODE)
  Relative segment, address: 6056 - 60F5 (0xa0 bytes), align: 1
  Segment part 437.           Intra module refs:   NLDE_CheckForAddrConflict
           ENTRY                   ADDRESS         REF BY
           =====                   =======         ======
           NLME_CheckNewAddrSet    6056 
               calls direct
               CSTACK = 00000000 ( 0000001A )
    -------------------------------------------------------------------------
<CODE> 1 (was CODE)
  Relative segment, address: 60F6 - 60F7 (0x2 bytes), align: 1
  Segment part 438.           Intra module refs:   AddrMgrEntryGet
                                                   AddrMgrEntryLookupNwk
    -------------------------------------------------------------------------
<CODE> 1 (was CODE)
  Relative segment, address: 60F8 - 6101 (0xa bytes), align: 1
  Segment part 439.           Intra module refs:   AddrMgrEntryLookupExt
                                                   AddrMgrEntryUpdateEx
                                                   NLME_CheckNewAddrSet
                                                   Segment part 438
    -------------------------------------------------------------------------
<CODE> 1 (was CODE)
  Relative segment, address: 6102 - 613B (0x3a bytes), align: 1
  Segment part 440.           Intra module refs:   nwk_data_ind_processing
           ENTRY                   ADDRESS         REF BY
           =====                   =======         ======
           NLDE_CheckForAddrConflict
                                   6102 
               calls direct
               CSTACK = 00000000 ( 00000006 )
    -------------------------------------------------------------------------
<CODE> 1 (was CODE)
  Relative segment, address: 613C - 6157 (0x1c bytes), align: 1
  Segment part 442.
           ENTRY                   ADDRESS         REF BY
           =====                   =======         ======
           AddrMgrEntryRelease     613C            ZDSecMgrAddrClear (ZDSecMgr)
               calls direct
               CSTACK = 00000000 ( 00000008 )
    -------------------------------------------------------------------------
<CODE> 1 (was CODE)
  Relative segment, address: 6158 - 615D (0x6 bytes), align: 1
  Segment part 443.           Intra module refs:   AddrMgrEntryAddRef
                                                   AddrMgrEntryRelease
                                                   NLDE_DataReq
    -------------------------------------------------------------------------
<CODE> 1 (was CODE)
  Relative segment, address: 615E - 6171 (0x14 bytes), align: 1
  Segment part 444.           Intra module refs:   AddrMgrEntryAddRef
                                                   AddrMgrEntryRelease
    -------------------------------------------------------------------------
<CODE> 1 (was CODE)
  Relative segment, address: 6172 - 6187 (0x16 bytes), align: 1
  Segment part 448.
           ENTRY                   ADDRESS         REF BY
           =====                   =======         ======
           NLME_SetBroadcastFilter
                                   6172            ZDApp_NodeProfileSync (ZDApp)
                                                   ZDOInitDevice (ZDApp)
               CSTACK = 00000000 ( 00000004 )
    -------------------------------------------------------------------------
<CODE> 1 (was CODE)
  Relative segment, address: 6188 - 619F (0x18 bytes), align: 1
  Segment part 451.           Intra module refs:   nwk_process_dstAddr
           ENTRY                   ADDRESS         REF BY
           =====                   =======         ======
           NLME_CmdBcast           6188 
               CSTACK = 00000000 ( 00000004 )
    -------------------------------------------------------------------------
<CODE> 1 (was CODE)
  Relative segment, address: 61A0 - 61FB (0x5c bytes), align: 1
  Segment part 453.           Intra module refs:   NLME_CmdCnf
           ENTRY                   ADDRESS         REF BY
           =====                   =======         ======
           NLME_LeaveCmdCnf        61A0 
               calls direct
               CSTACK = 00000000 ( 0000001A )
    -------------------------------------------------------------------------
<CODE> 1 (was CODE)
  Relative segment, address: 61FC - 6225 (0x2a bytes), align: 1
  Segment part 454.           Intra module refs:   NLDE_ParseMsg2
           ENTRY                   ADDRESS         REF BY
           =====                   =======         ======
           NLDE_CheckFrameSecurity
                                   61FC 
               CSTACK = 00000000 ( 00000004 )
    -------------------------------------------------------------------------
<CODE> 1 (was CODE)
  Relative segment, address: 6226 - 628B (0x66 bytes), align: 1
  Segment part 455.           Intra module refs:   NLME_CmdCnf
           ENTRY                   ADDRESS         REF BY
           =====                   =======         ======
           NLDE_ParseMsg2          6226 
               calls direct
               CSTACK = 00000000 ( 00000010 )
    -------------------------------------------------------------------------
<CODE> 1 (was CODE)
  Relative segment, address: 628C - 6295 (0xa bytes), align: 1
  Segment part 456.           Intra module refs:   NLDE_ParseMsg
                                                   NLDE_ParseMsg2
    -------------------------------------------------------------------------
<CODE> 1 (was CODE)
  Relative segment, address: 6296 - 62A3 (0xe bytes), align: 1
  Segment part 457.           Intra module refs:   Segment part 456
    -------------------------------------------------------------------------
<CODE> 1 (was CODE)
  Relative segment, address: 62A4 - 62B1 (0xe bytes), align: 1
  Segment part 458.           Intra module refs:   NLDE_ParseMsg
                                                   NLDE_ParseMsg2
    -------------------------------------------------------------------------
<CODE> 1 (was CODE)
  Relative segment, address: 62B2 - 62BF (0xe bytes), align: 1
  Segment part 459.           Intra module refs:   NLDE_ParseMsg
                                                   NLDE_ParseMsg2
    -------------------------------------------------------------------------
<CODE> 1 (was CODE)
  Relative segment, address: 62C0 - 6303 (0x44 bytes), align: 1
  Segment part 460.           Intra module refs:   NLDE_ParseMsg
                                                   NLDE_ParseMsg2
    -------------------------------------------------------------------------
<CODE> 1 (was CODE)
  Relative segment, address: 6304 - 6341 (0x3e bytes), align: 1
  Segment part 461.           Intra module refs:   nwk_data_cnf_processing
           ENTRY                   ADDRESS         REF BY
           =====                   =======         ======
           NLME_CmdCnf             6304 
               calls direct
               CSTACK = 00000000 ( 00000026 )
    -------------------------------------------------------------------------
<CODE> 1 (was CODE)
  Relative segment, address: 6342 - 63D7 (0x96 bytes), align: 1
  Segment part 463.           Intra module refs:   nwk_data_ind_processing
           ENTRY                   ADDRESS         REF BY
           =====                   =======         ======
           NLME_LeaveCmdProcess    6342 
               calls direct
               CSTACK = 00000000 ( 0000001A )
    -------------------------------------------------------------------------
<CODE> 1 (was CODE)
  Relative segment, address: 63D8 - 63DB (0x4 bytes), align: 1
  Segment part 464.           Intra module refs:   nwkScanPanIDs
    -------------------------------------------------------------------------
<CODE> 1 (was CODE)
  Relative segment, address: 63DC - 63E3 (0x8 bytes), align: 1
  Segment part 465.           Intra module refs:   AssocGetWithAddress
                                                   NLME_CheckNewAddrSet
                                                   NLME_LeaveCmdProcess
                                                   Segment part 464
                                                   nwkNeighborCheckAddr
                                                   nwkNeighborUpdateNwkAddr
                                                   nwk_getNetworkDesc
    -------------------------------------------------------------------------
<CODE> 1 (was CODE)
  Relative segment, address: 63E4 - 63E9 (0x6 bytes), align: 1
  Segment part 467.           Intra module refs:   nwk_data_cnf_processing
    -------------------------------------------------------------------------
<CODE> 1 (was CODE)
  Relative segment, address: 63EA - 63EF (0x6 bytes), align: 1
  Segment part 468.
           ENTRY                   ADDRESS         REF BY
           =====                   =======         ======
           NLME_SetResponseRate    63EA            ?Subroutine6 (ZDApp)
               CSTACK = 00000000 ( 00000004 )
    -------------------------------------------------------------------------
<CODE> 1 (was CODE)
  Relative segment, address: 63F0 - 644D (0x5e bytes), align: 1
  Segment part 469.           Intra module refs:   nwk_data_ind_processing
           ENTRY                   ADDRESS         REF BY
           =====                   =======         ======
           NLME_RejoinRspCmdProcess
                                   63F0 
               calls direct
               CSTACK = 00000000 ( 00000008 )
    -------------------------------------------------------------------------
<CODE> 1 (was CODE)
  Relative segment, address: 644E - 6455 (0x8 bytes), align: 1
  Segment part 470.           Intra module refs:   APSME_LookupNwkAddr
                                                   NLME_CheckNewAddrSet
                                                   NLME_LeaveCmdProcess
                                                   NLME_RejoinRspCmdProcess
    -------------------------------------------------------------------------
<CODE> 1 (was CODE)
  Relative segment, address: 6456 - 645B (0x6 bytes), align: 1
  Segment part 472.           Intra module refs:   NLME_LeaveCmdCnf
                                                   NLME_LeaveCmdProcess
    -------------------------------------------------------------------------
<CODE> 1 (was CODE)
  Relative segment, address: 645C - 6465 (0xa bytes), align: 1
  Segment part 473.           Intra module refs:   NLME_RejoinRspCmdProcess
                                                   nwk_ScanJoiningOrphan
    -------------------------------------------------------------------------
<CODE> 1 (was CODE)
  Relative segment, address: 6466 - 646D (0x8 bytes), align: 1
  Segment part 478.           Intra module refs:   NLME_NwkDiscReq2
    -------------------------------------------------------------------------
<CODE> 1 (was CODE)
  Relative segment, address: 646E - 6477 (0xa bytes), align: 1
  Segment part 481.           Intra module refs:   reflectTrack_GetNewEntry
    -------------------------------------------------------------------------
<CODE> 1 (was CODE)
  Relative segment, address: 6478 - 647F (0x8 bytes), align: 1
  Segment part 493.           Intra module refs:   nwk_associate_cnf_processing
    -------------------------------------------------------------------------
<CODE> 1 (was CODE)
  Relative segment, address: 6480 - 6493 (0x14 bytes), align: 1
  Segment part 494.           Intra module refs:   nwk_ScanJoiningOrphan
    -------------------------------------------------------------------------
<CODE> 1 (was CODE)
  Relative segment, address: 6494 - 649B (0x8 bytes), align: 1
  Segment part 495.           Intra module refs:   NLME_JoinRequest
                                                   Segment part 494
                                                   nwkChangePanID
    -------------------------------------------------------------------------
<CODE> 1 (was CODE)
  Relative segment, address: 649C - 64A1 (0x6 bytes), align: 1
  Segment part 510.
           ENTRY                   ADDRESS         REF BY
           =====                   =======         ======
           NLME_SetQueuedPollRate
                                   649C            ?Subroutine6 (ZDApp)
               CSTACK = 00000000 ( 00000004 )
    -------------------------------------------------------------------------
<CODE> 1 (was CODE)
  Relative segment, address: 64A2 - 64CB (0x2a bytes), align: 1
  Segment part 511.
           ENTRY                   ADDRESS         REF BY
           =====                   =======         ======
           NLME_SetPollRate        64A2            ?Subroutine6 (ZDApp)
               calls direct
               CSTACK = 00000000 ( 00000004 )
    -------------------------------------------------------------------------
<CODE> 1 (was CODE)
  Relative segment, address: 64CC - 654F (0x84 bytes), align: 1
  Segment part 513.           Intra module refs:   Segment part 556
                                                   nwk_beacon_notify_ind_processing
                                                   nwk_data_cnf_processing
                                                   nwk_data_ind_processing
           ENTRY                   ADDRESS         REF BY
           =====                   =======         ======
           RTG_UpdateNeighborEntry
                                   64CC 
               calls direct
               CSTACK = 00000000 ( 00000010 )
    -------------------------------------------------------------------------
<CODE> 1 (was CODE)
  Relative segment, address: 6550 - 6559 (0xa bytes), align: 1
  Segment part 514.
           ENTRY                   ADDRESS         REF BY
           =====                   =======         ======
           NLME_GetCoordExtAddr    6550            bindAddrMgrLocalLoad (BindingTable)
               calls direct
               CSTACK = 00000000 ( 00000004 )
    -------------------------------------------------------------------------
<CODE> 1 (was CODE)
  Relative segment, address: 655A - 6593 (0x3a bytes), align: 1
  Segment part 515.           Intra module refs:   nwk_event_loop
           ENTRY                   ADDRESS         REF BY
           =====                   =======         ======
           nwk_broadcastReceive    655A 
               calls direct
               CSTACK = 00000000 ( 00000008 )
    -------------------------------------------------------------------------
<CODE> 1 (was CODE)
  Relative segment, address: 6594 - 65D3 (0x40 bytes), align: 1
  Segment part 516.
           ENTRY                   ADDRESS         REF BY
           =====                   =======         ======
           nwk_broadcastSend       6594            MAC_CbackEvent (zmac_cb)
               calls direct
               CSTACK = 00000000 ( 00000004 )
    -------------------------------------------------------------------------
<CODE> 1 (was CODE)
  Relative segment, address: 65D4 - 65D9 (0x6 bytes), align: 1
  Segment part 517.           Intra module refs:   nwk_broadcastSend
    -------------------------------------------------------------------------
<CODE> 1 (was CODE)
  Relative segment, address: 65DA - 664F (0x76 bytes), align: 1
  Segment part 522.           Intra module refs:   nwk_SendNextDataBuf
           ENTRY                   ADDRESS         REF BY
           =====                   =======         ======
           nwk_data_req_send       65DA 
               calls direct
               CSTACK = 00000000 ( 00000008 )
    -------------------------------------------------------------------------
<CODE> 1 (was CODE)
  Relative segment, address: 6650 - 6651 (0x2 bytes), align: 1
  Segment part 523.           Intra module refs:   nwk_data_req_send
    -------------------------------------------------------------------------
<CODE> 1 (was CODE)
  Relative segment, address: 6652 - 6659 (0x8 bytes), align: 1
  Segment part 524.           Intra module refs:   Segment part 263
                                                   Segment part 523
                                                   nwk_event_loop
    -------------------------------------------------------------------------
<CODE> 1 (was CODE)
  Relative segment, address: 665A - 6671 (0x18 bytes), align: 1
  Segment part 526.           Intra module refs:   nwkPollConfirmProcessing
                                                   nwk_data_cnf_processing
                                                   nwk_event_loop
           ENTRY                   ADDRESS         REF BY
           =====                   =======         ======
           nwk_SendNextDataBuf     665A 
               calls direct
               CSTACK = 00000000 ( 00000004 )
    -------------------------------------------------------------------------
<CODE> 1 (was CODE)
  Relative segment, address: 6672 - 668F (0x1e bytes), align: 1
  Segment part 529.           Intra module refs:   Segment part 563
                                                   nwk_data_cnf_processing
                                                   nwk_data_ind_processing
           ENTRY                   ADDRESS         REF BY
           =====                   =======         ======
           nwk_set_poll_evt        6672 
               calls direct
               CSTACK = 00000000 ( 00000004 )
    -------------------------------------------------------------------------
<CODE> 1 (was CODE)
  Relative segment, address: 6690 - 66C7 (0x38 bytes), align: 1
  Segment part 531.           Intra module refs:   nwkMsgProcs
           ENTRY                   ADDRESS         REF BY
           =====                   =======         ======
           nwkPollConfirmProcessing
                                   6690 
               calls direct
               CSTACK = 00000000 ( 00000008 )
    -------------------------------------------------------------------------
<CODE> 1 (was CODE)
  Relative segment, address: 66C8 - 6705 (0x3e bytes), align: 1
  Segment part 532.           Intra module refs:   nwk_event_loop
           LOCAL                   ADDRESS         
           =====                   =======         
           nwk_sys_event_processing
                                   66C8 
               calls direct and indirect
               CSTACK = 00000000 ( 00000006 )
    -------------------------------------------------------------------------
<CODE> 1 (was CODE)
  Relative segment, address: 6706 - 670D (0x8 bytes), align: 1
  Segment part 533.           Intra module refs:   APS_EndDeviceBroadcastCheck
                                                   APS_InitEndDeviceBroadcastTable
                                                   nwk_sys_event_processing
    -------------------------------------------------------------------------
<CODE> 1 (was CODE)
  Relative segment, address: 670E - 677B (0x6e bytes), align: 1
  Segment part 534.           Intra module refs:   nwkScanPanIDs
           ENTRY                   ADDRESS         REF BY
           =====                   =======         ======
           NLME_NwkDiscReq2        670E 
               calls direct
               CSTACK = 00000000 ( 0000001C )
    -------------------------------------------------------------------------
<CODE> 1 (was CODE)
  Relative segment, address: 677C - 67D1 (0x56 bytes), align: 1
  Segment part 535.           Intra module refs:   nwk_beacon_notify_ind_processing
           ENTRY                   ADDRESS         REF BY
           =====                   =======         ======
           nwkScanPanIDs           677C 
               calls direct
               CSTACK = 00000000 ( 0000000E )
    -------------------------------------------------------------------------
<CODE> 1 (was CODE)
  Relative segment, address: 67D2 - 67D7 (0x6 bytes), align: 1
  Segment part 536.           Intra module refs:   APSDE_FrameAlloc
                                                   nwkScanPanIDs
    -------------------------------------------------------------------------
<CODE> 1 (was CODE)
  Relative segment, address: 67D8 - 67DD (0x6 bytes), align: 1
  Segment part 538.
           ENTRY                   ADDRESS         REF BY
           =====                   =======         ======
           nwk_getNwkDescList      67D8            ZDApp_NwkDescListProcessing (ZDApp)
               CSTACK = 00000000 ( 00000004 )
    -------------------------------------------------------------------------
<CODE> 1 (was CODE)
  Relative segment, address: 67DE - 683F (0x62 bytes), align: 1
  Segment part 539.           Intra module refs:   NLME_ReJoinReq
           ENTRY                   ADDRESS         REF BY
           =====                   =======         ======
           nwk_getNetworkDesc      67DE 
               calls direct
               CSTACK = 00000000 ( 00000018 )
    -------------------------------------------------------------------------
<CODE> 1 (was CODE)
  Relative segment, address: 6840 - 6931 (0xf2 bytes), align: 1
  Segment part 548.           Intra module refs:   nwkMsgProcs
           ENTRY                   ADDRESS         REF BY
           =====                   =======         ======
           nwk_beacon_notify_ind_processing
                                   6840 
               calls direct
               CSTACK = 00000000 ( 00000038 )
    -------------------------------------------------------------------------
<CODE> 1 (was CODE)
  Relative segment, address: 6932 - 69D5 (0xa4 bytes), align: 1
  Segment part 554.           Intra module refs:   NLME_DeviceJoiningInit
           ENTRY                   ADDRESS         REF BY
           =====                   =======         ======
           nwk_ScanJoiningOrphan   6932            ZDO_StartDevice (ZDObject)
               calls direct
               CSTACK = 00000000 ( 00000010 )
    -------------------------------------------------------------------------
<CODE> 1 (was CODE)
  Relative segment, address: 69D6 - 69DD (0x8 bytes), align: 1
  Segment part 555.           Intra module refs:   nwk_ScanJoiningOrphan
    -------------------------------------------------------------------------
<CODE> 1 (was CODE)
  Relative segment, address: 69DE - 69E9 (0xc bytes), align: 1
  Segment part 556.           Intra module refs:   nwkPollConfirmProcessing
                                                   nwk_ScanJoiningOrphan
    -------------------------------------------------------------------------
<CODE> 1 (was CODE)
  Relative segment, address: 69EA - 69F1 (0x8 bytes), align: 1
  Segment part 557.           Intra module refs:   NLME_GetCoordShortAddr
                                                   NwkPollReq
                                                   nwk_ScanJoiningOrphan
    -------------------------------------------------------------------------
<CODE> 1 (was CODE)
  Relative segment, address: 69F2 - 69F9 (0x8 bytes), align: 1
  Segment part 558.           Intra module refs:   NLDE_SendMsg
                                                   NwkPollReq
                                                   nwk_ScanJoiningOrphan
    -------------------------------------------------------------------------
<CODE> 1 (was CODE)
  Relative segment, address: 69FA - 6A71 (0x78 bytes), align: 1
  Segment part 560.           Intra module refs:   nwkMsgProcs
           ENTRY                   ADDRESS         REF BY
           =====                   =======         ======
           nwk_scan_cnf_processing
                                   69FA 
               calls direct and indirect
               CSTACK = 00000000 ( 00000004 )
    -------------------------------------------------------------------------
<CODE> 1 (was CODE)
  Relative segment, address: 6A72 - 6B2D (0xbc bytes), align: 1
  Segment part 562.           Intra module refs:   nwkMsgProcs
           ENTRY                   ADDRESS         REF BY
           =====                   =======         ======
           nwk_associate_cnf_processing
                                   6A72 
               calls direct
               CSTACK = 00000000 ( 00000010 )
    -------------------------------------------------------------------------
<CODE> 1 (was CODE)
  Relative segment, address: 6B2E - 6B35 (0x8 bytes), align: 1
  Segment part 563.           Intra module refs:   nwkPollConfirmProcessing
                                                   nwk_associate_cnf_processing
                                                   nwk_event_loop
    -------------------------------------------------------------------------
<CODE> 1 (was CODE)
  Relative segment, address: 6B36 - 6B43 (0xe bytes), align: 1
  Segment part 564.           Intra module refs:   nwk_associate_cnf_processing
    -------------------------------------------------------------------------
<CODE> 1 (was CODE)
  Relative segment, address: 6B44 - 6B4B (0x8 bytes), align: 1
  Segment part 565.           Intra module refs:   nwk_associate_cnf_processing
    -------------------------------------------------------------------------
<CODE> 1 (was CODE)
  Relative segment, address: 6B4C - 6B53 (0x8 bytes), align: 1
  Segment part 568.           Intra module refs:   AddrMgrNwkAddrLookup
                                                   AssocChangeNwkAddr
    -------------------------------------------------------------------------
<CODE> 1 (was CODE)
  Relative segment, address: 6B54 - 6BAD (0x5a bytes), align: 1
  Segment part 573.           Intra module refs:   nwk_data_ind_processing
           LOCAL                   ADDRESS         
           =====                   =======         
           nwk_indSendError        6B54 
               calls direct
               CSTACK = 00000000 ( 0000000A )
    -------------------------------------------------------------------------
<CODE> 1 (was CODE)
  Relative segment, address: 6BAE - 6BB1 (0x4 bytes), align: 1
  Segment part 574.           Intra module refs:   RTG_SendRErr
    -------------------------------------------------------------------------
<CODE> 1 (was CODE)
  Relative segment, address: 6BB2 - 6BB9 (0x8 bytes), align: 1
  Segment part 575.           Intra module refs:   RTG_AddRtgEntry
                                                   Segment part 574
                                                   nwk_indSendError
    -------------------------------------------------------------------------
<CODE> 1 (was CODE)
  Relative segment, address: 6BBA - 6BDD (0x24 bytes), align: 1
  Segment part 578.           Intra module refs:   nwk_data_ind_processing
           ENTRY                   ADDRESS         REF BY
           =====                   =======         ======
           nwkCheckValidCommandID
                                   6BBA 
               CSTACK = 00000000 ( 00000004 )
    -------------------------------------------------------------------------
<CODE> 1 (was CODE)
  Relative segment, address: 6BDE - 6C85 (0xa8 bytes), align: 1
  Segment part 579.           Intra module refs:   nwk_data_ind_processing
           ENTRY                   ADDRESS         REF BY
           =====                   =======         ======
           nwk_process_dstAddr     6BDE 
               calls direct
               CSTACK = 00000000 ( 00000008 )
    -------------------------------------------------------------------------
<CODE> 1 (was CODE)
  Relative segment, address: 6C86 - 6C8B (0x6 bytes), align: 1
  Segment part 580.           Intra module refs:   nwk_data_req_send
                                                   nwk_process_dstAddr
    -------------------------------------------------------------------------
<CODE> 1 (was CODE)
  Relative segment, address: 6C8C - 6CC9 (0x3e bytes), align: 1
  Segment part 581.           Intra module refs:   nwk_data_ind_processing
           ENTRY                   ADDRESS         REF BY
           =====                   =======         ======
           nwkFrameHdrValid        6C8C 
               CSTACK = 00000000 ( 00000004 )
    -------------------------------------------------------------------------
<CODE> 1 (was CODE)
  Relative segment, address: 6CCA - 6ED1 (0x208 bytes), align: 1
  Segment part 582.           Intra module refs:   nwkMsgProcs
                                                   nwk_event_loop
           ENTRY                   ADDRESS         REF BY
           =====                   =======         ======
           nwk_data_ind_processing
                                   6CCA 
               calls direct
               CSTACK = 00000000 ( 00000036 )
    -------------------------------------------------------------------------
<CODE> 1 (was CODE)
  Relative segment, address: 6ED2 - 6EF1 (0x20 bytes), align: 1
  Segment part 583.           Intra module refs:   NLDE_DataCnf
           ENTRY                   ADDRESS         REF BY
           =====                   =======         ======
           APSDE_DataConfirm       6ED2 
               calls direct
               CSTACK = 00000000 ( 00000004 )
    -------------------------------------------------------------------------
<CODE> 1 (was CODE)
  Relative segment, address: 6EF2 - 6F6D (0x7c bytes), align: 1
  Segment part 584.           Intra module refs:   nwk_data_cnf_processing
           ENTRY                   ADDRESS         REF BY
           =====                   =======         ======
           NLDE_DataCnf            6EF2 
               calls direct and indirect
               CSTACK = 00000000 ( 00000008 )
    -------------------------------------------------------------------------
<CODE> 1 (was CODE)
  Relative segment, address: 6F6E - 700D (0xa0 bytes), align: 1
  Segment part 585.           Intra module refs:   nwkMsgProcs
           ENTRY                   ADDRESS         REF BY
           =====                   =======         ======
           nwk_data_cnf_processing
                                   6F6E 
               calls direct
               CSTACK = 00000000 ( 0000000E )
    -------------------------------------------------------------------------
<CODE> 1 (was CODE)
  Relative segment, address: 700E - 7049 (0x3c bytes), align: 1
  Segment part 586.           Intra module refs:   nwk_data_req_send
           LOCAL                   ADDRESS         
           =====                   =======         
           nwkApplyNwkSec          700E 
               calls direct
               CSTACK = 00000000 ( 00000026 )
    -------------------------------------------------------------------------
<CODE> 1 (was CODE)
  Relative segment, address: 704A - 7075 (0x2c bytes), align: 1
  Segment part 587.           Intra module refs:   nwk_event_loop
           ENTRY                   ADDRESS         REF BY
           =====                   =======         ======
           NwkPollReq              704A 
               calls direct
               CSTACK = 00000000 ( 0000001E )
    -------------------------------------------------------------------------
<CODE> 1 (was CODE)
  Relative segment, address: 7076 - 707D (0x8 bytes), align: 1
  Segment part 589.           Intra module refs:   NLME_ReJoinReq
                                                   Segment part 653
    -------------------------------------------------------------------------
<CODE> 1 (was CODE)
  Relative segment, address: 707E - 7179 (0xfc bytes), align: 1
  Segment part 591.
           ENTRY                   ADDRESS         REF BY
           =====                   =======         ======
           nwk_event_loop          707E            tasksArr (OSAL_SampleSw)
               calls direct
               CSTACK = 00000000 ( 00000010 )
    -------------------------------------------------------------------------
<CODE> 1 (was CODE)
  Relative segment, address: 717A - 7181 (0x8 bytes), align: 1
  Segment part 592.           Intra module refs:   nwk_associate_cnf_processing
                                                   nwk_event_loop
    -------------------------------------------------------------------------
<CODE> 1 (was CODE)
  Relative segment, address: 7182 - 7189 (0x8 bytes), align: 1
  Segment part 593.           Intra module refs:   NLME_JoinRequest
                                                   nwk_ScanJoiningOrphan
                                                   nwk_event_loop
                                                   nwk_set_poll_evt
    -------------------------------------------------------------------------
<CODE> 1 (was CODE)
  Relative segment, address: 718A - 7191 (0x8 bytes), align: 1
  Segment part 594.           Intra module refs:   RTG_UpdateNeighborEntry
                                                   Segment part 652
                                                   nwk_event_loop
    -------------------------------------------------------------------------
<CODE> 1 (was CODE)
  Relative segment, address: 7192 - 719F (0xe bytes), align: 1
  Segment part 595.           Intra module refs:   nwk_SendNextDataBuf
                                                   nwk_event_loop
    -------------------------------------------------------------------------
<CODE> 1 (was CODE)
  Relative segment, address: 71A0 - 71C9 (0x2a bytes), align: 1
  Segment part 596.
           ENTRY                   ADDRESS         REF BY
           =====                   =======         ======
           nwk_init                71A0            osalInitTasks (OSAL_SampleSw)
               calls direct
               CSTACK = 00000000 ( 00000004 )
    -------------------------------------------------------------------------
<CODE> 1 (was CODE)
  Relative segment, address: 71CA - 7211 (0x48 bytes), align: 1
  Segment part 597.           Intra module refs:   apsProcessAck
           ENTRY                   ADDRESS         REF BY
           =====                   =======         ======
           apsAckFindMatchCB       71CA 
               CSTACK = 00000000 ( 00000004 )
    -------------------------------------------------------------------------
<CODE> 1 (was CODE)
  Relative segment, address: 7212 - 724B (0x3a bytes), align: 1
  Segment part 602.
           ENTRY                   ADDRESS         REF BY
           =====                   =======         ======
           aps_FindGroupForEndpoint
                                   7212            ?Subroutine1 (AF)
               CSTACK = 00000000 ( 00000006 )
    -------------------------------------------------------------------------
<CODE> 1 (was CODE)
  Relative segment, address: 724C - 727B (0x30 bytes), align: 1
  Segment part 603.           Intra module refs:   APSF_AllocRxObj
                                                   APSF_Schedule
                                                   Segment part 626
           ENTRY                   ADDRESS         REF BY
           =====                   =======         ======
           APSF_FreeObj            724C 
               calls direct
               CSTACK = 00000000 ( 00000006 )
    -------------------------------------------------------------------------
<CODE> 1 (was CODE)
  Relative segment, address: 727C - 72A7 (0x2c bytes), align: 1
  Segment part 604.           Intra module refs:   APSME_LookupNwkAddr
           ENTRY                   ADDRESS         REF BY
           =====                   =======         ======
           AddrMgrNwkAddrLookup    727C 
               calls direct
               CSTACK = 00000000 ( 00000014 )
    -------------------------------------------------------------------------
<CODE> 1 (was CODE)
  Relative segment, address: 72A8 - 72AF (0x8 bytes), align: 1
  Segment part 605.           Intra module refs:   AddrMgrExtAddrLookup
                                                   AddrMgrNwkAddrLookup
    -------------------------------------------------------------------------
<CODE> 1 (was CODE)
  Relative segment, address: 72B0 - 72D9 (0x2a bytes), align: 1
  Segment part 606.           Intra module refs:   APSDE_DataReq
                                                   APSF_SendFragmented
           ENTRY                   ADDRESS         REF BY
           =====                   =======         ======
           APSME_LookupNwkAddr     72B0            ZDO_ProcessBindUnbindReq (ZDObject)
               calls direct
               CSTACK = 00000000 ( 0000000C )
    -------------------------------------------------------------------------
<CODE> 1 (was CODE)
  Relative segment, address: 72DA - 72E1 (0x8 bytes), align: 1
  Segment part 607.           Intra module refs:   APSME_LookupNwkAddr
                                                   AddrMgrEntryLookupExt
                                                   NLME_RejoinRspCmdProcess
                                                   nwk_ExtPANIDValid
    -------------------------------------------------------------------------
<CODE> 1 (was CODE)
  Relative segment, address: 72E2 - 74A3 (0x1c2 bytes), align: 1
  Segment part 608.           Intra module refs:   APSF_TxNextFrame
           ENTRY                   ADDRESS         REF BY
           =====                   =======         ======
           APSDE_DataReq           72E2            AF_DataRequest (AF)
               calls direct and indirect
               CSTACK = 00000000 ( 0000001E )
    -------------------------------------------------------------------------
<CODE> 1 (was CODE)
  Relative segment, address: 74A4 - 74A7 (0x4 bytes), align: 1
  Segment part 609.           Intra module refs:   APSDE_DataReq
    -------------------------------------------------------------------------
<CODE> 1 (was CODE)
  Relative segment, address: 74A8 - 74AF (0x8 bytes), align: 1
  Segment part 610.           Intra module refs:   APS_Reflect
                                                   Segment part 609
    -------------------------------------------------------------------------
<CODE> 1 (was CODE)
  Relative segment, address: 74B0 - 75B7 (0x108 bytes), align: 1
  Segment part 611.           Intra module refs:   APSF_Schedule
           ENTRY                   ADDRESS         REF BY
           =====                   =======         ======
           APSF_TxNextFrame        74B0 
               calls direct and indirect
               CSTACK = 00000000 ( 0000000A )
    -------------------------------------------------------------------------
<CODE> 1 (was CODE)
  Relative segment, address: 75B8 - 75C1 (0xa bytes), align: 1
  Segment part 612.           Intra module refs:   APSF_TxNextFrame
    -------------------------------------------------------------------------
<CODE> 1 (was CODE)
  Relative segment, address: 75C2 - 75CF (0xe bytes), align: 1
  Segment part 613.           Intra module refs:   APSF_TxNextFrame
    -------------------------------------------------------------------------
<CODE> 1 (was CODE)
  Relative segment, address: 75D0 - 7633 (0x64 bytes), align: 1
  Segment part 614.           Intra module refs:   APSF_ProcessEvent
           ENTRY                   ADDRESS         REF BY
           =====                   =======         ======
           APSF_Schedule           75D0 
               calls direct
               CSTACK = 00000000 ( 00000006 )
    -------------------------------------------------------------------------
<CODE> 1 (was CODE)
  Relative segment, address: 7634 - 7669 (0x36 bytes), align: 1
  Segment part 615.           Intra module refs:   APSF_AllocRxObj
                                                   APSF_SendFragmented
           ENTRY                   ADDRESS         REF BY
           =====                   =======         ======
           APSF_AddObj             7634 
               calls direct
               CSTACK = 00000000 ( 00000008 )
    -------------------------------------------------------------------------
<CODE> 1 (was CODE)
  Relative segment, address: 766A - 7785 (0x11c bytes), align: 1
  Segment part 616.           Intra module refs:   APSF_IncomingData
           ENTRY                   ADDRESS         REF BY
           =====                   =======         ======
           APSF_AllocRxObj         766A 
               calls direct
               CSTACK = 00000000 ( 00000014 )
    -------------------------------------------------------------------------
<CODE> 1 (was CODE)
  Relative segment, address: 7786 - 77AD (0x28 bytes), align: 1
  Segment part 617.           Intra module refs:   APSF_IncomingData
                                                   APSF_ProcessAck
           ENTRY                   ADDRESS         REF BY
           =====                   =======         ======
           APSF_FindObj            7786 
               CSTACK = 00000000 ( 00000004 )
    -------------------------------------------------------------------------
<CODE> 1 (was CODE)
  Relative segment, address: 77AE - 7937 (0x18a bytes), align: 1
  Segment part 618.           Intra module refs:   APSF_ProcessEvent
           ENTRY                   ADDRESS         REF BY
           =====                   =======         ======
           APSF_IncomingData       77AE 
               calls direct and indirect
               CSTACK = 00000000 ( 00000018 )
    -------------------------------------------------------------------------
<CODE> 1 (was CODE)
  Relative segment, address: 7938 - 7941 (0xa bytes), align: 1
  Segment part 619.           Intra module refs:   APSF_AllocRxObj
                                                   APSF_IncomingData
                                                   APSF_SendFragmented
    -------------------------------------------------------------------------
<CODE> 1 (was CODE)
  Relative segment, address: 7942 - 7953 (0x12 bytes), align: 1
  Segment part 620.           Intra module refs:   APSF_IncomingData
                                                   APSF_TxNextFrame
    -------------------------------------------------------------------------
<CODE> 1 (was CODE)
  Relative segment, address: 7954 - 795D (0xa bytes), align: 1
  Segment part 621.           Intra module refs:   APSF_IncomingData
    -------------------------------------------------------------------------
<CODE> 1 (was CODE)
  Relative segment, address: 795E - 7969 (0xc bytes), align: 1
  Segment part 622.           Intra module refs:   APSF_ProcessAck
                                                   APSF_TxNextFrame
                                                   Segment part 621
    -------------------------------------------------------------------------
<CODE> 1 (was CODE)
  Relative segment, address: 796A - 79C5 (0x5c bytes), align: 1
  Segment part 623.
           ENTRY                   ADDRESS         REF BY
           =====                   =======         ======
           APSF_ProcessEvent       796A            tasksArr (OSAL_SampleSw)
               calls direct
               CSTACK = 00000000 ( 0000000C )
    -------------------------------------------------------------------------
<CODE> 1 (was CODE)
  Relative segment, address: 79C6 - 79CF (0xa bytes), align: 1
  Segment part 624.           Intra module refs:   APSF_Init
           ENTRY                   ADDRESS         REF BY
           =====                   =======         ======
           APSF_SendOsalMsg        79C6 
               calls direct
               CSTACK = 00000000 ( 00000004 )
    -------------------------------------------------------------------------
<CODE> 1 (was CODE)
  Relative segment, address: 79D0 - 7A53 (0x84 bytes), align: 1
  Segment part 625.           Intra module refs:   APSF_Init
           ENTRY                   ADDRESS         REF BY
           =====                   =======         ======
           APSF_ProcessAck         79D0 
               calls direct
               CSTACK = 00000000 ( 0000000C )
    -------------------------------------------------------------------------
<CODE> 1 (was CODE)
  Relative segment, address: 7A54 - 7A61 (0xe bytes), align: 1
  Segment part 626.           Intra module refs:   APSF_ProcessAck
                                                   APSF_TxNextFrame
    -------------------------------------------------------------------------
<CODE> 1 (was CODE)
  Relative segment, address: 7A62 - 7A6B (0xa bytes), align: 1
  Segment part 627.           Intra module refs:   APSF_IncomingData
                                                   APSF_ProcessAck
                                                   APSF_Schedule
                                                   APSF_SendFragmented
    -------------------------------------------------------------------------
<CODE> 1 (was CODE)
  Relative segment, address: 7A6C - 7B81 (0x116 bytes), align: 1
  Segment part 628.           Intra module refs:   APSF_Init
           ENTRY                   ADDRESS         REF BY
           =====                   =======         ======
           APSF_SendFragmented     7A6C 
               calls direct
               CSTACK = 00000000 ( 00000012 )
    -------------------------------------------------------------------------
<CODE> 1 (was CODE)
  Relative segment, address: 7B82 - 7B89 (0x8 bytes), align: 1
  Segment part 629.           Intra module refs:   APSF_SendFragmented
                                                   APS_ReflectMonitor
                                                   NLDE_DataReqSend
                                                   NLME_ReJoinReq
    -------------------------------------------------------------------------
<CODE> 1 (was CODE)
  Relative segment, address: 7B8A - 7BB3 (0x2a bytes), align: 1
  Segment part 630.
           ENTRY                   ADDRESS         REF BY
           =====                   =======         ======
           APSF_Init               7B8A            osalInitTasks (OSAL_SampleSw)
               CSTACK = 00000000 ( 00000004 )
    -------------------------------------------------------------------------
<CODE> 1 (was CODE)
  Relative segment, address: 7BB4 - 7BB9 (0x6 bytes), align: 1
  Segment part 640.           Intra module refs:   APSDE_DataReqMTU
    -------------------------------------------------------------------------
<CODE> 1 (was CODE)
  Relative segment, address: 7BBA - 7BBD (0x4 bytes), align: 1
  Segment part 643.           Intra module refs:   nwkNeighborCheckAddr
                                                   nwkNeighborRemoveStranded
    -------------------------------------------------------------------------
<CODE> 1 (was CODE)
  Relative segment, address: 7BBE - 7BC5 (0x8 bytes), align: 1
  Segment part 644.           Intra module refs:   AddrMgrEntrySet
                                                   NLME_RouteDiscoveryRequest
                                                   Segment part 643
    -------------------------------------------------------------------------
<CODE> 1 (was CODE)
  Relative segment, address: 7BC6 - 7C89 (0xc4 bytes), align: 1
  Segment part 647.
           ENTRY                   ADDRESS         REF BY
           =====                   =======         ======
           NLME_JoinRequest        7BC6            ZDApp_JoinReq (ZDApp)
                                                   ZDApp_ProcessOSALMsg (ZDApp)
               calls direct
               CSTACK = 00000000 ( 0000002C )
    -------------------------------------------------------------------------
<CODE> 1 (was CODE)
  Relative segment, address: 7C8A - 7C91 (0x8 bytes), align: 1
  Segment part 648.           Intra module refs:   NLME_JoinRequest
                                                   NLME_ReJoinReq
    -------------------------------------------------------------------------
<CODE> 1 (was CODE)
  Relative segment, address: 7C92 - 7C9D (0xc bytes), align: 1
  Segment part 649.           Intra module refs:   NLME_JoinRequest
    -------------------------------------------------------------------------
<CODE> 1 (was CODE)
  Relative segment, address: 7C9E - 7CA9 (0xc bytes), align: 1
  Segment part 650.           Intra module refs:   NLME_JoinRequest
    -------------------------------------------------------------------------
<CODE> 1 (was CODE)
  Relative segment, address: 7CAA - 7DA1 (0xf8 bytes), align: 1
  Segment part 651.           Intra module refs:   NLME_ReJoinRequest
           LOCAL                   ADDRESS         
           =====                   =======         
           NLME_ReJoinReq          7CAA 
               calls direct
               CSTACK = 00000000 ( 00000012 )
    -------------------------------------------------------------------------
<CODE> 1 (was CODE)
  Relative segment, address: 7DA2 - 7DA9 (0x8 bytes), align: 1
  Segment part 652.           Intra module refs:   NLME_ReJoinReq
                                                   NLME_RejoinRspCmdProcess
    -------------------------------------------------------------------------
<CODE> 1 (was CODE)
  Relative segment, address: 7DAA - 7DAF (0x6 bytes), align: 1
  Segment part 653.           Intra module refs:   NLME_ReJoinReq
                                                   nwk_set_poll_evt
    -------------------------------------------------------------------------
<CODE> 1 (was CODE)
  Relative segment, address: 7DB0 - 7DB5 (0x6 bytes), align: 1
  Segment part 655.
           ENTRY                   ADDRESS         REF BY
           =====                   =======         ======
           NLME_ReJoinRequest      7DB0            ZDApp_ProcessOSALMsg (ZDApp)
               calls direct
               CSTACK = 00000000 ( 00000004 )
    -------------------------------------------------------------------------
<CODE> 1 (was CODE)
  Relative segment, address: 7DB6 - 7DD1 (0x1c bytes), align: 1
  Segment part 656.
           ENTRY                   ADDRESS         REF BY
           =====                   =======         ======
           NLME_OrphanJoinRequest
                                   7DB6            ZDO_StartDevice (ZDObject)
               calls direct
               CSTACK = 00000000 ( 0000001A )
    -------------------------------------------------------------------------
<CODE> 1 (was CODE)
  Relative segment, address: 7DD2 - 7DD7 (0x6 bytes), align: 1
  Segment part 657.           Intra module refs:   NLME_NetworkDiscoveryRequest
                                                   NLME_OrphanJoinRequest
    -------------------------------------------------------------------------
<CODE> 1 (was CODE)
  Relative segment, address: 7DD8 - 7DDF (0x8 bytes), align: 1
  Segment part 662.           Intra module refs:   APS_ReReflect
    -------------------------------------------------------------------------
<CODE> 1 (was CODE)
  Relative segment, address: 7DE0 - 7DED (0xe bytes), align: 1
  Segment part 663.           Intra module refs:   nwkScanPanIDs
    -------------------------------------------------------------------------
<CODE> 1 (was CODE)
  Relative segment, address: 7DEE - 7DF7 (0xa bytes), align: 1
  Segment part 664.           Intra module refs:   NLME_ReJoinReq
    -------------------------------------------------------------------------
<CODE> 1 (was CODE)
  Relative segment, address: 7DF8 - 7E31 (0x3a bytes), align: 1
  Segment part 665.
           ENTRY                   ADDRESS         REF BY
           =====                   =======         ======
           NLME_NetworkDiscoveryRequest
                                   7DF8            ZDApp_NetworkDiscoveryReq (ZDApp)
                                                   ZDO_StartDevice (ZDObject)
               calls direct
               CSTACK = 00000000 ( 0000001A )
    -------------------------------------------------------------------------
<CODE> 1 (was CODE)
  Relative segment, address: 7E32 - 7E3F (0xe bytes), align: 1
  Segment part 666.           Intra module refs:   NLME_NetworkDiscoveryRequest
                                                   NLME_OrphanJoinRequest
    -------------------------------------------------------------------------
<CODE> 1 (was CODE)
  Relative segment, address: 7E40 - 7E4D (0xe bytes), align: 1
  Segment part 667.
           ENTRY                   ADDRESS         REF BY
           =====                   =======         ======
           NLME_DeviceJoiningInit
                                   7E40            ZDO_Init (ZDObject)
               CSTACK = 00000000 ( 00000004 )
    -------------------------------------------------------------------------
<CODE> 1 (was CODE)
  Relative segment, address: 7E4E - 7E7B (0x2e bytes), align: 1
  Segment part 686.
           ENTRY                   ADDRESS         REF BY
           =====                   =======         ======
           AddrMgrInit             7E4E            nwk_globals_init (nwk_globals)
               calls direct
               CSTACK = 00000000 ( 00000006 )
    -------------------------------------------------------------------------
<CODE> 1 (was CODE)
  Relative segment, address: 7E7C - 7E7F (0x4 bytes), align: 1
  Segment part 687.           Intra module refs:   nwkNeighborAdd
                                                   nwkNeighborClearEntry
    -------------------------------------------------------------------------
<CODE> 1 (was CODE)
  Relative segment, address: 7E80 - 7E85 (0x6 bytes), align: 1
  Segment part 688.           Intra module refs:   APSF_AllocRxObj
                                                   APSF_SendFragmented
                                                   AddrMgrInit
                                                   NLDE_DataReqAlloc
                                                   Segment part 687
                                                   reflectTrack_GetNewEntry
    -------------------------------------------------------------------------
<CODE> 1 (was CODE)
  Relative segment, address: 7E86 - 7E8F (0xa bytes), align: 1
  Segment part 700.           Intra module refs:   nwk_ScanJoiningOrphan
    -------------------------------------------------------------------------
<CODE> 1 (was CODE)
  Relative segment, address: 7E90 - 7EC1 (0x32 bytes), align: 1
  Segment part 713.           Intra module refs:   APSME_SecurityNM
           ENTRY                   ADDRESS         REF BY
           =====                   =======         ======
           APSME_FrameSecNM        7E90 
               CSTACK = 00000000 ( 00000004 )
    -------------------------------------------------------------------------
<CODE> 1 (was CODE)
  Relative segment, address: 7EC2 - 7ED3 (0x12 bytes), align: 1
  Segment part 717.
           ENTRY                   ADDRESS         REF BY
           =====                   =======         ======
           APSME_SecurityNM        7EC2            ZDSecMgrInit (ZDSecMgr)
               calls direct
               CSTACK = 00000000 ( 00000004 )
    -------------------------------------------------------------------------
<CODE> 1 (was CODE)
  Relative segment, address: 7ED4 - 7EDB (0x8 bytes), align: 1
  Segment part 722.           Intra module refs:   APSME_HoldDataRequests
    -------------------------------------------------------------------------
<CODE> 1 (was CODE)
  Relative segment, address: 7EDC - 7EE5 (0xa bytes), align: 1
  Segment part 732.           Intra module refs:   APSDE_DataReq
                                                   APS_Reflect
                                                   apsGenerateAck
    -------------------------------------------------------------------------
<CODE> 1 (was CODE)
  Relative segment, address: 7EE6 - 7EFB (0x16 bytes), align: 1
  Segment part 738.           Intra module refs:   APSDE_FrameSend
    -------------------------------------------------------------------------
<CODE> 1 (was CODE)
  Relative segment, address: 7EFC - 7F01 (0x6 bytes), align: 1
  Segment part 742.           Intra module refs:   NLME_RouteDiscoveryRequest
    -------------------------------------------------------------------------
<CODE> 1 (was CODE)
  Relative segment, address: 7F02 - 7F0B (0xa bytes), align: 1
  Segment part 748.           Intra module refs:   APSDE_DataReq
    -------------------------------------------------------------------------
<CODE> 1 (was CODE)
  Relative segment, address: 7F0C - 7F51 (0x46 bytes), align: 1
  Segment part 760.           Intra module refs:   APS_event_loop
           ENTRY                   ADDRESS         REF BY
           =====                   =======         ======
           APSME_CmdPkt            7F0C 
               calls direct and indirect
               CSTACK = 00000000 ( 00000004 )
    -------------------------------------------------------------------------
<CODE> 1 (was CODE)
  Relative segment, address: 7F52 - 7F53 (0x2 bytes), align: 1
  Segment part 761.           Intra module refs:   APSME_SecurityNM
           ENTRY                   ADDRESS         REF BY
           =====                   =======         ======
           APSME_CmdPktNM          7F52 
               CSTACK = 00000000 ( 00000004 )
    -------------------------------------------------------------------------
<CODE> 1 (was CODE)
  Relative segment, address: 7F54 - 7F59 (0x6 bytes), align: 1
  Segment part 781.           Intra module refs:   APS_GetBind
    -------------------------------------------------------------------------
<CODE> 1 (was CODE)
  Relative segment, address: 7F5A - 7F5F (0x6 bytes), align: 1
  Segment part 782.           Intra module refs:   Segment part 781
    -------------------------------------------------------------------------
<CODE> 1 (was CODE)
  Relative segment, address: 7F60 - 7F63 (0x4 bytes), align: 1
  Segment part 815.           Intra module refs:   APSME_FrameSecNM
           ENTRY                   ADDRESS         REF BY
           =====                   =======         ======
           APSME_FrameSecApplyExtNM
                                   7F60 
               CSTACK = 00000000 ( 00000004 )
    -------------------------------------------------------------------------
<CODE> 1 (was CODE)
  Relative segment, address: 7F64 - 7F69 (0x6 bytes), align: 1
  Segment part 817.           Intra module refs:   APSME_FrameSecNM
           ENTRY                   ADDRESS         REF BY
           =====                   =======         ======
           APSME_FrameSecApplyNM   7F64 
               CSTACK = 00000000 ( 00000004 )
    -------------------------------------------------------------------------
<CODE> 1 (was CODE)
  Relative segment, address: 7F6A - 7F6D (0x4 bytes), align: 1
  Segment part 819.           Intra module refs:   APSME_FrameSecNM
           ENTRY                   ADDRESS         REF BY
           =====                   =======         ======
           APSME_FrameSecRemoveNM
                                   7F6A 
               CSTACK = 00000000 ( 00000004 )
    -------------------------------------------------------------------------
<CODE> 1 (was CODE)
  Relative segment, address: 7F6E - 7F73 (0x6 bytes), align: 1
  Segment part 821.           Intra module refs:   nwkPollConfirmProcessing
    -------------------------------------------------------------------------
<CODE> 1 (was CODE)
  Relative segment, address: 7F74 - 7F7B (0x8 bytes), align: 1
  Segment part 825.           Intra module refs:   NLDE_DataReq
                                                   apsGenerateAck
                                                   nwk_process_dstAddr
    -------------------------------------------------------------------------
<CODE> 1 (was CODE)
  Relative segment, address: 7F7C - 7F81 (0x6 bytes), align: 1
  Segment part 826.           Intra module refs:   APSME_FrameSecNM
           ENTRY                   ADDRESS         REF BY
           =====                   =======         ======
           APSME_FrameSecSetupNM   7F7C 
               CSTACK = 00000000 ( 00000004 )
    -------------------------------------------------------------------------
<CODE> 1 (was CODE)
  Relative segment, address: 7F82 - 7F9D (0x1c bytes), align: 1
  Segment part 835.
           ENTRY                   ADDRESS         REF BY
           =====                   =======         ======
           APSME_UnBindRequest     7F82            ZDO_ProcessBindUnbindReq (ZDObject)
               calls indirect
               CSTACK = 00000000 ( 00000006 )
    -------------------------------------------------------------------------
<CODE> 1 (was CODE)
  Relative segment, address: 7F9E - 7FD1 (0x34 bytes), align: 1
  Segment part 836.
           ENTRY                   ADDRESS         REF BY
           =====                   =======         ======
           APSME_BindRequest       7F9E            ZDO_ProcessBindUnbindReq (ZDObject)
               calls indirect
               CSTACK = 00000000 ( 00000008 )
    -------------------------------------------------------------------------
<CODE> 1 (was CODE)
  Relative segment, address: 7FD2 - 7FFF (0x2e bytes), align: 1
  Segment part 837.
           ENTRY                   ADDRESS         REF BY
           =====                   =======         ======
           APSDE_DataReqMTU        7FD2            afDataReqMTU (AF)
               calls direct
               CSTACK = 00000000 ( 00000006 )
    -------------------------------------------------------------------------
<CODE> 1 (was CODE)
  Relative segment, address: 8000 - 8039 (0x3a bytes), align: 1
  Segment part 839.           Intra module refs:   APS_event_loop
           ENTRY                   ADDRESS         REF BY
           =====                   =======         ======
           APS_EndDeviceBroadcastTimer
                                   8000 
               calls direct
               CSTACK = 00000000 ( 00000004 )
    -------------------------------------------------------------------------
<CODE> 1 (was CODE)
  Relative segment, address: 803A - 8047 (0xe bytes), align: 1
  Segment part 840.           Intra module refs:   APS_EndDeviceBroadcastCheck
                                                   APS_EndDeviceBroadcastTimer
    -------------------------------------------------------------------------
<CODE> 1 (was CODE)
  Relative segment, address: 8048 - 8071 (0x2a bytes), align: 1
  Segment part 841.           Intra module refs:   APS_Init
           ENTRY                   ADDRESS         REF BY
           =====                   =======         ======
           APS_InitEndDeviceBroadcastTable
                                   8048 
               calls direct
               CSTACK = 00000000 ( 00000004 )
    -------------------------------------------------------------------------
<CODE> 1 (was CODE)
  Relative segment, address: 8072 - 808D (0x1c bytes), align: 1
  Segment part 842.
           ENTRY                   ADDRESS         REF BY
           =====                   =======         ======
           APSME_HoldDataRequests
                                   8072            ZDApp_AnnounceNewAddress (ZDApp)
               calls direct
               CSTACK = 00000000 ( 00000004 )
    -------------------------------------------------------------------------
<CODE> 1 (was CODE)
  Relative segment, address: 808E - 8095 (0x8 bytes), align: 1
  Segment part 843.           Intra module refs:   APSME_HoldDataRequests
    -------------------------------------------------------------------------
<CODE> 1 (was CODE)
  Relative segment, address: 8096 - 81D9 (0x144 bytes), align: 1
  Segment part 844.           Intra module refs:   APS_DataIndReflect
                                                   APS_ReReflect
           ENTRY                   ADDRESS         REF BY
           =====                   =======         ======
           APS_Reflect             8096 
               calls direct
               CSTACK = 00000000 ( 00000026 )
    -------------------------------------------------------------------------
<CODE> 1 (was CODE)
  Relative segment, address: 81DA - 823F (0x66 bytes), align: 1
  Segment part 845.           Intra module refs:   APS_DataConfirmReflect
           ENTRY                   ADDRESS         REF BY
           =====                   =======         ======
           APS_ReReflect           81DA 
               calls direct
               CSTACK = 00000000 ( 00000022 )
    -------------------------------------------------------------------------
<CODE> 1 (was CODE)
  Relative segment, address: 8240 - 837F (0x140 bytes), align: 1
  Segment part 846.           Intra module refs:   APS_ReflectorInit
           ENTRY                   ADDRESS         REF BY
           =====                   =======         ======
           APS_DataIndReflect      8240 
               calls direct
               CSTACK = 00000000 ( 0000002A )
    -------------------------------------------------------------------------
<CODE> 1 (was CODE)
  Relative segment, address: 8380 - 839F (0x20 bytes), align: 1
  Segment part 847.           Intra module refs:   APS_ReflectorInit
           ENTRY                   ADDRESS         REF BY
           =====                   =======         ======
           APS_DataConfirmReflect
                                   8380 
               calls direct
               CSTACK = 00000000 ( 00000004 )
    -------------------------------------------------------------------------
<CODE> 1 (was CODE)
  Relative segment, address: 83A0 - 8443 (0xa4 bytes), align: 1
  Segment part 848.           Intra module refs:   APS_ReflectorInit
           ENTRY                   ADDRESS         REF BY
           =====                   =======         ======
           APS_GetBind             83A0 
               calls direct
               CSTACK = 00000000 ( 0000001A )
    -------------------------------------------------------------------------
<CODE> 1 (was CODE)
  Relative segment, address: 8444 - 847D (0x3a bytes), align: 1
  Segment part 849.           Intra module refs:   APS_ReflectorInit
           ENTRY                   ADDRESS         REF BY
           =====                   =======         ======
           APS_UnBind              8444 
               calls direct
               CSTACK = 00000000 ( 00000008 )
    -------------------------------------------------------------------------
DATA16_ID
  Relative segment, address: 3A0A - 3A0A (0x1 bytes), align: 0
  Segment part 18.            Intra module refs:   APS_AllowDataRequests
    -------------------------------------------------------------------------
DATA16_ID
  Relative segment, address: 3A0B - 3A0B (0x1 bytes), align: 0
  Segment part 20.            Intra module refs:   APS_ReflectorType
    -------------------------------------------------------------------------
DATA16_ID
  Relative segment, address: 3A0C - 3A0C (0x1 bytes), align: 0
  Segment part 42.            Intra module refs:   APSF_taskID
    -------------------------------------------------------------------------
DATA16_ID
  Relative segment, address: 3A0D - 3A0D (0x1 bytes), align: 0
  Segment part 77.            Intra module refs:   Segment part 76
    -------------------------------------------------------------------------
DATA16_ID
  Relative segment, address: 3A0E - 3A0E (0x1 bytes), align: 0
  Segment part 80.            Intra module refs:   Segment part 79
    -------------------------------------------------------------------------
DATA16_ID
  Relative segment, address: 3A0F - 3A0F (0x1 bytes), align: 0
  Segment part 82.            Intra module refs:   Segment part 81

    *************************************************************************

  FILE NAME : C:\Texas Instruments\ZStack-MSP2618-2.5.1\Projects\zstack\Libraries\MSP2618\bin\Security2618.lib
    *************************************************************************

  FILE NAME : C:\Texas Instruments\ZStack-MSP2618-2.5.1\Projects\zstack\Libraries\TIMAC\bin\TIMAC-MSP2618.lib
  LIBRARY MODULE, NAME : mac_beacon

  SEGMENTS IN THE MODULE
  ======================
DATA16_I
  Relative segment, address: 1100 - 111F (0x20 bytes), align: 1
  Segment part 2.
           ENTRY                   ADDRESS         REF BY
           =====                   =======         ======
           macBeaconMargin         1100            macLowLevelInit (mac_low_level)
    -------------------------------------------------------------------------
DATA16_C
  Relative segment, address: 3546 - 3550 (0xb bytes), align: 0
  Segment part 13.            Intra module refs:   macAllocTxBuffer
    -------------------------------------------------------------------------
DATA16_C
  Relative segment, address: 3551 - 3559 (0x9 bytes), align: 0
  Segment part 14.            Intra module refs:   macRxCompleteCallback
    -------------------------------------------------------------------------
DATA16_C
  Relative segment, address: 355A - 3564 (0xb bytes), align: 0
  Segment part 15.            Intra module refs:   macDataTxComplete
           ENTRY                   ADDRESS         REF BY
           =====                   =======         ======
           macTxFrameSuccess       355A 
    -------------------------------------------------------------------------
DATA16_C
  Relative segment, address: 3565 - 356F (0xb bytes), align: 0
  Segment part 16.            Intra module refs:   macAllocTxBuffer
                                                   macDataTxComplete
           ENTRY                   ADDRESS         REF BY
           =====                   =======         ======
           macTxFrameFailed        3565 
    -------------------------------------------------------------------------
DATA16_Z
  Relative segment, address: 1312 - 131B (0xa bytes), align: 1
  Segment part 17.            Intra module refs:   MAC_McpsDataReq
                                                   Segment part 293
                                                   macDataReset
                                                   macDataRxMemAlloc
                                                   macDataTxEnqueue
                                                   macDataTxSend
                                                   macEventLoop
                                                   macRxCheckMACPendingCallback
                                                   macRxCompleteCallback
           ENTRY                   ADDRESS         REF BY
           =====                   =======         ======
           macData                 1312 
    -------------------------------------------------------------------------
DATA16_Z
  Relative segment, address: 131C - 131D (0x2 bytes), align: 1
  Segment part 18.            Intra module refs:   macDataTxSend
                                                   macRxCheckMACPendingCallback
                                                   macTxCompleteCallback
           ENTRY                   ADDRESS         REF BY
           =====                   =======         ======
           pMacDataTx              131C            macTxFrame (mac_tx)
                                                   rxStartIsr (mac_rx)
    -------------------------------------------------------------------------
DATA16_I
  Relative segment, address: 1120 - 1123 (0x4 bytes), align: 1
  Segment part 19.            Intra module refs:   macDataTxEnqueue
           ENTRY                   ADDRESS         REF BY
           =====                   =======         ======
           macDataTxIndirect       1120 
    -------------------------------------------------------------------------
DATA16_I
  Relative segment, address: 1124 - 1127 (0x4 bytes), align: 1
  Segment part 21.            Intra module refs:   macTxCompleteCallback
           ENTRY                   ADDRESS         REF BY
           =====                   =======         ======
           macDataRequeueIndirect
                                   1124 
    -------------------------------------------------------------------------
DATA16_I
  Relative segment, address: 1128 - 112B (0x4 bytes), align: 1
  Segment part 23.            Intra module refs:   macRxCompleteCallback
           ENTRY                   ADDRESS         REF BY
           =====                   =======         ======
           macDataRxBeaconCritical
                                   1128 
    -------------------------------------------------------------------------
DATA16_I
  Relative segment, address: 112C - 112F (0x4 bytes), align: 1
  Segment part 25.            Intra module refs:   macDataTxComplete
           ENTRY                   ADDRESS         REF BY
           =====                   =======         ======
           macDataTxBeaconComplete
                                   112C 
    -------------------------------------------------------------------------
DATA16_I
  Relative segment, address: 1130 - 1133 (0x4 bytes), align: 1
  Segment part 27.            Intra module refs:   macDataTxEnqueue
           ENTRY                   ADDRESS         REF BY
           =====                   =======         ======
           macDataSetSched         1130 
    -------------------------------------------------------------------------
DATA16_I
  Relative segment, address: 1134 - 1137 (0x4 bytes), align: 1
  Segment part 29.            Intra module refs:   macDataTxSend
           ENTRY                   ADDRESS         REF BY
           =====                   =======         ======
           macDataCheckSched       1134 
    -------------------------------------------------------------------------
DATA16_Z
  Relative segment, address: 131E - 1321 (0x4 bytes), align: 1
  Segment part 31.            Intra module refs:   macDataTxTimeAvailable
           ENTRY                   ADDRESS         REF BY
           =====                   =======         ======
           macDataCheckTxTime      131E 
    -------------------------------------------------------------------------
DATA16_I
  Relative segment, address: 1138 - 113B (0x4 bytes), align: 1
  Segment part 32.            Intra module refs:   macTxCompleteCallback
           ENTRY                   ADDRESS         REF BY
           =====                   =======         ======
           macDataBeaconRequeue    1138 
    -------------------------------------------------------------------------
DATA16_C
  Relative segment, address: 32FE - 3335 (0x38 bytes), align: 1
  Segment part 34.            Intra module refs:   MAC_InitDevice
    -------------------------------------------------------------------------
DATA16_C
  Relative segment, address: 3336 - 3349 (0x14 bytes), align: 1
  Segment part 35.            Intra module refs:   MAC_InitDevice
    -------------------------------------------------------------------------
DATA16_Z
  Relative segment, address: 1322 - 1345 (0x24 bytes), align: 1
  Segment part 36.            Intra module refs:   Segment part 224
                                                   Segment part 225
                                                   Segment part 227
                                                   Segment part 228
                                                   macApiAssociateReq
                                                   macApiPollReq
                                                   macAssocDataReq
                                                   macAssocDataRxInd
                                                   macAssocFailed
                                                   macAssocFrameResponseTimeout
                                                   macAssociateCnf
                                                   macDeviceReset
                                                   macRxAssocRsp
                                                   macStartFrameResponseTimer
                                                   macStartResponseTimer
           ENTRY                   ADDRESS         REF BY
           =====                   =======         ======
           macDevice               1322 
    -------------------------------------------------------------------------
DATA16_C
  Relative segment, address: 3570 - 35D1 (0x62 bytes), align: 0
  Segment part 37.            Intra module refs:   Segment part 48
           ENTRY                   ADDRESS         REF BY
           =====                   =======         ======
           macIdleSt               3570 
    -------------------------------------------------------------------------
DATA16_C
  Relative segment, address: 35D2 - 3633 (0x62 bytes), align: 0
  Segment part 38.            Intra module refs:   MAC_InitDevice
           ENTRY                   ADDRESS         REF BY
           =====                   =======         ======
           macAssociatingSt        35D2 
    -------------------------------------------------------------------------
DATA16_C
  Relative segment, address: 3634 - 3695 (0x62 bytes), align: 0
  Segment part 39.            Intra module refs:   MAC_InitDevice
           ENTRY                   ADDRESS         REF BY
           =====                   =======         ======
           macPollingSt            3634 
    -------------------------------------------------------------------------
DATA16_C
  Relative segment, address: 3696 - 36F7 (0x62 bytes), align: 0
  Segment part 40.            Intra module refs:   Segment part 48
           ENTRY                   ADDRESS         REF BY
           =====                   =======         ======
           macScanningSt           3696 
    -------------------------------------------------------------------------
DATA16_C
  Relative segment, address: 36F8 - 3702 (0xb bytes), align: 0
  Segment part 42.            Intra module refs:   macSendDataMsg
                                                   macSendMsg
           ENTRY                   ADDRESS         REF BY
           =====                   =======         ======
           macSendMsgBufSize       36F8 
    -------------------------------------------------------------------------
DATA16_C
  Relative segment, address: 3703 - 370D (0xb bytes), align: 0
  Segment part 43.            Intra module refs:   macSendDataMsg
                                                   macSendMsg
           ENTRY                   ADDRESS         REF BY
           =====                   =======         ======
           macSendMsgDataSize      3703 
    -------------------------------------------------------------------------
DATA16_C
  Relative segment, address: 370E - 3718 (0xb bytes), align: 0
  Segment part 44.            Intra module refs:   macCbackForEvent
           ENTRY                   ADDRESS         REF BY
           =====                   =======         ======
           macCbackEventTbl        370E 
    -------------------------------------------------------------------------
DATA16_Z
  Relative segment, address: 19B3 - 19B3 (0x1 bytes), align: 0
  Segment part 45.            Intra module refs:   Segment part 137
                                                   Segment part 145
                                                   macEventLoop
                                                   macMainReset
                                                   macSetEvent
                                                   macTaskInit
           ENTRY                   ADDRESS         REF BY
           =====                   =======         ======
           macTaskId               19B3 
    -------------------------------------------------------------------------
DATA16_Z
  Relative segment, address: 1346 - 134D (0x8 bytes), align: 1
  Segment part 46.            Intra module refs:   MAC_Init
                                                   MAC_InitDevice
                                                   Segment part 188
                                                   macApiDataReq
                                                   macApiPending
                                                   macApiScanReq
                                                   macEventLoop
                                                   macExecute
                                                   macMainReserve
                                                   macMainReset
                                                   macRxCheckMACPendingCallback
                                                   macRxCheckPendingCallback
                                                   macStateIdle
                                                   macStateScanning
                                                   mac_msg_deallocate
           ENTRY                   ADDRESS         REF BY
           =====                   =======         ======
           macMain                 1346 
    -------------------------------------------------------------------------
DATA16_I
  Relative segment, address: 113C - 1145 (0xa bytes), align: 1
  Segment part 47.            Intra module refs:   MAC_InitDevice
                                                   macExecute
           ENTRY                   ADDRESS         REF BY
           =====                   =======         ======
           macStateTbl             113C 
    -------------------------------------------------------------------------
DATA16_Z
  Relative segment, address: 134E - 1369 (0x1c bytes), align: 1
  Segment part 49.            Intra module refs:   MAC_InitDevice
                                                   MAC_MlmeResetReq
           ENTRY                   ADDRESS         REF BY
           =====                   =======         ======
           macReset                134E 
    -------------------------------------------------------------------------
DATA16_Z
  Relative segment, address: 136A - 137B (0x12 bytes), align: 1
  Segment part 50.            Intra module refs:   MAC_Init
                                                   MAC_InitDevice
                                                   macExecute
           ENTRY                   ADDRESS         REF BY
           =====                   =======         ======
           macActionSet            136A 
    -------------------------------------------------------------------------
DATA16_Z
  Relative segment, address: 19B4 - 19B4 (0x1 bytes), align: 0
  Segment part 51.            Intra module refs:   macApiDisassociateReq
           ENTRY                   ADDRESS         REF BY
           =====                   =======         ======
           macMgmt                 19B4 
    -------------------------------------------------------------------------
DATA16_Z
  Relative segment, address: 19B5 - 19B5 (0x1 bytes), align: 0
  Segment part 52.            Intra module refs:   MAC_MlmeResetReq
                                                   macRxBeacon
           ENTRY                   ADDRESS         REF BY
           =====                   =======         ======
           macPanCoordinator       19B5            macDualchipTurnOnRadioPower (mac_dualchip)
    -------------------------------------------------------------------------
DATA16_C
  Relative segment, address: 334A - 3365 (0x1c bytes), align: 1
  Segment part 53.            Intra module refs:   MAC_Init
           ENTRY                   ADDRESS         REF BY
           =====                   =======         ======
           macMgmtAction1          334A 
    -------------------------------------------------------------------------
DATA16_C
  Relative segment, address: 3366 - 3379 (0x14 bytes), align: 1
  Segment part 54.            Intra module refs:   MAC_Init
           ENTRY                   ADDRESS         REF BY
           =====                   =======         ======
           macMgmtAction2          3366 
    -------------------------------------------------------------------------
DATA16_Z
  Relative segment, address: 19B6 - 19B6 (0x1 bytes), align: 0
  Segment part 55.            Intra module refs:   MAC_MlmeResetReq
           ENTRY                   ADDRESS         REF BY
           =====                   =======         ======
           macPwr                  19B6 
    -------------------------------------------------------------------------
DATA16_C
  Relative segment, address: 337A - 3391 (0x18 bytes), align: 1
  Segment part 56.            Intra module refs:   MAC_Init
           ENTRY                   ADDRESS         REF BY
           =====                   =======         ======
           macScanAction           337A 
    -------------------------------------------------------------------------
DATA16_Z
  Relative segment, address: 137C - 13A7 (0x2c bytes), align: 1
  Segment part 57.            Intra module refs:   macApiScanReq
                                                   macScanComplete
                                                   macScanNextChan
                                                   macScanRxBeacon
                                                   macScanRxCoordRealign
                                                   macScanStartTimer
    -------------------------------------------------------------------------
DATA16_Z
  Relative segment, address: 13A8 - 13A9 (0x2 bytes), align: 1
  Segment part 65.            Intra module refs:   macBackoffTimerRolloverCallback
                                                   macTimer
                                                   macTimerCancel
                                                   macTimerInit
                                                   macTimerUpdateBackoffTimer
           ENTRY                   ADDRESS         REF BY
           =====                   =======         ======
           timerUnalignedQ         13A8 
    -------------------------------------------------------------------------
DATA16_Z
  Relative segment, address: 13AA - 13AB (0x2 bytes), align: 1
  Segment part 66.            Intra module refs:   macBackoffTimerRolloverCallback
                                                   macTimerCancel
                                                   macTimerInit
                                                   macTimerUpdateBackoffTimer
           ENTRY                   ADDRESS         REF BY
           =====                   =======         ======
           timerAlignedQ           13AA 
    -------------------------------------------------------------------------
DATA16_I
  Relative segment, address: 1146 - 1149 (0x4 bytes), align: 1
  Segment part 67.            Intra module refs:   Segment part 82
                                                   macBackoffTimerRolloverCallback
                                                   macBackoffTimerTriggerCallback
                                                   macTimerInit
                                                   macTimerUpdateBackoffTimer
    -------------------------------------------------------------------------
DATA16_I
  Relative segment, address: 114A - 114D (0x4 bytes), align: 1
  Segment part 69.            Intra module refs:   macBackoffTimerRolloverCallback
                                                   macTimerInit
    -------------------------------------------------------------------------
DATA16_Z
  Relative segment, address: 13AC - 13AD (0x2 bytes), align: 1
  Segment part 71.            Intra module refs:   macBackoffTimerTriggerCallback
                                                   macTimerCancel
                                                   macTimerInit
                                                   macTimerRecalcUnaligned
                                                   macTimerUpdateBackoffTimer
    -------------------------------------------------------------------------
<CODE> 1 (was CODE)
  Relative segment, address: 847E - 8483 (0x6 bytes), align: 1
  Segment part 75.            Intra module refs:   macTimerAddTimer
    -------------------------------------------------------------------------
<CODE> 1 (was CODE)
  Relative segment, address: 8484 - 8513 (0x90 bytes), align: 1
  Segment part 77.            Intra module refs:   macBackoffTimerRolloverCallback
                                                   macTimerAddTimer
                                                   macTimerCancel
           LOCAL                   ADDRESS         
           =====                   =======         
           macTimerUpdateBackoffTimer
                                   8484 
               calls direct
               CSTACK = 00000000 ( 00000004 )
    -------------------------------------------------------------------------
<CODE> 1 (was CODE)
  Relative segment, address: 8514 - 854F (0x3c bytes), align: 1
  Segment part 78.            Intra module refs:   macBackoffTimerRolloverCallback
           LOCAL                   ADDRESS         
           =====                   =======         
           macTimerRecalcUnaligned
                                   8514 
               calls direct
               CSTACK = 00000000 ( 0000000C )
    -------------------------------------------------------------------------
<CODE> 1 (was CODE)
  Relative segment, address: 8550 - 8559 (0xa bytes), align: 1
  Segment part 82.            Intra module refs:   macBackoffTimerRolloverCallback
    -------------------------------------------------------------------------
<CODE> 1 (was CODE)
  Relative segment, address: 855A - 8577 (0x1e bytes), align: 1
  Segment part 84.            Intra module refs:   macTimerCancel
           LOCAL                   ADDRESS         
           =====                   =======         
           macTimerRemoveTimer     855A 
               CSTACK = 00000000 ( 00000004 )
    -------------------------------------------------------------------------
<CODE> 1 (was CODE)
  Relative segment, address: 8578 - 85A3 (0x2c bytes), align: 1
  Segment part 85.            Intra module refs:   Segment part 224
                                                   Segment part 225
                                                   Segment part 297
                                                   macBackoffTimerTriggerCallback
                                                   macScanComplete
           ENTRY                   ADDRESS         REF BY
           =====                   =======         ======
           macTimerCancel          8578 
               calls direct
               CSTACK = 00000000 ( 00000008 )
    -------------------------------------------------------------------------
<CODE> 1 (was CODE)
  Relative segment, address: 85A4 - 85A9 (0x6 bytes), align: 1
  Segment part 86.            Intra module refs:   macTimerCancel
                                                   mac_msg_deallocate
    -------------------------------------------------------------------------
<CODE> 1 (was CODE)
  Relative segment, address: 85AA - 85E5 (0x3c bytes), align: 1
  Segment part 87.            Intra module refs:   Segment part 89
           LOCAL                   ADDRESS         
           =====                   =======         
           macTimerAddTimer        85AA 
               calls direct
               CSTACK = 00000000 ( 00000006 )
    -------------------------------------------------------------------------
<CODE> 1 (was CODE)
  Relative segment, address: 85E6 - 85FB (0x16 bytes), align: 1
  Segment part 88.            Intra module refs:   Segment part 135
                                                   macStartFrameResponseTimer
                                                   macStartResponseTimer
           ENTRY                   ADDRESS         REF BY
           =====                   =======         ======
           macTimer                85E6 
               calls direct
               CSTACK = 00000000 ( 0000000C )
    -------------------------------------------------------------------------
<CODE> 1 (was CODE)
  Relative segment, address: 85FC - 8605 (0xa bytes), align: 1
  Segment part 89.            Intra module refs:   macTimer
    -------------------------------------------------------------------------
<CODE> 1 (was CODE)
  Relative segment, address: 8606 - 860F (0xa bytes), align: 1
  Segment part 91.            Intra module refs:   macTimer
    -------------------------------------------------------------------------
<CODE> 1 (was CODE)
  Relative segment, address: 8610 - 867B (0x6c bytes), align: 1
  Segment part 92.
           ENTRY                   ADDRESS         REF BY
           =====                   =======         ======
           macBackoffTimerRolloverCallback
                                   8610            macBackoffTimerPeriodIsr (mac_backoff_timer)
               calls direct
               CSTACK = 00000000 ( 00000008 )
    -------------------------------------------------------------------------
<CODE> 1 (was CODE)
  Relative segment, address: 867C - 86E3 (0x68 bytes), align: 1
  Segment part 93.
           ENTRY                   ADDRESS         REF BY
           =====                   =======         ======
           macBackoffTimerTriggerCallback
                                   867C            macBackoffTimerCompareIsr (mac_backoff_timer)
                                                   macBackoffTimerSetTrigger (mac_backoff_timer)
               calls direct and indirect
               CSTACK = 00000000 ( 00000006 )
    -------------------------------------------------------------------------
<CODE> 1 (was CODE)
  Relative segment, address: 86E4 - 8705 (0x22 bytes), align: 1
  Segment part 94.            Intra module refs:   MAC_MlmeResetReq
           ENTRY                   ADDRESS         REF BY
           =====                   =======         ======
           macTimerInit            86E4 
               CSTACK = 00000000 ( 00000004 )
    -------------------------------------------------------------------------
<CODE> 1 (was CODE)
  Relative segment, address: 8706 - 870D (0x8 bytes), align: 1
  Segment part 113.           Intra module refs:   Segment part 172
                                                   macBuildBeaconNotifyInd
                                                   macCommStatusInd
                                                   macRxCoordRealign
           ENTRY                   ADDRESS         REF BY
           =====                   =======         ======
           macSecCpy               8706 
               calls direct
               CSTACK = 00000000 ( 00000004 )
    -------------------------------------------------------------------------
<CODE> 1 (was CODE)
  Relative segment, address: 870E - 878F (0x82 bytes), align: 1
  Segment part 114.           Intra module refs:   macCbackForEvent
                                                   macMgmtAction1
           ENTRY                   ADDRESS         REF BY
           =====                   =======         ======
           macCommStatusInd        870E 
               calls direct
               CSTACK = 00000000 ( 0000002C )
    -------------------------------------------------------------------------
<CODE> 1 (was CODE)
  Relative segment, address: 8790 - 8817 (0x88 bytes), align: 1
  Segment part 115.           Intra module refs:   MAC_McpsDataReq
                                                   macApiBadState
                                                   macApiDataReq
                                                   macApiUnsupported
                                                   macDataTxComplete
                                                   macSendDataMsg
                                                   macSendMsg
           ENTRY                   ADDRESS         REF BY
           =====                   =======         ======
           macCbackForEvent        8790 
               calls direct
               CSTACK = 00000000 ( 00000014 )
    -------------------------------------------------------------------------
<CODE> 1 (was CODE)
  Relative segment, address: 8818 - 881D (0x6 bytes), align: 1
  Segment part 116.           Intra module refs:   macAssociateCnf
                                                   macCbackForEvent
    -------------------------------------------------------------------------
<CODE> 1 (was CODE)
  Relative segment, address: 881E - 885F (0x42 bytes), align: 1
  Segment part 117.           Intra module refs:   MAC_MlmePollReq
                                                   MAC_MlmeScanReq
                                                   MAC_MlmeSyncReq
           ENTRY                   ADDRESS         REF BY
           =====                   =======         ======
           macSendMsg              881E 
               calls direct
               CSTACK = 00000000 ( 0000000E )
    -------------------------------------------------------------------------
<CODE> 1 (was CODE)
  Relative segment, address: 8860 - 8865 (0x6 bytes), align: 1
  Segment part 118.           Intra module refs:   macSendMsg
    -------------------------------------------------------------------------
<CODE> 1 (was CODE)
  Relative segment, address: 8866 - 886F (0xa bytes), align: 1
  Segment part 119.
           ENTRY                   ADDRESS         REF BY
           =====                   =======         ======
           MAC_MlmeScanReq         8866            ZMacScanReq (zmac)
               calls direct
               CSTACK = 00000000 ( 00000004 )
    -------------------------------------------------------------------------
<CODE> 1 (was CODE)
  Relative segment, address: 8870 - 8899 (0x2a bytes), align: 1
  Segment part 120.           Intra module refs:   macApiScanReq
                                                   macScanFailedInProgress
           LOCAL                   ADDRESS         
           =====                   =======         
           macScanCnfInit          8870 
               CSTACK = 00000000 ( 00000004 )
    -------------------------------------------------------------------------
<CODE> 1 (was CODE)
  Relative segment, address: 889A - 88B7 (0x1e bytes), align: 1
  Segment part 121.           Intra module refs:   macScanAction
           ENTRY                   ADDRESS         REF BY
           =====                   =======         ======
           macScanFailedInProgress
                                   889A 
               calls direct
               CSTACK = 00000000 ( 00000010 )
    -------------------------------------------------------------------------
<CODE> 1 (was CODE)
  Relative segment, address: 88B8 - 88EF (0x38 bytes), align: 1
  Segment part 122.           Intra module refs:   macScanAction
           ENTRY                   ADDRESS         REF BY
           =====                   =======         ======
           macScanComplete         88B8 
               calls direct
               CSTACK = 00000000 ( 00000004 )
    -------------------------------------------------------------------------
<CODE> 1 (was CODE)
  Relative segment, address: 88F0 - 88F1 (0x2 bytes), align: 1
  Segment part 123.           Intra module refs:   Segment part 20
                                                   Segment part 22
                                                   Segment part 24
                                                   Segment part 26
                                                   Segment part 33
                                                   macMgmtAction1
           ENTRY                   ADDRESS         REF BY
           =====                   =======         ======
           macNoAction             88F0 
               CSTACK = 00000000 ( 00000004 )
    -------------------------------------------------------------------------
<CODE> 1 (was CODE)
  Relative segment, address: 88F2 - 88F9 (0x8 bytes), align: 1
  Segment part 124.           Intra module refs:   macDefaultAction
           ENTRY                   ADDRESS         REF BY
           =====                   =======         ======
           macApiUnsupported       88F2 
               calls direct
               CSTACK = 00000000 ( 00000004 )
    -------------------------------------------------------------------------
<CODE> 1 (was CODE)
  Relative segment, address: 88FA - 8907 (0xe bytes), align: 1
  Segment part 125.           Intra module refs:   macExecute
           ENTRY                   ADDRESS         REF BY
           =====                   =======         ======
           macDefaultAction        88FA 
               calls direct
               CSTACK = 00000000 ( 00000004 )
    -------------------------------------------------------------------------
<CODE> 1 (was CODE)
  Relative segment, address: 8908 - 895F (0x58 bytes), align: 1
  Segment part 126.           Intra module refs:   Segment part 188
                                                   Segment part 338
                                                   macApiAssociateReq
                                                   macEventLoop
                                                   macRxBeacon
                                                   macStartFrameResponseTimer
           ENTRY                   ADDRESS         REF BY
           =====                   =======         ======
           macExecute              8908 
               calls direct and indirect
               CSTACK = 00000000 ( 00000004 )
    -------------------------------------------------------------------------
<CODE> 1 (was CODE)
  Relative segment, address: 8960 - 89BB (0x5c bytes), align: 1
  Segment part 127.           Intra module refs:   Segment part 35
           ENTRY                   ADDRESS         REF BY
           =====                   =======         ======
           macScanRxCoordRealign   8960 
               calls direct
               CSTACK = 00000000 ( 0000000A )
    -------------------------------------------------------------------------
<CODE> 1 (was CODE)
  Relative segment, address: 89BC - 89C1 (0x6 bytes), align: 1
  Segment part 128.           Intra module refs:   macEventLoop
                                                   macRxAssocRsp
                                                   macScanRxCoordRealign
    -------------------------------------------------------------------------
<CODE> 1 (was CODE)
  Relative segment, address: 89C2 - 89CD (0xc bytes), align: 1
  Segment part 129.           Intra module refs:   macScanRxCoordRealign
    -------------------------------------------------------------------------
<CODE> 1 (was CODE)
  Relative segment, address: 89CE - 89D3 (0x6 bytes), align: 1
  Segment part 130.           Intra module refs:   Segment part 129
                                                   macScanRxCoordRealign
    -------------------------------------------------------------------------
<CODE> 1 (was CODE)
  Relative segment, address: 89D4 - 89DB (0x8 bytes), align: 1
  Segment part 131.           Intra module refs:   Segment part 130
                                                   Segment part 201
    -------------------------------------------------------------------------
<CODE> 1 (was CODE)
  Relative segment, address: 89DC - 8ABB (0xe0 bytes), align: 1
  Segment part 132.           Intra module refs:   macRxBeacon
                                                   macScanRxBeacon
           ENTRY                   ADDRESS         REF BY
           =====                   =======         ======
           macBuildBeaconNotifyInd
                                   89DC 
               calls direct
               CSTACK = 00000000 ( 0000000C )
    -------------------------------------------------------------------------
<CODE> 1 (was CODE)
  Relative segment, address: 8ABC - 8B65 (0xaa bytes), align: 1
  Segment part 133.           Intra module refs:   macScanAction
           ENTRY                   ADDRESS         REF BY
           =====                   =======         ======
           macScanRxBeacon         8ABC 
               calls direct
               CSTACK = 00000000 ( 0000003C )
    -------------------------------------------------------------------------
<CODE> 1 (was CODE)
  Relative segment, address: 8B66 - 8BAF (0x4a bytes), align: 1
  Segment part 134.           Intra module refs:   macScanAction
                                                   macScanNextChan
           ENTRY                   ADDRESS         REF BY
           =====                   =======         ======
           macScanStartTimer       8B66 
               calls direct
               CSTACK = 00000000 ( 00000008 )
    -------------------------------------------------------------------------
<CODE> 1 (was CODE)
  Relative segment, address: 8BB0 - 8BB7 (0x8 bytes), align: 1
  Segment part 135.           Intra module refs:   macScanStartTimer
    -------------------------------------------------------------------------
<CODE> 1 (was CODE)
  Relative segment, address: 8BB8 - 8C0F (0x58 bytes), align: 1
  Segment part 136.           Intra module refs:   macDataTxEnqueue
                                                   macTxCompleteCallback
           ENTRY                   ADDRESS         REF BY
           =====                   =======         ======
           macDataTxComplete       8BB8 
               calls direct and indirect
               CSTACK = 00000000 ( 00000004 )
    -------------------------------------------------------------------------
<CODE> 1 (was CODE)
  Relative segment, address: 8C10 - 8C19 (0xa bytes), align: 1
  Segment part 137.           Intra module refs:   MAC_McpsDataReq
                                                   macDataTxComplete
    -------------------------------------------------------------------------
<CODE> 1 (was CODE)
  Relative segment, address: 8C1A - 8C6D (0x54 bytes), align: 1
  Segment part 138.           Intra module refs:   macDataTxSend
           ENTRY                   ADDRESS         REF BY
           =====                   =======         ======
           macFrameDuration        8C1A 
               CSTACK = 00000000 ( 00000008 )
    -------------------------------------------------------------------------
<CODE> 1 (was CODE)
  Relative segment, address: 8C6E - 8CFD (0x90 bytes), align: 1
  Segment part 139.           Intra module refs:   macDataSend
                                                   macDataTxEnqueue
           ENTRY                   ADDRESS         REF BY
           =====                   =======         ======
           macDataTxSend           8C6E 
               calls direct and indirect
               CSTACK = 00000000 ( 0000000C )
    -------------------------------------------------------------------------
<CODE> 1 (was CODE)
  Relative segment, address: 8CFE - 8D09 (0xc bytes), align: 1
  Segment part 140.           Intra module refs:   macApiPending
                                                   macDataTxEnqueue
           ENTRY                   ADDRESS         REF BY
           =====                   =======         ======
           macMainReserve          8CFE 
               CSTACK = 00000000 ( 00000004 )
    -------------------------------------------------------------------------
<CODE> 1 (was CODE)
  Relative segment, address: 8D0A - 8D6B (0x62 bytes), align: 1
  Segment part 141.           Intra module refs:   Segment part 233
                                                   macBuildCommonReq
           ENTRY                   ADDRESS         REF BY
           =====                   =======         ======
           macDataTxEnqueue        8D0A 
               calls direct and indirect
               CSTACK = 00000000 ( 00000006 )
    -------------------------------------------------------------------------
<CODE> 1 (was CODE)
  Relative segment, address: 8D6C - 8EC9 (0x15e bytes), align: 1
  Segment part 142.           Intra module refs:   Segment part 233
                                                   macBuildCommonReq
           ENTRY                   ADDRESS         REF BY
           =====                   =======         ======
           macBuildHeader          8D6C 
               calls direct
               CSTACK = 00000000 ( 00000014 )
    -------------------------------------------------------------------------
<CODE> 1 (was CODE)
  Relative segment, address: 8ECA - 8ED5 (0xc bytes), align: 1
  Segment part 143.           Intra module refs:   macBuildHeader
    -------------------------------------------------------------------------
<CODE> 1 (was CODE)
  Relative segment, address: 8ED6 - 8F17 (0x42 bytes), align: 1
  Segment part 144.           Intra module refs:   macBuildCommonReq
           ENTRY                   ADDRESS         REF BY
           =====                   =======         ======
           macAllocTxBuffer        8ED6 
               calls direct
               CSTACK = 00000000 ( 00000008 )
    -------------------------------------------------------------------------
<CODE> 1 (was CODE)
  Relative segment, address: 8F18 - 8F1F (0x8 bytes), align: 1
  Segment part 145.           Intra module refs:   macAllocTxBuffer
                                                   macSendDataMsg
                                                   macSendMsg
    -------------------------------------------------------------------------
<CODE> 1 (was CODE)
  Relative segment, address: 8F20 - 8F77 (0x58 bytes), align: 1
  Segment part 146.           Intra module refs:   Segment part 231
                                                   macRxBeacon
                                                   macScanNextChan
           ENTRY                   ADDRESS         REF BY
           =====                   =======         ======
           macBuildCommonReq       8F20 
               calls direct
               CSTACK = 00000000 ( 00000010 )
    -------------------------------------------------------------------------
<CODE> 1 (was CODE)
  Relative segment, address: 8F78 - 9021 (0xaa bytes), align: 1
  Segment part 147.           Intra module refs:   macScanAction
           ENTRY                   ADDRESS         REF BY
           =====                   =======         ======
           macScanNextChan         8F78 
               calls direct
               CSTACK = 00000000 ( 00000014 )
    -------------------------------------------------------------------------
<CODE> 1 (was CODE)
  Relative segment, address: 9022 - 9029 (0x8 bytes), align: 1
  Segment part 148.           Intra module refs:   macScanNextChan
    -------------------------------------------------------------------------
<CODE> 1 (was CODE)
  Relative segment, address: 902A - 90EB (0xc2 bytes), align: 1
  Segment part 149.           Intra module refs:   macScanAction
           ENTRY                   ADDRESS         REF BY
           =====                   =======         ======
           macApiScanReq           902A 
               calls direct
               CSTACK = 00000000 ( 00000006 )
    -------------------------------------------------------------------------
<CODE> 1 (was CODE)
  Relative segment, address: 90EC - 90F3 (0x8 bytes), align: 1
  Segment part 150.           Intra module refs:   macApiScanReq
    -------------------------------------------------------------------------
<CODE> 1 (was CODE)
  Relative segment, address: 90F4 - 90F5 (0x2 bytes), align: 1
  Segment part 155.           Intra module refs:   macMgmtAction2
           ENTRY                   ADDRESS         REF BY
           =====                   =======         ======
           macApiPwrOnReq          90F4 
               CSTACK = 00000000 ( 00000004 )
    -------------------------------------------------------------------------
<CODE> 1 (was CODE)
  Relative segment, address: 90F6 - 910F (0x1a bytes), align: 1
  Segment part 158.
           ENTRY                   ADDRESS         REF BY
           =====                   =======         ======
           MAC_Init                90F6            ZMacInit (zmac)
               calls direct
               CSTACK = 00000000 ( 00000004 )
    -------------------------------------------------------------------------
<CODE> 1 (was CODE)
  Relative segment, address: 9110 - 9119 (0xa bytes), align: 1
  Segment part 159.
           ENTRY                   ADDRESS         REF BY
           =====                   =======         ======
           MAC_MlmeSyncReq         9110            ZMacSyncReq (zmac)
               calls direct
               CSTACK = 00000000 ( 00000004 )
    -------------------------------------------------------------------------
<CODE> 1 (was CODE)
  Relative segment, address: 911A - 914D (0x34 bytes), align: 1
  Segment part 160.           Intra module refs:   Segment part 188
                                                   macApiPending
                                                   macDataReset
                                                   macDataRxMemFree
                                                   macEventLoop
                                                   macMainReset
                                                   macRxCompleteCallback
           ENTRY                   ADDRESS         REF BY
           =====                   =======         ======
           mac_msg_deallocate      911A            MAC_CbackEvent (zmac_cb)
               calls direct
               CSTACK = 00000000 ( 00000008 )
    -------------------------------------------------------------------------
<CODE> 1 (was CODE)
  Relative segment, address: 914E - 9197 (0x4a bytes), align: 1
  Segment part 161.           Intra module refs:   MAC_MlmeResetReq
           ENTRY                   ADDRESS         REF BY
           =====                   =======         ======
           macDataReset            914E 
               calls direct
               CSTACK = 00000000 ( 00000006 )
    -------------------------------------------------------------------------
<CODE> 1 (was CODE)
  Relative segment, address: 9198 - 91CD (0x36 bytes), align: 1
  Segment part 162.           Intra module refs:   MAC_MlmeResetReq
           ENTRY                   ADDRESS         REF BY
           =====                   =======         ======
           macMainReset            9198 
               calls direct
               CSTACK = 00000000 ( 00000006 )
    -------------------------------------------------------------------------
<CODE> 1 (was CODE)
  Relative segment, address: 91CE - 924F (0x82 bytes), align: 1
  Segment part 163.
           ENTRY                   ADDRESS         REF BY
           =====                   =======         ======
           MAC_MlmeResetReq        91CE            ZMacReset (zmac)
               calls direct and indirect
               CSTACK = 00000000 ( 00000008 )
    -------------------------------------------------------------------------
<CODE> 1 (was CODE)
  Relative segment, address: 9250 - 92B1 (0x62 bytes), align: 1
  Segment part 164.           Intra module refs:   MAC_MlmeAssociateReq
           ENTRY                   ADDRESS         REF BY
           =====                   =======         ======
           macSendDataMsg          9250 
               calls direct
               CSTACK = 00000000 ( 00000012 )
    -------------------------------------------------------------------------
<CODE> 1 (was CODE)
  Relative segment, address: 92B2 - 92C7 (0x16 bytes), align: 1
  Segment part 166.           Intra module refs:   macPanConflictComplete
                                                   macRxBeacon
           ENTRY                   ADDRESS         REF BY
           =====                   =======         ======
           macConflictSyncLossInd
                                   92B2 
               calls direct
               CSTACK = 00000000 ( 00000016 )
    -------------------------------------------------------------------------
<CODE> 1 (was CODE)
  Relative segment, address: 92C8 - 92CD (0x6 bytes), align: 1
  Segment part 167.           Intra module refs:   macConflictSyncLossInd
    -------------------------------------------------------------------------
<CODE> 1 (was CODE)
  Relative segment, address: 92CE - 92EB (0x1e bytes), align: 1
  Segment part 168.           Intra module refs:   Segment part 171
                                                   macApiDisassociateReq
                                                   macDisassocComplete
           ENTRY                   ADDRESS         REF BY
           =====                   =======         ======
           macCoordAddrCmp         92CE 
               calls direct
               CSTACK = 00000000 ( 00000004 )
    -------------------------------------------------------------------------
<CODE> 1 (was CODE)
  Relative segment, address: 92EC - 9379 (0x8e bytes), align: 1
  Segment part 169.           Intra module refs:   macMgmtAction2
           ENTRY                   ADDRESS         REF BY
           =====                   =======         ======
           macRxBeacon             92EC 
               calls direct
               CSTACK = 00000000 ( 0000003C )
    -------------------------------------------------------------------------
<CODE> 1 (was CODE)
  Relative segment, address: 937A - 93D3 (0x5a bytes), align: 1
  Segment part 170.           Intra module refs:   Segment part 207
                                                   macMgmtAction2
           ENTRY                   ADDRESS         REF BY
           =====                   =======         ======
           macRxDisassoc           937A 
               calls direct
               CSTACK = 00000000 ( 00000020 )
    -------------------------------------------------------------------------
<CODE> 1 (was CODE)
  Relative segment, address: 93D4 - 93DF (0xc bytes), align: 1
  Segment part 171.           Intra module refs:   macRxBeacon
                                                   macRxDisassoc
    -------------------------------------------------------------------------
<CODE> 1 (was CODE)
  Relative segment, address: 93E0 - 93E9 (0xa bytes), align: 1
  Segment part 172.           Intra module refs:   macRxDisassoc
    -------------------------------------------------------------------------
<CODE> 1 (was CODE)
  Relative segment, address: 93EA - 9439 (0x50 bytes), align: 1
  Segment part 173.           Intra module refs:   macMgmtAction2
           ENTRY                   ADDRESS         REF BY
           =====                   =======         ======
           macDisassocComplete     93EA 
               calls direct
               CSTACK = 00000000 ( 00000016 )
    -------------------------------------------------------------------------
<CODE> 1 (was CODE)
  Relative segment, address: 943A - 9441 (0x8 bytes), align: 1
  Segment part 174.           Intra module refs:   macDisassocComplete
                                                   macRxAssocRsp
                                                   macRxDisassoc
                                                   macScanRxCoordRealign
    -------------------------------------------------------------------------
<CODE> 1 (was CODE)
  Relative segment, address: 9442 - 9475 (0x34 bytes), align: 1
  Segment part 175.           Intra module refs:   macApiDisassociateReq
           ENTRY                   ADDRESS         REF BY
           =====                   =======         ======
           macBuildDisassociateReq
                                   9442 
               calls direct
               CSTACK = 00000000 ( 00000006 )
    -------------------------------------------------------------------------
<CODE> 1 (was CODE)
  Relative segment, address: 9476 - 947D (0x8 bytes), align: 1
  Segment part 176.           Intra module refs:   macBuildDataFrame
                                                   macBuildDisassociateReq
    -------------------------------------------------------------------------
<CODE> 1 (was CODE)
  Relative segment, address: 947E - 94CD (0x50 bytes), align: 1
  Segment part 177.           Intra module refs:   macMgmtAction2
           ENTRY                   ADDRESS         REF BY
           =====                   =======         ======
           macApiDisassociateReq   947E 
               calls direct
               CSTACK = 00000000 ( 00000008 )
    -------------------------------------------------------------------------
<CODE> 1 (was CODE)
  Relative segment, address: 94CE - 94D5 (0x8 bytes), align: 1
  Segment part 178.           Intra module refs:   macApiPending
                                                   macMgmtAction1
           ENTRY                   ADDRESS         REF BY
           =====                   =======         ======
           macApiBadState          94CE 
               calls direct
               CSTACK = 00000000 ( 00000004 )
    -------------------------------------------------------------------------
<CODE> 1 (was CODE)
  Relative segment, address: 94D6 - 94FD (0x28 bytes), align: 1
  Segment part 179.           Intra module refs:   macMgmtAction1
           ENTRY                   ADDRESS         REF BY
           =====                   =======         ======
           macApiPending           94D6 
               calls direct
               CSTACK = 00000000 ( 00000006 )
    -------------------------------------------------------------------------
<CODE> 1 (was CODE)
  Relative segment, address: 94FE - 950B (0xe bytes), align: 1
  Segment part 185.           Intra module refs:   macApiPollReq
           ENTRY                   ADDRESS         REF BY
           =====                   =======         ======
           macGetMyAddrMode        94FE 
               CSTACK = 00000000 ( 00000004 )
    -------------------------------------------------------------------------
<CODE> 1 (was CODE)
  Relative segment, address: 950C - 9527 (0x1c bytes), align: 1
  Segment part 186.           Intra module refs:   macAssocDataReq
           ENTRY                   ADDRESS         REF BY
           =====                   =======         ======
           macGetCoordAddress      950C 
               calls direct
               CSTACK = 00000000 ( 00000004 )
    -------------------------------------------------------------------------
<CODE> 1 (was CODE)
  Relative segment, address: 9528 - 961D (0xf6 bytes), align: 1
  Segment part 187.
           ENTRY                   ADDRESS         REF BY
           =====                   =======         ======
           macEventLoop            9528            tasksArr (OSAL_SampleSw)
               calls direct
               CSTACK = 00000000 ( 0000000A )
    -------------------------------------------------------------------------
<CODE> 1 (was CODE)
  Relative segment, address: 961E - 962D (0x10 bytes), align: 1
  Segment part 188.           Intra module refs:   macEventLoop
    -------------------------------------------------------------------------
<CODE> 1 (was CODE)
  Relative segment, address: 962E - 9633 (0x6 bytes), align: 1
  Segment part 189.
           ENTRY                   ADDRESS         REF BY
           =====                   =======         ======
           macTaskInit             962E            osalInitTasks (OSAL_SampleSw)
               CSTACK = 00000000 ( 00000004 )
    -------------------------------------------------------------------------
<CODE> 1 (was CODE)
  Relative segment, address: 9634 - 9643 (0x10 bytes), align: 1
  Segment part 190.           Intra module refs:   macCheckSched
                                                   macRxCompleteCallback
           ENTRY                   ADDRESS         REF BY
           =====                   =======         ======
           macStateScanning        9634 
               CSTACK = 00000000 ( 00000004 )
    -------------------------------------------------------------------------
<CODE> 1 (was CODE)
  Relative segment, address: 9644 - 9651 (0xe bytes), align: 1
  Segment part 191.           Intra module refs:   macRxCompleteCallback
           ENTRY                   ADDRESS         REF BY
           =====                   =======         ======
           macStateIdle            9644 
               CSTACK = 00000000 ( 00000004 )
    -------------------------------------------------------------------------
<CODE> 1 (was CODE)
  Relative segment, address: 9652 - 965B (0xa bytes), align: 1
  Segment part 192.           Intra module refs:   macApiScanReq
                                                   macDeviceReset
                                                   macRxCompleteCallback
                                                   macTxCompleteCallback
           ENTRY                   ADDRESS         REF BY
           =====                   =======         ======
           macSetEvent             9652 
               calls direct
               CSTACK = 00000000 ( 00000004 )
    -------------------------------------------------------------------------
<CODE> 1 (was CODE)
  Relative segment, address: 965C - 9665 (0xa bytes), align: 1
  Segment part 193.
           ENTRY                   ADDRESS         REF BY
           =====                   =======         ======
           MAC_MlmePollReq         965C            ZMacPollReq (zmac)
               calls direct
               CSTACK = 00000000 ( 00000004 )
    -------------------------------------------------------------------------
<CODE> 1 (was CODE)
  Relative segment, address: 9666 - 9671 (0xc bytes), align: 1
  Segment part 194.
           ENTRY                   ADDRESS         REF BY
           =====                   =======         ======
           MAC_MlmeAssociateReq    9666            ZMacAssociateReq (zmac)
               calls direct
               CSTACK = 00000000 ( 00000004 )
    -------------------------------------------------------------------------
<CODE> 1 (was CODE)
  Relative segment, address: 9672 - 969B (0x2a bytes), align: 1
  Segment part 195.
           ENTRY                   ADDRESS         REF BY
           =====                   =======         ======
           MAC_InitDevice          9672            ZMacInit (zmac)
               CSTACK = 00000000 ( 00000004 )
    -------------------------------------------------------------------------
<CODE> 1 (was CODE)
  Relative segment, address: 969C - 969F (0x4 bytes), align: 1
  Segment part 196.           Intra module refs:   Segment part 35
           ENTRY                   ADDRESS         REF BY
           =====                   =======         ======
           macPanConflictComplete
                                   969C 
               calls direct
               CSTACK = 00000000 ( 00000004 )
    -------------------------------------------------------------------------
<CODE> 1 (was CODE)
  Relative segment, address: 96A0 - 96FF (0x60 bytes), align: 1
  Segment part 197.           Intra module refs:   Segment part 35
           ENTRY                   ADDRESS         REF BY
           =====                   =======         ======
           macRxCoordRealign       96A0 
               calls direct
               CSTACK = 00000000 ( 00000018 )
    -------------------------------------------------------------------------
<CODE> 1 (was CODE)
  Relative segment, address: 9700 - 9707 (0x8 bytes), align: 1
  Segment part 198.           Intra module refs:   macRxCoordRealign
    -------------------------------------------------------------------------
<CODE> 1 (was CODE)
  Relative segment, address: 9708 - 970F (0x8 bytes), align: 1
  Segment part 199.           Intra module refs:   macRxCoordRealign
                                                   macRxDisassoc
                                                   macScanRxCoordRealign
    -------------------------------------------------------------------------
<CODE> 1 (was CODE)
  Relative segment, address: 9710 - 9713 (0x4 bytes), align: 1
  Segment part 200.           Intra module refs:   macRxAssocRsp
                                                   macRxCoordRealign
    -------------------------------------------------------------------------
<CODE> 1 (was CODE)
  Relative segment, address: 9714 - 971D (0xa bytes), align: 1
  Segment part 201.           Intra module refs:   Segment part 200
    -------------------------------------------------------------------------
<CODE> 1 (was CODE)
  Relative segment, address: 971E - 9733 (0x16 bytes), align: 1
  Segment part 202.           Intra module refs:   Segment part 227
                                                   macAssocFrameResponseTimeout
                                                   macRxAssocRsp
           LOCAL                   ADDRESS         
           =====                   =======         
           macPollCnf              971E 
               calls direct
               CSTACK = 00000000 ( 00000006 )
    -------------------------------------------------------------------------
<CODE> 1 (was CODE)
  Relative segment, address: 9734 - 973F (0xc bytes), align: 1
  Segment part 203.           Intra module refs:   Segment part 208
                                                   Segment part 34
           ENTRY                   ADDRESS         REF BY
           =====                   =======         ======
           macPollFrameResponseTimeout
                                   9734 
               calls direct
               CSTACK = 00000000 ( 00000006 )
    -------------------------------------------------------------------------
<CODE> 1 (was CODE)
  Relative segment, address: 9740 - 974B (0xc bytes), align: 1
  Segment part 204.           Intra module refs:   macPollDataReqComplete
                                                   macPollFrameResponseTimeout
    -------------------------------------------------------------------------
<CODE> 1 (was CODE)
  Relative segment, address: 974C - 9755 (0xa bytes), align: 1
  Segment part 205.           Intra module refs:   Segment part 34
           ENTRY                   ADDRESS         REF BY
           =====                   =======         ======
           macPollRxAssocRsp       974C 
               calls direct
               CSTACK = 00000000 ( 00000006 )
    -------------------------------------------------------------------------
<CODE> 1 (was CODE)
  Relative segment, address: 9756 - 975B (0x6 bytes), align: 1
  Segment part 206.           Intra module refs:   Segment part 35
           ENTRY                   ADDRESS         REF BY
           =====                   =======         ======
           macPollRxDisassoc       9756 
               calls direct
               CSTACK = 00000000 ( 00000006 )
    -------------------------------------------------------------------------
<CODE> 1 (was CODE)
  Relative segment, address: 975C - 9765 (0xa bytes), align: 1
  Segment part 207.           Intra module refs:   macAssocRxDisassoc
                                                   macPollRxDisassoc
    -------------------------------------------------------------------------
<CODE> 1 (was CODE)
  Relative segment, address: 9766 - 9771 (0xc bytes), align: 1
  Segment part 208.           Intra module refs:   macPollRxAssocRsp
                                                   macPollRxDisassoc
    -------------------------------------------------------------------------
<CODE> 1 (was CODE)
  Relative segment, address: 9772 - 977B (0xa bytes), align: 1
  Segment part 209.           Intra module refs:   Segment part 211
                                                   macMgmtAction1
           ENTRY                   ADDRESS         REF BY
           =====                   =======         ======
           macDataRxInd            9772 
               calls direct
               CSTACK = 00000000 ( 00000004 )
    -------------------------------------------------------------------------
<CODE> 1 (was CODE)
  Relative segment, address: 977C - 978D (0x12 bytes), align: 1
  Segment part 210.           Intra module refs:   Segment part 34
           ENTRY                   ADDRESS         REF BY
           =====                   =======         ======
           macPollDataRxInd        977C 
               calls direct
               CSTACK = 00000000 ( 00000006 )
    -------------------------------------------------------------------------
<CODE> 1 (was CODE)
  Relative segment, address: 978E - 9797 (0xa bytes), align: 1
  Segment part 211.           Intra module refs:   macAssocDataRxInd
                                                   macPollDataRxInd
    -------------------------------------------------------------------------
<CODE> 1 (was CODE)
  Relative segment, address: 9798 - 979F (0x8 bytes), align: 1
  Segment part 212.           Intra module refs:   Segment part 204
                                                   macPollDataRxInd
    -------------------------------------------------------------------------
<CODE> 1 (was CODE)
  Relative segment, address: 97A0 - 97A7 (0x8 bytes), align: 1
  Segment part 213.           Intra module refs:   Segment part 224
                                                   Segment part 229
                                                   macAssocDataRxInd
                                                   macPollDataRxInd
                                                   macPollFrameResponseTimeout
    -------------------------------------------------------------------------
<CODE> 1 (was CODE)
  Relative segment, address: 97A8 - 97AF (0x8 bytes), align: 1
  Segment part 214.           Intra module refs:   Segment part 34
           ENTRY                   ADDRESS         REF BY
           =====                   =======         ======
           macPollDataReqComplete
                                   97A8 
               calls direct
               CSTACK = 00000000 ( 00000006 )
    -------------------------------------------------------------------------
<CODE> 1 (was CODE)
  Relative segment, address: 97B0 - 97D7 (0x28 bytes), align: 1
  Segment part 215.           Intra module refs:   Segment part 34
           ENTRY                   ADDRESS         REF BY
           =====                   =======         ======
           macApiPollReq           97B0 
               calls direct
               CSTACK = 00000000 ( 0000000A )
    -------------------------------------------------------------------------
<CODE> 1 (was CODE)
  Relative segment, address: 97D8 - 97DD (0x6 bytes), align: 1
  Segment part 216.           Intra module refs:   macApiPollReq
    -------------------------------------------------------------------------
<CODE> 1 (was CODE)
  Relative segment, address: 97DE - 9807 (0x2a bytes), align: 1
  Segment part 217.           Intra module refs:   Segment part 34
           ENTRY                   ADDRESS         REF BY
           =====                   =======         ======
           macAssocDataRxInd       97DE 
               calls direct
               CSTACK = 00000000 ( 00000006 )
    -------------------------------------------------------------------------
<CODE> 1 (was CODE)
  Relative segment, address: 9808 - 981D (0x16 bytes), align: 1
  Segment part 218.           Intra module refs:   macAssocDataRxInd
                                                   macPollDataRxInd
    -------------------------------------------------------------------------
<CODE> 1 (was CODE)
  Relative segment, address: 981E - 984D (0x30 bytes), align: 1
  Segment part 219.           Intra module refs:   macAssocFailed
                                                   macRxAssocRsp
           LOCAL                   ADDRESS         
           =====                   =======         
           macAssociateCnf         981E 
               calls direct
               CSTACK = 00000000 ( 00000014 )
    -------------------------------------------------------------------------
<CODE> 1 (was CODE)
  Relative segment, address: 984E - 9869 (0x1c bytes), align: 1
  Segment part 220.           Intra module refs:   Segment part 34
                                                   macAssocFrameResponseTimeout
           ENTRY                   ADDRESS         REF BY
           =====                   =======         ======
           macAssocFailed          984E 
               calls direct
               CSTACK = 00000000 ( 00000006 )
    -------------------------------------------------------------------------
<CODE> 1 (was CODE)
  Relative segment, address: 986A - 988B (0x22 bytes), align: 1
  Segment part 221.           Intra module refs:   Segment part 34
                                                   macAssocRxDisassoc
           ENTRY                   ADDRESS         REF BY
           =====                   =======         ======
           macAssocFrameResponseTimeout
                                   986A 
               calls direct
               CSTACK = 00000000 ( 00000006 )
    -------------------------------------------------------------------------
<CODE> 1 (was CODE)
  Relative segment, address: 988C - 9895 (0xa bytes), align: 1
  Segment part 222.           Intra module refs:   Segment part 35
           ENTRY                   ADDRESS         REF BY
           =====                   =======         ======
           macAssocRxDisassoc      988C 
               calls direct
               CSTACK = 00000000 ( 00000006 )
    -------------------------------------------------------------------------
<CODE> 1 (was CODE)
  Relative segment, address: 9896 - 98F1 (0x5c bytes), align: 1
  Segment part 223.           Intra module refs:   Segment part 34
           ENTRY                   ADDRESS         REF BY
           =====                   =======         ======
           macRxAssocRsp           9896 
               calls direct
               CSTACK = 00000000 ( 0000000A )
    -------------------------------------------------------------------------
<CODE> 1 (was CODE)
  Relative segment, address: 98F2 - 9901 (0x10 bytes), align: 1
  Segment part 224.           Intra module refs:   macAssocFailed
                                                   macRxAssocRsp
    -------------------------------------------------------------------------
<CODE> 1 (was CODE)
  Relative segment, address: 9902 - 9909 (0x8 bytes), align: 1
  Segment part 225.           Intra module refs:   Segment part 208
                                                   Segment part 224
                                                   macPollDataRxInd
    -------------------------------------------------------------------------
<CODE> 1 (was CODE)
  Relative segment, address: 990A - 9929 (0x20 bytes), align: 1
  Segment part 226.           Intra module refs:   Segment part 34
           ENTRY                   ADDRESS         REF BY
           =====                   =======         ======
           macAssocDataReqComplete
                                   990A 
               calls direct
               CSTACK = 00000000 ( 00000006 )
    -------------------------------------------------------------------------
<CODE> 1 (was CODE)
  Relative segment, address: 992A - 9935 (0xc bytes), align: 1
  Segment part 227.           Intra module refs:   Segment part 212
                                                   macAssocDataReqComplete
                                                   macAssocDataRxInd
    -------------------------------------------------------------------------
<CODE> 1 (was CODE)
  Relative segment, address: 9936 - 9945 (0x10 bytes), align: 1
  Segment part 228.           Intra module refs:   Segment part 204
                                                   Segment part 218
                                                   macAssocDataReqComplete
    -------------------------------------------------------------------------
<CODE> 1 (was CODE)
  Relative segment, address: 9946 - 9959 (0x14 bytes), align: 1
  Segment part 229.           Intra module refs:   macAssocDataReqComplete
                                                   macPollDataReqComplete
    -------------------------------------------------------------------------
<CODE> 1 (was CODE)
  Relative segment, address: 995A - 998F (0x36 bytes), align: 1
  Segment part 230.           Intra module refs:   Segment part 34
           ENTRY                   ADDRESS         REF BY
           =====                   =======         ======
           macAssocDataReq         995A 
               calls direct
               CSTACK = 00000000 ( 00000012 )
    -------------------------------------------------------------------------
<CODE> 1 (was CODE)
  Relative segment, address: 9990 - 9997 (0x8 bytes), align: 1
  Segment part 231.           Intra module refs:   macApiPollReq
                                                   macAssocDataReq
    -------------------------------------------------------------------------
<CODE> 1 (was CODE)
  Relative segment, address: 9998 - 99E5 (0x4e bytes), align: 1
  Segment part 232.           Intra module refs:   macApiAssociateReq
           LOCAL                   ADDRESS         
           =====                   =======         
           macBuildAssociateReq    9998 
               calls direct
               CSTACK = 00000000 ( 00000012 )
    -------------------------------------------------------------------------
<CODE> 1 (was CODE)
  Relative segment, address: 99E6 - 99F7 (0x12 bytes), align: 1
  Segment part 233.           Intra module refs:   Segment part 176
                                                   macBuildAssociateReq
    -------------------------------------------------------------------------
<CODE> 1 (was CODE)
  Relative segment, address: 99F8 - 9A83 (0x8c bytes), align: 1
  Segment part 234.           Intra module refs:   Segment part 34
           ENTRY                   ADDRESS         REF BY
           =====                   =======         ======
           macApiAssociateReq      99F8 
               calls direct
               CSTACK = 00000000 ( 00000006 )
    -------------------------------------------------------------------------
<CODE> 1 (was CODE)
  Relative segment, address: 9A84 - 9A8B (0x8 bytes), align: 1
  Segment part 235.           Intra module refs:   macApiAssociateReq
                                                   macScanRxCoordRealign
    -------------------------------------------------------------------------
<CODE> 1 (was CODE)
  Relative segment, address: 9A8C - 9A93 (0x8 bytes), align: 1
  Segment part 236.           Intra module refs:   macApiAssociateReq
                                                   macScanComplete
                                                   macScanNextChan
                                                   macScanRxCoordRealign
    -------------------------------------------------------------------------
<CODE> 1 (was CODE)
  Relative segment, address: 9A94 - 9A9B (0x8 bytes), align: 1
  Segment part 237.           Intra module refs:   macApiAssociateReq
                                                   macApiScanReq
                                                   macBuildAssociateReq
                                                   macRxAssocRsp
    -------------------------------------------------------------------------
<CODE> 1 (was CODE)
  Relative segment, address: 9A9C - 9AA3 (0x8 bytes), align: 1
  Segment part 238.           Intra module refs:   macApiAssociateReq
                                                   macCommStatusInd
    -------------------------------------------------------------------------
<CODE> 1 (was CODE)
  Relative segment, address: 9AA4 - 9AD1 (0x2e bytes), align: 1
  Segment part 239.           Intra module refs:   Segment part 34
           ENTRY                   ADDRESS         REF BY
           =====                   =======         ======
           macStartFrameResponseTimer
                                   9AA4 
               calls direct
               CSTACK = 00000000 ( 0000003E )
    -------------------------------------------------------------------------
<CODE> 1 (was CODE)
  Relative segment, address: 9AD2 - 9AE1 (0x10 bytes), align: 1
  Segment part 240.           Intra module refs:   Segment part 34
           ENTRY                   ADDRESS         REF BY
           =====                   =======         ======
           macStartResponseTimer   9AD2 
               calls direct
               CSTACK = 00000000 ( 00000004 )
    -------------------------------------------------------------------------
<CODE> 1 (was CODE)
  Relative segment, address: 9AE2 - 9AE7 (0x6 bytes), align: 1
  Segment part 241.           Intra module refs:   macScanStartTimer
                                                   macStartResponseTimer
    -------------------------------------------------------------------------
<CODE> 1 (was CODE)
  Relative segment, address: 9AE8 - 9AF1 (0xa bytes), align: 1
  Segment part 242.           Intra module refs:   Segment part 241
                                                   macScanStartTimer
    -------------------------------------------------------------------------
<CODE> 1 (was CODE)
  Relative segment, address: 9AF2 - 9B1B (0x2a bytes), align: 1
  Segment part 243.           Intra module refs:   MAC_InitDevice
           ENTRY                   ADDRESS         REF BY
           =====                   =======         ======
           macDeviceReset          9AF2 
               CSTACK = 00000000 ( 00000004 )
    -------------------------------------------------------------------------
<CODE> 1 (was CODE)
  Relative segment, address: 9B1C - 9B43 (0x28 bytes), align: 1
  Segment part 244.
           ENTRY                   ADDRESS         REF BY
           =====                   =======         ======
           MAC_McpsDataAlloc       9B1C            ZMacDataReqSec (zmac)
               calls direct
               CSTACK = 00000000 ( 00000006 )
    -------------------------------------------------------------------------
<CODE> 1 (was CODE)
  Relative segment, address: 9B44 - 9B6D (0x2a bytes), align: 1
  Segment part 245.
           ENTRY                   ADDRESS         REF BY
           =====                   =======         ======
           MAC_McpsDataReq         9B44            ZMacDataReqSec (zmac)
               calls direct
               CSTACK = 00000000 ( 00000004 )
    -------------------------------------------------------------------------
<CODE> 1 (was CODE)
  Relative segment, address: 9B6E - 9B99 (0x2c bytes), align: 1
  Segment part 246.           Intra module refs:   macApiDataReq
           ENTRY                   ADDRESS         REF BY
           =====                   =======         ======
           macBuildDataFrame       9B6E 
               calls direct
               CSTACK = 00000000 ( 00000006 )
    -------------------------------------------------------------------------
<CODE> 1 (was CODE)
  Relative segment, address: 9B9A - 9BE5 (0x4c bytes), align: 1
  Segment part 247.           Intra module refs:   macMgmtAction1
           ENTRY                   ADDRESS         REF BY
           =====                   =======         ======
           macApiDataReq           9B9A 
               calls direct
               CSTACK = 00000000 ( 00000004 )
    -------------------------------------------------------------------------
<CODE> 1 (was CODE)
  Relative segment, address: 9BE6 - 9BE9 (0x4 bytes), align: 1
  Segment part 248.           Intra module refs:   macMgmtAction1
           ENTRY                   ADDRESS         REF BY
           =====                   =======         ======
           macDataSend             9BE6 
               calls direct
               CSTACK = 00000000 ( 00000004 )
    -------------------------------------------------------------------------
<CODE> 1 (was CODE)
  Relative segment, address: 9BEA - 9C7F (0x96 bytes), align: 1
  Segment part 249.
           ENTRY                   ADDRESS         REF BY
           =====                   =======         ======
           macTxCompleteCallback   9BEA            txComplete (mac_tx)
               calls direct and indirect
               CSTACK = 00000000 ( 00000006 )
    -------------------------------------------------------------------------
<CODE> 1 (was CODE)
  Relative segment, address: 9C80 - 9C8F (0x10 bytes), align: 1
  Segment part 250.           Intra module refs:   MAC_MlmeResetReq
                                                   macTxCompleteCallback
    -------------------------------------------------------------------------
<CODE> 1 (was CODE)
  Relative segment, address: 9C90 - 9C95 (0x6 bytes), align: 1
  Segment part 251.           Intra module refs:   Segment part 28
           ENTRY                   ADDRESS         REF BY
           =====                   =======         ======
           macSetSched             9C90 
               CSTACK = 00000000 ( 00000004 )
    -------------------------------------------------------------------------
<CODE> 1 (was CODE)
  Relative segment, address: 9C96 - 9CA1 (0xc bytes), align: 1
  Segment part 252.           Intra module refs:   Segment part 30
           ENTRY                   ADDRESS         REF BY
           =====                   =======         ======
           macCheckSched           9C96 
               calls direct
               CSTACK = 00000000 ( 00000004 )
    -------------------------------------------------------------------------
<CODE> 1 (was CODE)
  Relative segment, address: 9CA2 - 9CA7 (0x6 bytes), align: 1
  Segment part 253.           Intra module refs:   macCheckSched
    -------------------------------------------------------------------------
<CODE> 1 (was CODE)
  Relative segment, address: 9CA8 - 9CBB (0x14 bytes), align: 1
  Segment part 254.
           ENTRY                   ADDRESS         REF BY
           =====                   =======         ======
           macDataTxTimeAvailable
                                   9CA8            txCsmaGo (mac_tx)
               calls indirect
               CSTACK = 00000000 ( 00000004 )
    -------------------------------------------------------------------------
<CODE> 1 (was CODE)
  Relative segment, address: 9CBC - 9D8D (0xd2 bytes), align: 1
  Segment part 255.
           ENTRY                   ADDRESS         REF BY
           =====                   =======         ======
           macRxCompleteCallback   9CBC            rxFcsIsr (mac_rx)
               calls direct and indirect
               CSTACK = 00000000 ( 00000006 )
    -------------------------------------------------------------------------
<CODE> 1 (was CODE)
  Relative segment, address: 9D8E - 9D95 (0x8 bytes), align: 1
  Segment part 256.
           ENTRY                   ADDRESS         REF BY
           =====                   =======         ======
           macDataRxMemFree        9D8E            rxFcsIsr (mac_rx)
                                                   rxHaltCleanupFinalStep (mac_rx)
               calls direct
               CSTACK = 00000000 ( 00000004 )
    -------------------------------------------------------------------------
<CODE> 1 (was CODE)
  Relative segment, address: 9D96 - 9DA5 (0x10 bytes), align: 1
  Segment part 257.
           ENTRY                   ADDRESS         REF BY
           =====                   =======         ======
           macDataRxMemAlloc       9D96            rxStartIsr (mac_rx)
               calls direct
               CSTACK = 00000000 ( 00000004 )
    -------------------------------------------------------------------------
<CODE> 1 (was CODE)
  Relative segment, address: 9DA6 - 9DCD (0x28 bytes), align: 1
  Segment part 258.
           ENTRY                   ADDRESS         REF BY
           =====                   =======         ======
           macRxCheckMACPendingCallback
                                   9DA6            rxStartIsr (mac_rx)
               CSTACK = 00000000 ( 00000004 )
    -------------------------------------------------------------------------
<CODE> 1 (was CODE)
  Relative segment, address: 9DCE - 9DE7 (0x1a bytes), align: 1
  Segment part 259.
           ENTRY                   ADDRESS         REF BY
           =====                   =======         ======
           macRxCheckPendingCallback
                                   9DCE            rxStartIsr (mac_rx)
               calls direct
               CSTACK = 00000000 ( 00000004 )
    -------------------------------------------------------------------------
<CODE> 1 (was CODE)
  Relative segment, address: 9DE8 - 9DEF (0x8 bytes), align: 1
  Segment part 270.           Intra module refs:   Segment part 277
                                                   macBuildCommonReq
                                                   macSendDataMsg
    -------------------------------------------------------------------------
<CODE> 1 (was CODE)
  Relative segment, address: 9DF0 - 9DF3 (0x4 bytes), align: 1
  Segment part 277.           Intra module refs:   macBuildAssociateReq
    -------------------------------------------------------------------------
<CODE> 1 (was CODE)
  Relative segment, address: 9DF4 - 9DFB (0x8 bytes), align: 1
  Segment part 285.           Intra module refs:   macBuildAssociateReq
    -------------------------------------------------------------------------
<CODE> 1 (was CODE)
  Relative segment, address: 9DFC - 9E05 (0xa bytes), align: 1
  Segment part 286.           Intra module refs:   macBuildDisassociateReq
    -------------------------------------------------------------------------
<CODE> 1 (was CODE)
  Relative segment, address: 9E06 - 9E09 (0x4 bytes), align: 1
  Segment part 292.           Intra module refs:   macDataTxSend
    -------------------------------------------------------------------------
<CODE> 1 (was CODE)
  Relative segment, address: 9E0A - 9E11 (0x8 bytes), align: 1
  Segment part 293.           Intra module refs:   Segment part 292
    -------------------------------------------------------------------------
<CODE> 1 (was CODE)
  Relative segment, address: 9E12 - 9E1F (0xe bytes), align: 1
  Segment part 297.           Intra module refs:   macStartFrameResponseTimer
    -------------------------------------------------------------------------
<CODE> 1 (was CODE)
  Relative segment, address: 9E20 - 9E2B (0xc bytes), align: 1
  Segment part 299.           Intra module refs:   Segment part 297
    -------------------------------------------------------------------------
<CODE> 1 (was CODE)
  Relative segment, address: 9E2C - 9E33 (0x8 bytes), align: 1
  Segment part 300.           Intra module refs:   macRxCompleteCallback
                                                   macStartFrameResponseTimer
    -------------------------------------------------------------------------
<CODE> 1 (was CODE)
  Relative segment, address: 9E34 - 9E39 (0x6 bytes), align: 1
  Segment part 306.           Intra module refs:   macApiPollReq
                                                   macAssocDataReq
    -------------------------------------------------------------------------
<CODE> 1 (was CODE)
  Relative segment, address: 9E3A - 9E3F (0x6 bytes), align: 1
  Segment part 337.           Intra module refs:   macScanNextChan
                                                   macScanRxBeacon
                                                   macScanRxCoordRealign
    -------------------------------------------------------------------------
<CODE> 1 (was CODE)
  Relative segment, address: 9E40 - 9E45 (0x6 bytes), align: 1
  Segment part 338.           Intra module refs:   Segment part 150
                                                   Segment part 337
                                                   macApiDisassociateReq
                                                   macAssocDataReqComplete
                                                   macAssocDataRxInd
    -------------------------------------------------------------------------
DATA16_ID
  Relative segment, address: 3918 - 3937 (0x20 bytes), align: 1
  Segment part 3.             Intra module refs:   macBeaconMargin
    -------------------------------------------------------------------------
DATA16_ID
  Relative segment, address: 3938 - 393B (0x4 bytes), align: 1
  Segment part 20.            Intra module refs:   macDataTxIndirect
    -------------------------------------------------------------------------
DATA16_ID
  Relative segment, address: 393C - 393F (0x4 bytes), align: 1
  Segment part 22.            Intra module refs:   macDataRequeueIndirect
    -------------------------------------------------------------------------
DATA16_ID
  Relative segment, address: 3940 - 3943 (0x4 bytes), align: 1
  Segment part 24.            Intra module refs:   macDataRxBeaconCritical
    -------------------------------------------------------------------------
DATA16_ID
  Relative segment, address: 3944 - 3947 (0x4 bytes), align: 1
  Segment part 26.            Intra module refs:   macDataTxBeaconComplete
    -------------------------------------------------------------------------
DATA16_ID
  Relative segment, address: 3948 - 394B (0x4 bytes), align: 1
  Segment part 28.            Intra module refs:   macDataSetSched
    -------------------------------------------------------------------------
DATA16_ID
  Relative segment, address: 394C - 394F (0x4 bytes), align: 1
  Segment part 30.            Intra module refs:   macDataCheckSched
    -------------------------------------------------------------------------
DATA16_ID
  Relative segment, address: 3950 - 3953 (0x4 bytes), align: 1
  Segment part 33.            Intra module refs:   macDataBeaconRequeue
    -------------------------------------------------------------------------
DATA16_ID
  Relative segment, address: 3954 - 395D (0xa bytes), align: 1
  Segment part 48.            Intra module refs:   macStateTbl
    -------------------------------------------------------------------------
DATA16_ID
  Relative segment, address: 395E - 3961 (0x4 bytes), align: 1
  Segment part 68.            Intra module refs:   Segment part 67
    -------------------------------------------------------------------------
DATA16_ID
  Relative segment, address: 3962 - 3965 (0x4 bytes), align: 1
  Segment part 70.            Intra module refs:   Segment part 69

    *************************************************************************

  FILE NAME : C:\Texas Instruments\ZStack-MSP2618-2.5.1\Projects\zstack\HomeAutomation\SampleSwitch\CC2520DB\EndDevice\Obj\AF.r43
  PROGRAM MODULE, NAME : AF

  SEGMENTS IN THE MODULE
  ======================
DATA16_Z
  Relative segment, address: 13AE - 13AF (0x2 bytes), align: 1
  Segment part 2.             Intra module refs:   AF_DataRequest
                                                   afEndPoints
                                                   afFindEndPointDescList
                                                   afIncomingData
                                                   afNumEndPoints
                                                   afRegisterExtended
           ENTRY                   ADDRESS         REF BY
           =====                   =======         ======
           epList                  13AE            ZDO_ProcessMatchDescReq (ZDObject)
                                                   ZDO_UpdateNwkStatus (ZDObject)
    -------------------------------------------------------------------------
<CODE> 3 (was CODE)
  Relative segment, address: 00013BD6 - 00013C11 (0x3c bytes), align: 1
  Segment part 26.            Intra module refs:   afRegister
           ENTRY                   ADDRESS         REF BY
           =====                   =======         ======
           afRegisterExtended      00013BD6 
               calls direct
               CSTACK = 00000000 ( 0000000C )
    -------------------------------------------------------------------------
<CODE> 3 (was CODE)
  Relative segment, address: 00014698 - 000146BF (0x28 bytes), align: 1
  Segment part 25.
           ENTRY                   ADDRESS         REF BY
           =====                   =======         ======
           afRegister              00014698        ZDApp_Init (ZDApp)
                                                   zclHA_Init (zcl_ha)
                                                   zclSampleSw_Init (zcl_samplesw)
               calls direct
               CSTACK = 00000000 ( 00000004 )
    -------------------------------------------------------------------------
<CODE> 3 (was CODE)
  Relative segment, address: 00013EFE - 00013F35 (0x38 bytes), align: 1
  Segment part 22.            Intra module refs:   AF_DataRequest
           ENTRY                   ADDRESS         REF BY
           =====                   =======         ======
           afDataConfirm           00013EFE        APSDE_DataCnf (APS)
                                                   APSDE_DataConfirm (APS)
                                                   Segment part 626 (APS)
               calls direct
               CSTACK = 00000000 ( 0000000C )
    -------------------------------------------------------------------------
<CODE> 3 (was CODE)
  Relative segment, address: 000156C8 - 000156D1 (0xa bytes), align: 1
  Segment part 23.            Intra module refs:   afBuildMSGIncoming
                                                   afDataConfirm
           LOCAL                   ADDRESS         
           =====                   =======         
           ?Subroutine0            000156C8 
    -------------------------------------------------------------------------
<CODE> 3 (was CODE)
  Relative segment, address: 000103CC - 000104E7 (0x11c bytes), align: 1
  Segment part 19.
           ENTRY                   ADDRESS         REF BY
           =====                   =======         ======
           afIncomingData          000103CC        APS_event_loop (APS)
               calls direct and indirect
               CSTACK = 00000000 ( 00000024 )
    -------------------------------------------------------------------------
<CODE> 3 (was CODE)
  Relative segment, address: 000155F6 - 000155FF (0xa bytes), align: 1
  Segment part 20.            Intra module refs:   afIncomingData
           LOCAL                   ADDRESS         
           =====                   =======         
           ?Subroutine2            000155F6 
    -------------------------------------------------------------------------
<CODE> 3 (was CODE)
  Relative segment, address: 00015462 - 0001546F (0xe bytes), align: 1
  Segment part 21.            Intra module refs:   afIncomingData
           LOCAL                   ADDRESS         
           =====                   =======         
           ?Subroutine1            00015462 
    -------------------------------------------------------------------------
<CODE> 3 (was CODE)
  Relative segment, address: 0001128A - 0001134B (0xc2 bytes), align: 1
  Segment part 18.            Intra module refs:   afIncomingData
           LOCAL                   ADDRESS         
           =====                   =======         
           afBuildMSGIncoming      0001128A 
               calls direct
               CSTACK = 00000000 ( 00000018 )
    -------------------------------------------------------------------------
DATA16_I
  Relative segment, address: 11F8 - 11F8 (0x1 bytes), align: 0
  Segment part 3.             Intra module refs:   AF_DataRequest
           ENTRY                   ADDRESS         REF BY
           =====                   =======         ======
           AF_DataRequestDiscoverRoute
                                   11F8 
    -------------------------------------------------------------------------
<CODE> 1 (was CODE)
  Relative segment, address: DFD4 - E187 (0x1b4 bytes), align: 1
  Segment part 17.
           ENTRY                   ADDRESS         REF BY
           =====                   =======         ======
           AF_DataRequest          DFD4            fillAndSend (ZDProfile)
                                                   zcl_SendCommand (zcl)
               calls direct and indirect
               CSTACK = 00000000 ( 00000036 )
    -------------------------------------------------------------------------
<CODE> 3 (was CODE)
  Relative segment, address: 00014E28 - 00014E41 (0x1a bytes), align: 1
  Segment part 15.            Intra module refs:   afAPSF_ConfigGet
                                                   afFindEndPointDesc
                                                   afFindSimpleDesc
                                                   afIncomingData
                                                   afRegister
           LOCAL                   ADDRESS         
           =====                   =======         
           afFindEndPointDescList
                                   00014E28 
               CSTACK = 00000000 ( 00000004 )
    -------------------------------------------------------------------------
<CODE> 3 (was CODE)
  Relative segment, address: 00015208 - 00015219 (0x12 bytes), align: 1
  Segment part 14.            Intra module refs:   ?Subroutine2
                                                   afDataConfirm
           ENTRY                   ADDRESS         REF BY
           =====                   =======         ======
           afFindEndPointDesc      00015208        APSF_AllocRxObj (APS)
                                                   zclProcessMessageMSG (zcl)
                                                   zcl_SendCommand (zcl)
               calls direct
               CSTACK = 00000000 ( 00000004 )
    -------------------------------------------------------------------------
<CODE> 3 (was CODE)
  Relative segment, address: 000137A8 - 000137EF (0x48 bytes), align: 1
  Segment part 13.
           ENTRY                   ADDRESS         REF BY
           =====                   =======         ======
           afFindSimpleDesc        000137A8        ZDO_ProcessSimpleDescReq (ZDObject)
               calls direct and indirect
               CSTACK = 00000000 ( 0000000C )
    -------------------------------------------------------------------------
<CODE> 3 (was CODE)
  Relative segment, address: 00014F12 - 00014F2B (0x1a bytes), align: 1
  Segment part 12.            Intra module refs:   AF_DataRequest
           ENTRY                   ADDRESS         REF BY
           =====                   =======         ======
           afDataReqMTU            00014F12        APSF_SendFragmented (APS)
               calls direct
               CSTACK = 00000000 ( 00000006 )
    -------------------------------------------------------------------------
<CODE> 3 (was CODE)
  Relative segment, address: 00015178 - 00015189 (0x12 bytes), align: 1
  Segment part 9.
           ENTRY                   ADDRESS         REF BY
           =====                   =======         ======
           afNumEndPoints          00015178        ZDO_ProcessActiveEPReq (ZDObject)
               CSTACK = 00000000 ( 00000004 )
    -------------------------------------------------------------------------
<CODE> 3 (was CODE)
  Relative segment, address: 00014A38 - 00014A59 (0x22 bytes), align: 1
  Segment part 8.
           ENTRY                   ADDRESS         REF BY
           =====                   =======         ======
           afEndPoints             00014A38        ZDO_ProcessActiveEPReq (ZDObject)
               CSTACK = 00000000 ( 00000004 )
    -------------------------------------------------------------------------
<CODE> 3 (was CODE)
  Relative segment, address: 00014946 - 00014969 (0x24 bytes), align: 1
  Segment part 7.             Intra module refs:   afBuildMSGIncoming
           ENTRY                   ADDRESS         REF BY
           =====                   =======         ======
           afCopyAddress           00014946        APSF_AllocRxObj (APS)
               calls direct
               CSTACK = 00000000 ( 00000006 )
    -------------------------------------------------------------------------
<CODE> 3 (was CODE)
  Relative segment, address: 000145F8 - 0001461F (0x28 bytes), align: 1
  Segment part 6.
           ENTRY                   ADDRESS         REF BY
           =====                   =======         ======
           afAPSF_ConfigGet        000145F8        APSF_AllocRxObj (APS)
                                                   APSF_SendFragmented (APS)
               calls direct
               CSTACK = 00000000 ( 00000006 )
    -------------------------------------------------------------------------
DATA16_ID
  Relative segment, address: 3A10 - 3A10 (0x1 bytes), align: 0
  Segment part 4.             Intra module refs:   AF_DataRequestDiscoverRoute

    *************************************************************************

  FILE NAME : C:\Texas Instruments\ZStack-MSP2618-2.5.1\Projects\zstack\HomeAutomation\SampleSwitch\CC2520DB\EndDevice\Obj\BindingTable.r43
  PROGRAM MODULE, NAME : BindingTable

  SEGMENTS IN THE MODULE
  ======================
DATA16_Z
  Relative segment, address: 19B7 - 19B7 (0x1 bytes), align: 0
  Segment part 2.             Intra module refs:   InitBindingTable
                                                   bindAddrMgrLocalLoad
           LOCAL                   ADDRESS         
           =====                   =======         
           bindAddrMgrLocalLoaded
                                   19B7 
    -------------------------------------------------------------------------
DATA16_Z
  Relative segment, address: 13B0 - 13B3 (0x4 bytes), align: 1
  Segment part 3.             Intra module refs:   InitBindingTable
           ENTRY                   ADDRESS         REF BY
           =====                   =======         ======
           pbindAddEntry           13B0            APSME_BindRequest (APS)
    -------------------------------------------------------------------------
DATA16_Z
  Relative segment, address: 13B4 - 13B7 (0x4 bytes), align: 1
  Segment part 4.             Intra module refs:   InitBindingTable
           ENTRY                   ADDRESS         REF BY
           =====                   =======         ======
           pbindNumOfEntries       13B4 
    -------------------------------------------------------------------------
DATA16_Z
  Relative segment, address: 13B8 - 13BB (0x4 bytes), align: 1
  Segment part 5.             Intra module refs:   InitBindingTable
           ENTRY                   ADDRESS         REF BY
           =====                   =======         ======
           pbindRemoveDev          13B8            ZDApp_LeaveUpdate (ZDApp)
    -------------------------------------------------------------------------
DATA16_Z
  Relative segment, address: 13BC - 13BF (0x4 bytes), align: 1
  Segment part 6.             Intra module refs:   InitBindingTable
           ENTRY                   ADDRESS         REF BY
           =====                   =======         ======
           pBindInitNV             13BC 
    -------------------------------------------------------------------------
DATA16_Z
  Relative segment, address: 13C0 - 13C3 (0x4 bytes), align: 1
  Segment part 7.             Intra module refs:   InitBindingTable
           ENTRY                   ADDRESS         REF BY
           =====                   =======         ======
           pBindSetDefaultNV       13C0 
    -------------------------------------------------------------------------
DATA16_Z
  Relative segment, address: 13C4 - 13C7 (0x4 bytes), align: 1
  Segment part 8.             Intra module refs:   InitBindingTable
           ENTRY                   ADDRESS         REF BY
           =====                   =======         ======
           pBindRestoreFromNV      13C4 
    -------------------------------------------------------------------------
DATA16_Z
  Relative segment, address: 13C8 - 13CB (0x4 bytes), align: 1
  Segment part 9.             Intra module refs:   InitBindingTable
           ENTRY                   ADDRESS         REF BY
           =====                   =======         ======
           pBindWriteNV            13C8 
    -------------------------------------------------------------------------
<CODE> 3 (was CODE)
  Relative segment, address: 00012710 - 0001277F (0x70 bytes), align: 1
  Segment part 42.
           ENTRY                   ADDRESS         REF BY
           =====                   =======         ======
           InitBindingTable        00012710        APS_ReflectorInit (APS)
               calls direct
               CSTACK = 00000000 ( 00000006 )
    -------------------------------------------------------------------------
<CODE> 3 (was CODE)
  Relative segment, address: 00015298 - 000152A9 (0x12 bytes), align: 1
  Segment part 43.            Intra module refs:   BindInitNV
                                                   InitBindingTable
           LOCAL                   ADDRESS         
           =====                   =======         
           ?Subroutine5            00015298 
    -------------------------------------------------------------------------
<CODE> 3 (was CODE)
  Relative segment, address: 000149F4 - 00014A15 (0x22 bytes), align: 1
  Segment part 41.            Intra module refs:   bindAddEntry
           ENTRY                   ADDRESS         REF BY
           =====                   =======         ======
           bindFindEmpty           000149F4 
               CSTACK = 00000000 ( 00000004 )
    -------------------------------------------------------------------------
<CODE> 3 (was CODE)
  Relative segment, address: 00014A9E - 00014ABF (0x22 bytes), align: 1
  Segment part 40.            Intra module refs:   InitBindingTable
           ENTRY                   ADDRESS         REF BY
           =====                   =======         ======
           bindNumOfEntries        00014A9E 
               CSTACK = 00000000 ( 00000004 )
    -------------------------------------------------------------------------
<CODE> 3 (was CODE)
  Relative segment, address: 00011102 - 000111C7 (0xc6 bytes), align: 1
  Segment part 38.            Intra module refs:   InitBindingTable
           ENTRY                   ADDRESS         REF BY
           =====                   =======         ======
           bindAddEntry            00011102 
               calls direct
               CSTACK = 00000000 ( 00000014 )
    -------------------------------------------------------------------------
<CODE> 3 (was CODE)
  Relative segment, address: 000154EE - 000154FB (0xe bytes), align: 1
  Segment part 37.            Intra module refs:   bindRemoveDev
           ENTRY                   ADDRESS         REF BY
           =====                   =======         ======
           bindRemoveEntry         000154EE        APS_UnBind (APS)
               calls direct
               CSTACK = 00000000 ( 00000004 )
    -------------------------------------------------------------------------
<CODE> 3 (was CODE)
  Relative segment, address: 000144FC - 00014525 (0x2a bytes), align: 1
  Segment part 36.            Intra module refs:   bindAddEntry
                                                   bindFind
                                                   bindNumReflections
           ENTRY                   ADDRESS         REF BY
           =====                   =======         ======
           bindIsClusterIDinList   000144FC        APS_UnBind (APS)
               CSTACK = 00000000 ( 00000006 )
    -------------------------------------------------------------------------
<CODE> 3 (was CODE)
  Relative segment, address: 000136CA - 00013715 (0x4c bytes), align: 1
  Segment part 35.
           ENTRY                   ADDRESS         REF BY
           =====                   =======         ======
           bindRemoveClusterIdFromList
                                   000136CA        APS_UnBind (APS)
               CSTACK = 00000000 ( 0000000C )
    -------------------------------------------------------------------------
<CODE> 3 (was CODE)
  Relative segment, address: 0001496A - 0001498D (0x24 bytes), align: 1
  Segment part 34.            Intra module refs:   bindAddEntry
           ENTRY                   ADDRESS         REF BY
           =====                   =======         ======
           bindAddClusterIdToList
                                   0001496A 
               CSTACK = 00000000 ( 00000004 )
    -------------------------------------------------------------------------
<CODE> 3 (was CODE)
  Relative segment, address: 00012B4E - 00012BB5 (0x68 bytes), align: 1
  Segment part 33.
           ENTRY                   ADDRESS         REF BY
           =====                   =======         ======
           bindFindExisting        00012B4E        APS_UnBind (APS)
               calls direct
               CSTACK = 00000000 ( 0000000C )
    -------------------------------------------------------------------------
<CODE> 3 (was CODE)
  Relative segment, address: 000131AA - 00013201 (0x58 bytes), align: 1
  Segment part 32.            Intra module refs:   InitBindingTable
           ENTRY                   ADDRESS         REF BY
           =====                   =======         ======
           bindRemoveDev           000131AA 
               calls direct
               CSTACK = 00000000 ( 0000000C )
    -------------------------------------------------------------------------
<CODE> 3 (was CODE)
  Relative segment, address: 00013FDC - 00014011 (0x36 bytes), align: 1
  Segment part 29.
           ENTRY                   ADDRESS         REF BY
           =====                   =======         ======
           bindNumReflections      00013FDC        APS_DataIndReflect (APS)
               calls direct
               CSTACK = 00000000 ( 0000000C )
    -------------------------------------------------------------------------
<CODE> 2 (was CODE)
  Relative segment, address: FF7C - FFBD (0x42 bytes), align: 1
  Segment part 28.
           ENTRY                   ADDRESS         REF BY
           =====                   =======         ======
           bindFind                FF7C            APS_DataIndReflect (APS)
               calls direct
               CSTACK = 00000000 ( 00000010 )
    -------------------------------------------------------------------------
<CODE> 3 (was CODE)
  Relative segment, address: 0001444C - 00014477 (0x2c bytes), align: 1
  Segment part 27.            Intra module refs:   InitBindingTable
           ENTRY                   ADDRESS         REF BY
           =====                   =======         ======
           BindInitNV              0001444C 
               calls direct
               CSTACK = 00000000 ( 00000008 )
    -------------------------------------------------------------------------
<CODE> 3 (was CODE)
  Relative segment, address: 0001549A - 000154A7 (0xe bytes), align: 1
  Segment part 25.            Intra module refs:   BindInitNV
                                                   InitBindingTable
           ENTRY                   ADDRESS         REF BY
           =====                   =======         ======
           BindSetDefaultNV        0001549A 
               calls direct
               CSTACK = 00000000 ( 00000006 )
    -------------------------------------------------------------------------
<CODE> 3 (was CODE)
  Relative segment, address: 000153A8 - 000153B7 (0x10 bytes), align: 1
  Segment part 26.            Intra module refs:   BindSetDefaultNV
                                                   BindWriteNV
           LOCAL                   ADDRESS         
           =====                   =======         
           ?Subroutine1            000153A8 
    -------------------------------------------------------------------------
<CODE> 3 (was CODE)
  Relative segment, address: 00013306 - 0001335B (0x56 bytes), align: 1
  Segment part 24.            Intra module refs:   InitBindingTable
           ENTRY                   ADDRESS         REF BY
           =====                   =======         ======
           BindRestoreFromNV       00013306 
               calls direct
               CSTACK = 00000000 ( 0000000C )
    -------------------------------------------------------------------------
<CODE> 3 (was CODE)
  Relative segment, address: 00012780 - 000127ED (0x6e bytes), align: 1
  Segment part 23.            Intra module refs:   InitBindingTable
           ENTRY                   ADDRESS         REF BY
           =====                   =======         ======
           BindWriteNV             00012780 
               calls direct
               CSTACK = 00000000 ( 0000001E )
    -------------------------------------------------------------------------
<CODE> 3 (was CODE)
  Relative segment, address: 000104E8 - 0001052D (0x46 bytes), align: 1
  Segment part 11.            Intra module refs:   bindAddEntry
           ENTRY                   ADDRESS         REF BY
           =====                   =======         ======
           bindAddrIndexGet        000104E8 
               calls direct
               CSTACK = 00000000 ( 00000014 )
    -------------------------------------------------------------------------
<CODE> 3 (was CODE)
  Relative segment, address: 0001052E - 00010531 (0x4 bytes), align: 1
  Segment part 12.            Intra module refs:   bindAddrIndexGet
                                                   bindingAddrMgsHelperFind
           LOCAL                   ADDRESS         
           =====                   =======         
           ?Subroutine0            0001052E 
    -------------------------------------------------------------------------
<CODE> 3 (was CODE)
  Relative segment, address: 00010532 - 00010539 (0x8 bytes), align: 1
  Segment part 13.            Intra module refs:   ?Subroutine0
                                                   bindAddrMgrLocalLoad
    -------------------------------------------------------------------------
<CODE> 3 (was CODE)
  Relative segment, address: 0001053A - 00010587 (0x4e bytes), align: 1
  Segment part 14.            Intra module refs:   bindAddEntry
           ENTRY                   ADDRESS         REF BY
           =====                   =======         ======
           bindAddrMgrLocalLoad    0001053A 
               calls direct
               CSTACK = 00000000 ( 00000014 )
    -------------------------------------------------------------------------
<CODE> 3 (was CODE)
  Relative segment, address: 00010588 - 00010599 (0x12 bytes), align: 1
  Segment part 15.
           ENTRY                   ADDRESS         REF BY
           =====                   =======         ======
           bindingAddrMgsHelperConvertShort
                                   00010588        APS_DataIndReflect (APS)
               calls direct
               CSTACK = 00000000 ( 00000012 )
    -------------------------------------------------------------------------
<CODE> 3 (was CODE)
  Relative segment, address: 0001059A - 000105C5 (0x2c bytes), align: 1
  Segment part 16.
           ENTRY                   ADDRESS         REF BY
           =====                   =======         ======
           bindingAddrMgsHelperConvert
                                   0001059A        APS_GetBind (APS)
               calls direct
               CSTACK = 00000000 ( 00000016 )
    -------------------------------------------------------------------------
<CODE> 3 (was CODE)
  Relative segment, address: 000105C6 - 000105D5 (0x10 bytes), align: 1
  Segment part 17.            Intra module refs:   bindingAddrMgsHelperConvert
                                                   bindingAddrMgsHelperConvertShort
           LOCAL                   ADDRESS         
           =====                   =======         
           ?Subroutine2            000105C6 
    -------------------------------------------------------------------------
<CODE> 3 (was CODE)
  Relative segment, address: 000105D6 - 000105F5 (0x20 bytes), align: 1
  Segment part 18.            Intra module refs:   bindFindExisting
                                                   bindRemoveDev
           ENTRY                   ADDRESS         REF BY
           =====                   =======         ======
           bindingAddrMgsHelperFind
                                   000105D6 
               calls direct
               CSTACK = 00000000 ( 00000014 )
    -------------------------------------------------------------------------
<CODE> 3 (was CODE)
  Relative segment, address: 00015678 - 00015681 (0xa bytes), align: 1
  Segment part 19.            Intra module refs:   bindAddrIndexGet
                                                   bindingAddrMgsHelperFind
           LOCAL                   ADDRESS         
           =====                   =======         
           ?Subroutine4            00015678 
    -------------------------------------------------------------------------
<CODE> 3 (was CODE)
  Relative segment, address: 000156EA - 000156F1 (0x8 bytes), align: 1
  Segment part 20.            Intra module refs:   bindAddrIndexGet
                                                   bindingAddrMgsHelperFind
           LOCAL                   ADDRESS         
           =====                   =======         
           ?Subroutine3            000156EA 
    -------------------------------------------------------------------------
<CODE> 3 (was CODE)
  Relative segment, address: 000154FC - 00015509 (0xe bytes), align: 1
  Segment part 21.            Intra module refs:   ?Subroutine3
                                                   bindAddrMgrLocalLoad
           LOCAL                   ADDRESS         
           =====                   =======         
           ?Subroutine6            000154FC 
    -------------------------------------------------------------------------
<CODE> 3 (was CODE)
  Relative segment, address: 000141BA - 000141EB (0x32 bytes), align: 1
  Segment part 10.
           ENTRY                   ADDRESS         REF BY
           =====                   =======         ======
           GetBindingTableEntry    000141BA        APS_GetBind (APS)
               CSTACK = 00000000 ( 00000008 )

    *************************************************************************

  FILE NAME : C:\Texas Instruments\ZStack-MSP2618-2.5.1\Projects\zstack\HomeAutomation\SampleSwitch\CC2520DB\EndDevice\Obj\DCO_calibrate.r43
  LIBRARY MODULE, NAME : DCO_Library

Absolute parts
           LOCAL                   ADDRESS         
           =====                   =======         
           __MSP430F2619__         0000 
  SEGMENTS IN THE MODULE
  ======================
<CODE> 3 (was CODE)
  Relative segment, address: 00010F66 - 00011035 (0xd0 bytes), align: 1
  Segment part 0. ROOT.
           ENTRY                   ADDRESS         REF BY
           =====                   =======         ======
           TI_SetDCO               00010F66        halAssertHazardLights (hal_assert)
                                                   main (ZMain)
           LOCAL                   ADDRESS         
           =====                   =======         
           SetupBC                 00010F80 
           SetupCC2                00010F86 
           firstTest               00010F92 
           TestDCO                 00010F9C 
           ExitTimeOutError        00011012 
           TestDCO2                00010FA0 
           AdjDCO                  00010FAA 
           ExitNoError             00011018 
           IncDCO                  00010FD6 
           DecDCO                  00010FC2 
           ExitSlowestSetting      00011002 
           TestFor16MHz            00010FEA 
           ExitFastestSetting      0001100A 
           ExitFastestSetting2xx   0001100E 
           SetDCO_Exit             0001101A 

    *************************************************************************

  FILE NAME : C:\Texas Instruments\ZStack-MSP2618-2.5.1\Projects\zstack\HomeAutomation\SampleSwitch\CC2520DB\EndDevice\Obj\DebugTrace.r43
  PROGRAM MODULE, NAME : DebugTrace

  SEGMENTS IN THE MODULE
  ======================
<CODE> 3 (was CODE)
  Relative segment, address: 00013998 - 000139DB (0x44 bytes), align: 1
  Segment part 2.
           ENTRY                   ADDRESS         REF BY
           =====                   =======         ======
           debug_str               00013998        HalLcdWriteString (hal_lcd)
               calls direct
               CSTACK = 00000000 ( 0000000C )

    *************************************************************************

  FILE NAME : C:\Texas Instruments\ZStack-MSP2618-2.5.1\Projects\zstack\HomeAutomation\SampleSwitch\CC2520DB\EndDevice\Obj\MSP430FlashUtil.r43
  PROGRAM MODULE, NAME : MSP430FlashUtil

  SEGMENTS IN THE MODULE
  ======================
DATA16_AN
  Relative segment, address: 0128 - 0129 (0x2 bytes), align: 0
  Segment part 1. ROOT.       Intra module refs:   flashErasePage
                                                   flashWrite
           ENTRY                   ADDRESS         REF BY
           =====                   =======         ======
           FCTL1                   0128 
    -------------------------------------------------------------------------
DATA16_AN
  Relative segment, address: 012C - 012D (0x2 bytes), align: 0
  Segment part 2. ROOT.       Intra module refs:   flashErasePage
                                                   flashWrite
           ENTRY                   ADDRESS         REF BY
           =====                   =======         ======
           FCTL3                   012C 
    -------------------------------------------------------------------------
DATA16_AN
  Relative segment, address: 0120 - 0121 (0x2 bytes), align: 0
  Segment part 3. ROOT.       Intra module refs:   MT_SysReset (MT_SYS)
                                                   __low_level_init (hal_startup)
                                                   doneFlash
                                                   halAssertHazardLights (hal_assert)
                                                   initFlash
                                                   main (ZMain)
           ENTRY                   ADDRESS         REF BY
           =====                   =======         ======
           WDTCTL                  0120 
    -------------------------------------------------------------------------
DATA16_Z
  Relative segment, address: 19B8 - 19B8 (0x1 bytes), align: 0
  Segment part 5.             Intra module refs:   doneFlash
                                                   initFlash
           LOCAL                   ADDRESS         
           =====                   =======         
           s_savWDT                19B8 
    -------------------------------------------------------------------------
DATA16_Z
  Relative segment, address: 13CC - 13CD (0x2 bytes), align: 1
  Segment part 6.             Intra module refs:   doneFlash
                                                   initFlash
           LOCAL                   ADDRESS         
           =====                   =======         
           fuIntState              13CC 
    -------------------------------------------------------------------------
<CODE> 3 (was CODE)
  Relative segment, address: 00014EF8 - 00014F11 (0x1a bytes), align: 1
  Segment part 11.            Intra module refs:   flashErasePage
                                                   flashWrite
           LOCAL                   ADDRESS         
           =====                   =======         
           initFlash               00014EF8 
               CSTACK = 00000000 ( 00000004 )
    -------------------------------------------------------------------------
<CODE> 3 (was CODE)
  Relative segment, address: 00015286 - 00015297 (0x12 bytes), align: 1
  Segment part 10.            Intra module refs:   ?Subroutine0
           LOCAL                   ADDRESS         
           =====                   =======         
           doneFlash               00015286 
               CSTACK = 00000000 ( 00000004 )
    -------------------------------------------------------------------------
<CODE> 3 (was CODE)
  Relative segment, address: 00014AE2 - 00014B01 (0x20 bytes), align: 1
  Segment part 8.
           ENTRY                   ADDRESS         REF BY
           =====                   =======         ======
           flashErasePage          00014AE2        erasePage (OSAL_Nv)
               calls direct
               CSTACK = 00000000 ( 00000006 )
    -------------------------------------------------------------------------
<CODE> 3 (was CODE)
  Relative segment, address: 00015398 - 000153A7 (0x10 bytes), align: 1
  Segment part 9.             Intra module refs:   flashErasePage
                                                   flashWrite
           LOCAL                   ADDRESS         
           =====                   =======         
           ?Subroutine0            00015398 
    -------------------------------------------------------------------------
<CODE> 3 (was CODE)
  Relative segment, address: 000142B0 - 000142DF (0x30 bytes), align: 1
  Segment part 7.
           ENTRY                   ADDRESS         REF BY
           =====                   =======         ======
           flashWrite              000142B0        compactPage (OSAL_Nv)
                                                   initItem (OSAL_Nv)
                                                   osal_nv_write (OSAL_Nv)
                                                   setItem (OSAL_Nv)
                                                   setPageUse (OSAL_Nv)
                                                   writeBuf (OSAL_Nv)
                                                   writeItem (OSAL_Nv)
                                                   xferBuf (OSAL_Nv)
               calls direct
               CSTACK = 00000000 ( 0000000C )

    *************************************************************************

  FILE NAME : C:\Texas Instruments\ZStack-MSP2618-2.5.1\Projects\zstack\HomeAutomation\SampleSwitch\CC2520DB\EndDevice\Obj\MT.r43
  PROGRAM MODULE, NAME : MT

  SEGMENTS IN THE MODULE
  ======================
DATA16_I
  Relative segment, address: 114E - 1179 (0x2c bytes), align: 1
  Segment part 2.             Intra module refs:   MT_ProcessIncoming
           ENTRY                   ADDRESS         REF BY
           =====                   =======         ======
           mtProcessIncoming       114E 
    -------------------------------------------------------------------------
<CODE> 3 (was CODE)
  Relative segment, address: 0001572A - 00015731 (0x8 bytes), align: 1
  Segment part 16.
           ENTRY                   ADDRESS         REF BY
           =====                   =======         ======
           MT_Init                 0001572A        MT_ProcessEvent (MT_TASK)
               calls direct
               CSTACK = 00000000 ( 00000004 )
    -------------------------------------------------------------------------
<CODE> 3 (was CODE)
  Relative segment, address: 000145CE - 000145F7 (0x2a bytes), align: 1
  Segment part 15.            Intra module refs:   MT_BuildAndSendZToolResponse
           ENTRY                   ADDRESS         REF BY
           =====                   =======         ======
           MT_BuildSPIMsg          000145CE 
               calls direct
               CSTACK = 00000000 ( 00000006 )
    -------------------------------------------------------------------------
<CODE> 3 (was CODE)
  Relative segment, address: 000140EA - 0001411D (0x34 bytes), align: 1
  Segment part 14.            Intra module refs:   MTProcessAppRspMsg
                                                   MT_ProcessIncoming
           ENTRY                   ADDRESS         REF BY
           =====                   =======         ======
           MT_BuildAndSendZToolResponse
                                   000140EA        ?Subroutine0 (MT_DEBUG)
                                                   MT_SysResetInd (MT_SYS)
                                                   MT_SysVersion (MT_SYS)
                                                   Segment part 13 (MT_ZDO)
                                                   Segment part 21 (MT_ZDO)
                                                   Segment part 24 (MT_SYS)
                                                   Segment part 34 (MT_SYS)
               calls direct
               CSTACK = 00000000 ( 00000012 )
    -------------------------------------------------------------------------
<CODE> 3 (was CODE)
  Relative segment, address: 00012544 - 000125B9 (0x76 bytes), align: 1
  Segment part 13.
           ENTRY                   ADDRESS         REF BY
           =====                   =======         ======
           MT_ProcessIncoming      00012544        MT_ProcessIncomingCommand (MT_TASK)
               calls direct and indirect
               CSTACK = 00000000 ( 00000008 )
    -------------------------------------------------------------------------
<CODE> 3 (was CODE)
  Relative segment, address: 00015388 - 00015397 (0x10 bytes), align: 1
  Segment part 12.
           ENTRY                   ADDRESS         REF BY
           =====                   =======         ======
           MTProcessAppRspMsg      00015388        MT_ProcessIncomingCommand (MT_TASK)
               calls direct
               CSTACK = 00000000 ( 00000004 )
    -------------------------------------------------------------------------
DATA16_ID
  Relative segment, address: 3966 - 3991 (0x2c bytes), align: 1
  Segment part 3.             Intra module refs:   mtProcessIncoming

    *************************************************************************

  FILE NAME : C:\Texas Instruments\ZStack-MSP2618-2.5.1\Projects\zstack\HomeAutomation\SampleSwitch\CC2520DB\EndDevice\Obj\MT_AF.r43
  PROGRAM MODULE, NAME : MT_AF

  SEGMENTS IN THE MODULE
  ======================
DATA16_Z
  Relative segment, address: 13CE - 13CF (0x2 bytes), align: 1
  Segment part 2.             Intra module refs:   MT_AfExec
           ENTRY                   ADDRESS         REF BY
           =====                   =======         ======
           pMtAfInMsgList          13CE 
    -------------------------------------------------------------------------
DATA16_Z
  Relative segment, address: 13D0 - 13D1 (0x2 bytes), align: 1
  Segment part 3.             Intra module refs:   MT_AfExec
           ENTRY                   ADDRESS         REF BY
           =====                   =======         ======
           pMtAfDataReq            13D0 
    -------------------------------------------------------------------------
<CODE> 3 (was CODE)
  Relative segment, address: 00012CEA - 00012D4D (0x64 bytes), align: 1
  Segment part 17.
           ENTRY                   ADDRESS         REF BY
           =====                   =======         ======
           MT_AfExec               00012CEA        MT_ProcessEvent (MT_TASK)
               calls direct
               CSTACK = 00000000 ( 00000006 )
    -------------------------------------------------------------------------
<CODE> 3 (was CODE)
  Relative segment, address: 00015584 - 0001558F (0xc bytes), align: 1
  Segment part 18.            Intra module refs:   MT_AfExec
           LOCAL                   ADDRESS         
           =====                   =======         
           ?Subroutine4            00015584 
    -------------------------------------------------------------------------
<CODE> 3 (was CODE)
  Relative segment, address: 000155E2 - 000155EB (0xa bytes), align: 1
  Segment part 19.            Intra module refs:   ?Subroutine4
           LOCAL                   ADDRESS         
           =====                   =======         
           ?Subroutine6            000155E2 
    -------------------------------------------------------------------------
<CODE> 3 (was CODE)
  Relative segment, address: 0001518A - 0001519B (0x12 bytes), align: 1
  Segment part 20.            Intra module refs:   ?Subroutine4
           LOCAL                   ADDRESS         
           =====                   =======         
           ?Subroutine5            0001518A 

    *************************************************************************

  FILE NAME : C:\Texas Instruments\ZStack-MSP2618-2.5.1\Projects\zstack\HomeAutomation\SampleSwitch\CC2520DB\EndDevice\Obj\MT_APP.r43
    *************************************************************************

  FILE NAME : C:\Texas Instruments\ZStack-MSP2618-2.5.1\Projects\zstack\HomeAutomation\SampleSwitch\CC2520DB\EndDevice\Obj\MT_DEBUG.r43
  PROGRAM MODULE, NAME : MT_DEBUG

  SEGMENTS IN THE MODULE
  ======================
<CODE> 3 (was CODE)
  Relative segment, address: 000118F0 - 00011997 (0xa8 bytes), align: 1
  Segment part 3.
           ENTRY                   ADDRESS         REF BY
           =====                   =======         ======
           MT_ProcessDebugMsg      000118F0        MT_ProcessIncomingCommand (MT_TASK)
               calls direct
               CSTACK = 00000000 ( 00000018 )
    -------------------------------------------------------------------------
<CODE> 3 (was CODE)
  Relative segment, address: 00015524 - 0001552F (0xc bytes), align: 1
  Segment part 4.             Intra module refs:   MT_ProcessDebugMsg
                                                   MT_ProcessDebugStr
           LOCAL                   ADDRESS         
           =====                   =======         
           ?Subroutine0            00015524 
    -------------------------------------------------------------------------
<CODE> 3 (was CODE)
  Relative segment, address: 00014420 - 0001444B (0x2c bytes), align: 1
  Segment part 2.
           ENTRY                   ADDRESS         REF BY
           =====                   =======         ======
           MT_ProcessDebugStr      00014420        MT_ProcessIncomingCommand (MT_TASK)
               calls direct
               CSTACK = 00000000 ( 00000008 )

    *************************************************************************

  FILE NAME : C:\Texas Instruments\ZStack-MSP2618-2.5.1\Projects\zstack\HomeAutomation\SampleSwitch\CC2520DB\EndDevice\Obj\MT_NWK.r43
    *************************************************************************

  FILE NAME : C:\Texas Instruments\ZStack-MSP2618-2.5.1\Projects\zstack\HomeAutomation\SampleSwitch\CC2520DB\EndDevice\Obj\MT_SYS.r43
  PROGRAM MODULE, NAME : MT_SYS

  SEGMENTS IN THE MODULE
  ======================
DATA16_C
  Relative segment, address: 3719 - 371A (0x2 bytes), align: 0
  Segment part 3.             Intra module refs:   MT_SysOsalNVRead
    -------------------------------------------------------------------------
DATA16_C
  Relative segment, address: 371B - 371C (0x2 bytes), align: 0
  Segment part 4.             Intra module refs:   MT_SysOsalNVRead
    -------------------------------------------------------------------------
DATA16_C
  Relative segment, address: 3392 - 3399 (0x8 bytes), align: 1
  Segment part 5.             Intra module refs:   MT_SysOsalStartTimer
                                                   MT_SysOsalStopTimer
           ENTRY                   ADDRESS         REF BY
           =====                   =======         ======
           MT_SysOsalEventId       3392 
    -------------------------------------------------------------------------
<CODE> 3 (was CODE)
  Relative segment, address: 00010E94 - 00010F65 (0xd2 bytes), align: 1
  Segment part 40.
           ENTRY                   ADDRESS         REF BY
           =====                   =======         ======
           MT_SysCommandProcessing
                                   00010E94        Segment part 3 (MT)
               calls direct
               CSTACK = 00000000 ( 00000006 )
    -------------------------------------------------------------------------
<CODE> 3 (was CODE)
  Relative segment, address: 000152F2 - 00015303 (0x12 bytes), align: 1
  Segment part 39.            Intra module refs:   MT_SysCommandProcessing
           ENTRY                   ADDRESS         REF BY
           =====                   =======         ======
           MT_SysReset             000152F2 
               CSTACK = 00000000 ( 00000004 )
    -------------------------------------------------------------------------
<CODE> 1 (was CODE)
  Relative segment, address: BDDE - BDED (0x10 bytes), align: 1
  Segment part 6.
           ENTRY                   ADDRESS         REF BY
           =====                   =======         ======
           MT_SysOsalTimerExpired
                                   BDDE            MT_ProcessEvent (MT_TASK)
               calls direct
               CSTACK = 00000000 ( 00000006 )
    -------------------------------------------------------------------------
<CODE> 1 (was CODE)
  Relative segment, address: BDEE - BE1F (0x32 bytes), align: 1
  Segment part 7.
           ENTRY                   ADDRESS         REF BY
           =====                   =======         ======
           MT_SysResetInd          BDEE            MT_Init (MT)
               calls direct
               CSTACK = 00000000 ( 0000000A )
    -------------------------------------------------------------------------
<CODE> 1 (was CODE)
  Relative segment, address: BE20 - BE49 (0x2a bytes), align: 1
  Segment part 8.             Intra module refs:   MT_SysCommandProcessing
           ENTRY                   ADDRESS         REF BY
           =====                   =======         ======
           MT_SysSetTxPower        BE20 
               calls direct
               CSTACK = 00000000 ( 00000006 )
    -------------------------------------------------------------------------
<CODE> 1 (was CODE)
  Relative segment, address: BE4A - BED1 (0x88 bytes), align: 1
  Segment part 9.             Intra module refs:   MT_SysCommandProcessing
           ENTRY                   ADDRESS         REF BY
           =====                   =======         ======
           MT_SysGetUtcTime        BE4A 
               calls direct
               CSTACK = 00000000 ( 00000014 )
    -------------------------------------------------------------------------
<CODE> 1 (was CODE)
  Relative segment, address: BED2 - BFB5 (0xe4 bytes), align: 1
  Segment part 10.            Intra module refs:   MT_SysCommandProcessing
           ENTRY                   ADDRESS         REF BY
           =====                   =======         ======
           MT_SysSetUtcTime        BED2 
               calls direct
               CSTACK = 00000000 ( 00000016 )
    -------------------------------------------------------------------------
<CODE> 1 (was CODE)
  Relative segment, address: BFB6 - C003 (0x4e bytes), align: 1
  Segment part 11.            Intra module refs:   MT_SysCommandProcessing
           ENTRY                   ADDRESS         REF BY
           =====                   =======         ======
           MT_SysStackTune         BFB6 
               calls direct
               CSTACK = 00000000 ( 00000008 )
    -------------------------------------------------------------------------
<CODE> 1 (was CODE)
  Relative segment, address: C004 - C013 (0x10 bytes), align: 1
  Segment part 12.            Intra module refs:   MT_SysCommandProcessing
           ENTRY                   ADDRESS         REF BY
           =====                   =======         ======
           MT_SysGpio              C004 
               calls direct
               CSTACK = 00000000 ( 00000006 )
    -------------------------------------------------------------------------
<CODE> 1 (was CODE)
  Relative segment, address: C014 - C06D (0x5a bytes), align: 1
  Segment part 13.            Intra module refs:   MT_SysCommandProcessing
           ENTRY                   ADDRESS         REF BY
           =====                   =======         ======
           MT_SysAdcRead           C014 
               calls direct
               CSTACK = 00000000 ( 00000008 )
    -------------------------------------------------------------------------
<CODE> 1 (was CODE)
  Relative segment, address: C06E - C07D (0x10 bytes), align: 1
  Segment part 14.            Intra module refs:   MT_SysCommandProcessing
           ENTRY                   ADDRESS         REF BY
           =====                   =======         ======
           MT_SysRandom            C06E 
               calls direct
               CSTACK = 00000000 ( 00000006 )
    -------------------------------------------------------------------------
<CODE> 1 (was CODE)
  Relative segment, address: C07E - C091 (0x14 bytes), align: 1
  Segment part 15.            Intra module refs:   MT_SysAdcRead
                                                   MT_SysOsalNVLength
                                                   MT_SysRandom
           LOCAL                   ADDRESS         
           =====                   =======         
           ?Subroutine3            C07E 
    -------------------------------------------------------------------------
<CODE> 1 (was CODE)
  Relative segment, address: C092 - C0B9 (0x28 bytes), align: 1
  Segment part 16.            Intra module refs:   MT_SysCommandProcessing
           ENTRY                   ADDRESS         REF BY
           =====                   =======         ======
           MT_SysOsalStopTimer     C092 
               calls direct
               CSTACK = 00000000 ( 00000008 )
    -------------------------------------------------------------------------
<CODE> 1 (was CODE)
  Relative segment, address: C0BA - C0BD (0x4 bytes), align: 1
  Segment part 17.            Intra module refs:   MT_SysOsalStartTimer
                                                   MT_SysOsalStopTimer
           LOCAL                   ADDRESS         
           =====                   =======         
           ?Subroutine6            C0BA 
    -------------------------------------------------------------------------
<CODE> 1 (was CODE)
  Relative segment, address: C0BE - C0C7 (0xa bytes), align: 1
  Segment part 18.            Intra module refs:   ?Subroutine6
                                                   MT_SysAdcRead
                                                   MT_SysStackTune
    -------------------------------------------------------------------------
<CODE> 1 (was CODE)
  Relative segment, address: C0C8 - C0FB (0x34 bytes), align: 1
  Segment part 19.            Intra module refs:   MT_SysCommandProcessing
           ENTRY                   ADDRESS         REF BY
           =====                   =======         ======
           MT_SysOsalStartTimer    C0C8 
               calls direct
               CSTACK = 00000000 ( 00000008 )
    -------------------------------------------------------------------------
<CODE> 1 (was CODE)
  Relative segment, address: C0FC - C0FF (0x4 bytes), align: 1
  Segment part 20.            Intra module refs:   MT_SysOsalStartTimer
                                                   MT_SysOsalStopTimer
                                                   MT_SysStackTune
           LOCAL                   ADDRESS         
           =====                   =======         
           ?Subroutine0            C0FC 
    -------------------------------------------------------------------------
<CODE> 1 (was CODE)
  Relative segment, address: C100 - C109 (0xa bytes), align: 1
  Segment part 21.            Intra module refs:   ?Subroutine0
                                                   MT_SysAdcRead
    -------------------------------------------------------------------------
<CODE> 1 (was CODE)
  Relative segment, address: C10A - C11F (0x16 bytes), align: 1
  Segment part 22.            Intra module refs:   MT_SysCommandProcessing
           ENTRY                   ADDRESS         REF BY
           =====                   =======         ======
           MT_SysOsalNVLength      C10A 
               calls direct
               CSTACK = 00000000 ( 00000006 )
    -------------------------------------------------------------------------
<CODE> 1 (was CODE)
  Relative segment, address: C120 - C123 (0x4 bytes), align: 1
  Segment part 23.            Intra module refs:   MT_SysGpio
                                                   MT_SysOsalNVDelete
                                                   MT_SysOsalNVLength
                                                   MT_SysPing
                                                   MT_SysRandom
                                                   MT_SysSetTxPower
           LOCAL                   ADDRESS         
           =====                   =======         
           ?Subroutine2            C120 
    -------------------------------------------------------------------------
<CODE> 1 (was CODE)
  Relative segment, address: C124 - C12B (0x8 bytes), align: 1
  Segment part 24.            Intra module refs:   ?Subroutine2
                                                   MT_SysOsalTimerExpired
    -------------------------------------------------------------------------
<CODE> 1 (was CODE)
  Relative segment, address: C12C - C151 (0x26 bytes), align: 1
  Segment part 25.            Intra module refs:   MT_SysCommandProcessing
           ENTRY                   ADDRESS         REF BY
           =====                   =======         ======
           MT_SysOsalNVDelete      C12C 
               calls direct
               CSTACK = 00000000 ( 00000006 )
    -------------------------------------------------------------------------
<CODE> 1 (was CODE)
  Relative segment, address: C152 - C161 (0x10 bytes), align: 1
  Segment part 26.            Intra module refs:   MT_SysOsalNVDelete
                                                   MT_SysOsalNVLength
           LOCAL                   ADDRESS         
           =====                   =======         
           ?Subroutine7            C152 
    -------------------------------------------------------------------------
<CODE> 1 (was CODE)
  Relative segment, address: C162 - C1CB (0x6a bytes), align: 1
  Segment part 27.            Intra module refs:   MT_SysCommandProcessing
           ENTRY                   ADDRESS         REF BY
           =====                   =======         ======
           MT_SysOsalNVItemInit    C162 
               calls direct
               CSTACK = 00000000 ( 0000000E )
    -------------------------------------------------------------------------
<CODE> 1 (was CODE)
  Relative segment, address: C1CC - C1D5 (0xa bytes), align: 1
  Segment part 28.            Intra module refs:   MT_SysOsalNVItemInit
                                                   MT_SysOsalNVWrite
           LOCAL                   ADDRESS         
           =====                   =======         
           ?Subroutine1            C1CC 
    -------------------------------------------------------------------------
<CODE> 1 (was CODE)
  Relative segment, address: C1D6 - C235 (0x60 bytes), align: 1
  Segment part 29.            Intra module refs:   MT_SysCommandProcessing
           ENTRY                   ADDRESS         REF BY
           =====                   =======         ======
           MT_SysOsalNVWrite       C1D6 
               calls direct
               CSTACK = 00000000 ( 0000000E )
    -------------------------------------------------------------------------
<CODE> 1 (was CODE)
  Relative segment, address: C236 - C239 (0x4 bytes), align: 1
  Segment part 30.            Intra module refs:   MT_SysOsalNVDelete
                                                   MT_SysOsalTimerExpired
           LOCAL                   ADDRESS         
           =====                   =======         
           ?Subroutine4            C236 
    -------------------------------------------------------------------------
<CODE> 1 (was CODE)
  Relative segment, address: C23A - C241 (0x8 bytes), align: 1
  Segment part 31.            Intra module refs:   ?Subroutine0
                                                   ?Subroutine4
                                                   MT_SysGpio
                                                   MT_SysOsalNVItemInit
                                                   MT_SysOsalNVWrite
                                                   MT_SysSetExtAddr
                                                   MT_SysSetUtcTime
    -------------------------------------------------------------------------
<CODE> 1 (was CODE)
  Relative segment, address: C242 - C349 (0x108 bytes), align: 1
  Segment part 32.            Intra module refs:   MT_SysCommandProcessing
           ENTRY                   ADDRESS         REF BY
           =====                   =======         ======
           MT_SysOsalNVRead        C242 
               calls direct
               CSTACK = 00000000 ( 00000012 )
    -------------------------------------------------------------------------
<CODE> 1 (was CODE)
  Relative segment, address: C34A - C34B (0x2 bytes), align: 1
  Segment part 33.            Intra module refs:   MT_SysSetExtAddr
                                                   Segment part 21
           LOCAL                   ADDRESS         
           =====                   =======         
           ?Subroutine5            C34A 
    -------------------------------------------------------------------------
<CODE> 1 (was CODE)
  Relative segment, address: C34C - C353 (0x8 bytes), align: 1
  Segment part 34.            Intra module refs:   ?Subroutine1
                                                   ?Subroutine5
                                                   MT_SysGetExtAddr
                                                   MT_SysGetUtcTime
                                                   MT_SysOsalNVRead
                                                   MT_SysSetUtcTime
    -------------------------------------------------------------------------
<CODE> 1 (was CODE)
  Relative segment, address: C354 - C371 (0x1e bytes), align: 1
  Segment part 35.            Intra module refs:   MT_SysCommandProcessing
           ENTRY                   ADDRESS         REF BY
           =====                   =======         ======
           MT_SysGetExtAddr        C354 
               calls direct
               CSTACK = 00000000 ( 0000000C )
    -------------------------------------------------------------------------
<CODE> 1 (was CODE)
  Relative segment, address: C372 - C3AF (0x3e bytes), align: 1
  Segment part 36.            Intra module refs:   MT_SysCommandProcessing
           ENTRY                   ADDRESS         REF BY
           =====                   =======         ======
           MT_SysSetExtAddr        C372 
               calls direct
               CSTACK = 00000000 ( 0000000A )
    -------------------------------------------------------------------------
<CODE> 1 (was CODE)
  Relative segment, address: C3B0 - C3C1 (0x12 bytes), align: 1
  Segment part 37.            Intra module refs:   MT_SysCommandProcessing
           ENTRY                   ADDRESS         REF BY
           =====                   =======         ======
           MT_SysVersion           C3B0 
               calls direct
               CSTACK = 00000000 ( 00000004 )
    -------------------------------------------------------------------------
<CODE> 1 (was CODE)
  Relative segment, address: C3C2 - C3D7 (0x16 bytes), align: 1
  Segment part 38.            Intra module refs:   MT_SysCommandProcessing
           ENTRY                   ADDRESS         REF BY
           =====                   =======         ======
           MT_SysPing              C3C2 
               calls direct
               CSTACK = 00000000 ( 00000006 )

    *************************************************************************

  FILE NAME : C:\Texas Instruments\ZStack-MSP2618-2.5.1\Projects\zstack\HomeAutomation\SampleSwitch\CC2520DB\EndDevice\Obj\MT_TASK.r43
  PROGRAM MODULE, NAME : MT_TASK

  SEGMENTS IN THE MODULE
  ======================
DATA16_Z
  Relative segment, address: 19B9 - 19B9 (0x1 bytes), align: 0
  Segment part 2.             Intra module refs:   MT_TaskInit
           ENTRY                   ADDRESS         REF BY
           =====                   =======         ======
           MT_TaskID               19B9            ?Subroutine4 (MT_ZDO)
                                                   ?Subroutine5 (MT_AF)
                                                   ?Subroutine6 (MT_AF)
                                                   MT_SysOsalStartTimer (MT_SYS)
                                                   MT_SysOsalStopTimer (MT_SYS)
                                                   debug_str (DebugTrace)
    -------------------------------------------------------------------------
<CODE> 3 (was CODE)
  Relative segment, address: 00014B42 - 00014B61 (0x20 bytes), align: 1
  Segment part 7.
           ENTRY                   ADDRESS         REF BY
           =====                   =======         ======
           MT_TaskInit             00014B42        osalInitTasks (OSAL_SampleSw)
               calls direct
               CSTACK = 00000000 ( 00000006 )
    -------------------------------------------------------------------------
<CODE> 3 (was CODE)
  Relative segment, address: 00011EB2 - 00011F49 (0x98 bytes), align: 1
  Segment part 6.
           ENTRY                   ADDRESS         REF BY
           =====                   =======         ======
           MT_ProcessEvent         00011EB2        tasksArr (OSAL_SampleSw)
               calls direct
               CSTACK = 00000000 ( 00000008 )
    -------------------------------------------------------------------------
<CODE> 3 (was CODE)
  Relative segment, address: 000128CA - 00012937 (0x6e bytes), align: 1
  Segment part 5.             Intra module refs:   MT_ProcessEvent
           LOCAL                   ADDRESS         
           =====                   =======         
           MT_ProcessIncomingCommand
                                   000128CA 
               calls direct
               CSTACK = 00000000 ( 00000008 )
    -------------------------------------------------------------------------
<CODE> 3 (was CODE)
  Relative segment, address: 00014FD2 - 00014FE7 (0x16 bytes), align: 1
  Segment part 4.
           ENTRY                   ADDRESS         REF BY
           =====                   =======         ======
           MT_TransportAlloc       00014FD2        MT_BuildAndSendZToolResponse (MT)
               calls direct
               CSTACK = 00000000 ( 00000004 )
    -------------------------------------------------------------------------
<CODE> 3 (was CODE)
  Relative segment, address: 00013E1E - 00013E55 (0x38 bytes), align: 1
  Segment part 3.
           ENTRY                   ADDRESS         REF BY
           =====                   =======         ======
           MT_TransportSend        00013E1E        MT_BuildAndSendZToolResponse (MT)
               calls direct
               CSTACK = 00000000 ( 00000008 )

    *************************************************************************

  FILE NAME : C:\Texas Instruments\ZStack-MSP2618-2.5.1\Projects\zstack\HomeAutomation\SampleSwitch\CC2520DB\EndDevice\Obj\MT_UART.r43
  PROGRAM MODULE, NAME : MT_UART

  SEGMENTS IN THE MODULE
  ======================
DATA16_Z
  Relative segment, address: 19BA - 19BA (0x1 bytes), align: 0
  Segment part 2.             Intra module refs:   MT_UartInit
                                                   MT_UartProcessZToolData
                                                   MT_UartRegisterTaskID
           ENTRY                   ADDRESS         REF BY
           =====                   =======         ======
           App_TaskID              19BA 
    -------------------------------------------------------------------------
DATA16_Z
  Relative segment, address: 19BB - 19BB (0x1 bytes), align: 0
  Segment part 3.             Intra module refs:   MT_UartProcessZToolData
           ENTRY                   ADDRESS         REF BY
           =====                   =======         ======
           state                   19BB 
    -------------------------------------------------------------------------
DATA16_Z
  Relative segment, address: 19BC - 19BC (0x1 bytes), align: 0
  Segment part 5.             Intra module refs:   MT_UartProcessZToolData
           ENTRY                   ADDRESS         REF BY
           =====                   =======         ======
           LEN_Token               19BC 
    -------------------------------------------------------------------------
DATA16_Z
  Relative segment, address: 19BD - 19BD (0x1 bytes), align: 0
  Segment part 6.             Intra module refs:   MT_UartProcessZToolData
           ENTRY                   ADDRESS         REF BY
           =====                   =======         ======
           FSC_Token               19BD 
    -------------------------------------------------------------------------
DATA16_Z
  Relative segment, address: 13D2 - 13D3 (0x2 bytes), align: 1
  Segment part 7.             Intra module refs:   MT_UartProcessZToolData
           ENTRY                   ADDRESS         REF BY
           =====                   =======         ======
           pMsg                    13D2 
    -------------------------------------------------------------------------
DATA16_Z
  Relative segment, address: 19BE - 19BE (0x1 bytes), align: 0
  Segment part 8.             Intra module refs:   MT_UartProcessZToolData
           ENTRY                   ADDRESS         REF BY
           =====                   =======         ======
           tempDataLen             19BE 
    -------------------------------------------------------------------------
<CODE> 3 (was CODE)
  Relative segment, address: 0001367E - 000136C9 (0x4c bytes), align: 1
  Segment part 12.
           ENTRY                   ADDRESS         REF BY
           =====                   =======         ======
           MT_UartInit             0001367E        MT_TaskInit (MT_TASK)
               calls direct
               CSTACK = 00000000 ( 00000026 )
    -------------------------------------------------------------------------
<CODE> 3 (was CODE)
  Relative segment, address: 0001577E - 00015783 (0x6 bytes), align: 1
  Segment part 11.
           ENTRY                   ADDRESS         REF BY
           =====                   =======         ======
           MT_UartRegisterTaskID   0001577E        MT_TaskInit (MT_TASK)
               CSTACK = 00000000 ( 00000004 )
    -------------------------------------------------------------------------
<CODE> 3 (was CODE)
  Relative segment, address: 0001521A - 0001522B (0x12 bytes), align: 1
  Segment part 10.            Intra module refs:   MT_UartProcessZToolData
           ENTRY                   ADDRESS         REF BY
           =====                   =======         ======
           MT_UartCalcFCS          0001521A        MT_ProcessIncomingCommand (MT_TASK)
                                                   MT_TransportSend (MT_TASK)
               CSTACK = 00000000 ( 00000004 )
    -------------------------------------------------------------------------
<CODE> 3 (was CODE)
  Relative segment, address: 00010000 - 00010149 (0x14a bytes), align: 1
  Segment part 9.             Intra module refs:   MT_UartInit
           ENTRY                   ADDRESS         REF BY
           =====                   =======         ======
           MT_UartProcessZToolData
                                   00010000 
               calls direct
               CSTACK = 00000000 ( 0000000E )

    *************************************************************************

  FILE NAME : C:\Texas Instruments\ZStack-MSP2618-2.5.1\Projects\zstack\HomeAutomation\SampleSwitch\CC2520DB\EndDevice\Obj\MT_UTIL.r43
    *************************************************************************

  FILE NAME : C:\Texas Instruments\ZStack-MSP2618-2.5.1\Projects\zstack\HomeAutomation\SampleSwitch\CC2520DB\EndDevice\Obj\MT_VERSION.r43
  PROGRAM MODULE, NAME : MT_VERSION

  SEGMENTS IN THE MODULE
  ======================
DATA16_C
  Relative segment, address: 371D - 3721 (0x5 bytes), align: 0
  Segment part 2.
           ENTRY                   ADDRESS         REF BY
           =====                   =======         ======
           MTVersionString         371D            MT_SysResetInd (MT_SYS)
                                                   MT_SysVersion (MT_SYS)

    *************************************************************************

  FILE NAME : C:\Texas Instruments\ZStack-MSP2618-2.5.1\Projects\zstack\HomeAutomation\SampleSwitch\CC2520DB\EndDevice\Obj\MT_ZDO.r43
  PROGRAM MODULE, NAME : MT_ZDO

  SEGMENTS IN THE MODULE
  ======================
DATA16_Z
  Relative segment, address: 13D4 - 13D5 (0x2 bytes), align: 1
  Segment part 3.             Intra module refs:   MT_ZdoBeaconIndCB
           ENTRY                   ADDRESS         REF BY
           =====                   =======         ======
           pBeaconIndBuf           13D4 
    -------------------------------------------------------------------------
<CODE> 1 (was CODE)
  Relative segment, address: E1FE - E1FF (0x2 bytes), align: 1
  Segment part 52.
           ENTRY                   ADDRESS         REF BY
           =====                   =======         ======
           MT_ZdoInit              E1FE            MT_Init (MT)
               CSTACK = 00000000 ( 00000004 )
    -------------------------------------------------------------------------
<CODE> 3 (was CODE)
  Relative segment, address: 00010CD8 - 00010DB5 (0xde bytes), align: 1
  Segment part 51.
           ENTRY                   ADDRESS         REF BY
           =====                   =======         ======
           MT_ZdoCommandProcessing
                                   00010CD8        Segment part 3 (MT)
               calls direct
               CSTACK = 00000000 ( 00000006 )
    -------------------------------------------------------------------------
<CODE> 3 (was CODE)
  Relative segment, address: 00015118 - 0001511B (0x4 bytes), align: 1
  Segment part 18.            Intra module refs:   ?Subroutine3
                                                   Segment part 45
           LOCAL                   ADDRESS         
           =====                   =======         
           ?Subroutine7            00015118 
    -------------------------------------------------------------------------
<CODE> 3 (was CODE)
  Relative segment, address: 0001511C - 0001511F (0x4 bytes), align: 1
  Segment part 19.            Intra module refs:   ?Subroutine1
                                                   ?Subroutine7
                                                   MT_ZdoEndDevBindRequest
                                                   MT_ZdoMatchDescRequest
                                                   MT_ZdoNetworkDiscoveryReq
    -------------------------------------------------------------------------
<CODE> 3 (was CODE)
  Relative segment, address: 00015120 - 00015123 (0x4 bytes), align: 1
  Segment part 20.            Intra module refs:   MT_ZdoJoinReq
                                                   MT_ZdoUserDescSet
                                                   Segment part 19
    -------------------------------------------------------------------------
<CODE> 3 (was CODE)
  Relative segment, address: 00015124 - 0001512B (0x8 bytes), align: 1
  Segment part 21.            Intra module refs:   ?Subroutine2
                                                   Segment part 20
    -------------------------------------------------------------------------
<CODE> 1 (was CODE)
  Relative segment, address: D358 - D375 (0x1e bytes), align: 1
  Segment part 28.            Intra module refs:   MT_ZdoCommandProcessing
           ENTRY                   ADDRESS         REF BY
           =====                   =======         ======
           MT_ZdoServiceDiscRequest
                                   D358 
               calls direct
               CSTACK = 00000000 ( 00000008 )
    -------------------------------------------------------------------------
<CODE> 1 (was CODE)
  Relative segment, address: D376 - D37F (0xa bytes), align: 1
  Segment part 29.            Intra module refs:   ?Subroutine4
                                                   ?Subroutine8
                                                   MT_ZdoJoinReq
                                                   MT_ZdoServiceDiscRequest
                                                   MT_ZdoUserDescSet
           LOCAL                   ADDRESS         
           =====                   =======         
           ?Subroutine15           D376 
    -------------------------------------------------------------------------
<CODE> 1 (was CODE)
  Relative segment, address: D380 - D3D9 (0x5a bytes), align: 1
  Segment part 30.            Intra module refs:   MT_ZdoCommandProcessing
           ENTRY                   ADDRESS         REF BY
           =====                   =======         ======
           MT_ZdoUserDescSet       D380 
               calls direct
               CSTACK = 00000000 ( 00000024 )
    -------------------------------------------------------------------------
<CODE> 1 (was CODE)
  Relative segment, address: D3DA - D3E3 (0xa bytes), align: 1
  Segment part 31.            Intra module refs:   MT_ZdoUserDescSet
           LOCAL                   ADDRESS         
           =====                   =======         
           ?Subroutine13           D3DA 
    -------------------------------------------------------------------------
<CODE> 1 (was CODE)
  Relative segment, address: D3E4 - D3ED (0xa bytes), align: 1
  Segment part 32.            Intra module refs:   ?Subroutine13
                                                   ?Subroutine4
                                                   ?Subroutine8
           LOCAL                   ADDRESS         
           =====                   =======         
           ?Subroutine16           D3E4 
    -------------------------------------------------------------------------
<CODE> 1 (was CODE)
  Relative segment, address: D3EE - D413 (0x26 bytes), align: 1
  Segment part 33.            Intra module refs:   MT_ZdoCommandProcessing
           ENTRY                   ADDRESS         REF BY
           =====                   =======         ======
           MT_ZdoEndDevAnnce       D3EE 
               calls direct
               CSTACK = 00000000 ( 00000008 )
    -------------------------------------------------------------------------
<CODE> 1 (was CODE)
  Relative segment, address: D414 - D423 (0x10 bytes), align: 1
  Segment part 34.            Intra module refs:   MT_ZdoCommandProcessing
           ENTRY                   ADDRESS         REF BY
           =====                   =======         ======
           MT_ZdoUserDescRequest   D414 
               calls direct
               CSTACK = 00000000 ( 00000012 )
    -------------------------------------------------------------------------
<CODE> 1 (was CODE)
  Relative segment, address: D424 - D433 (0x10 bytes), align: 1
  Segment part 35.            Intra module refs:   MT_ZdoCommandProcessing
           ENTRY                   ADDRESS         REF BY
           =====                   =======         ======
           MT_ZdoComplexDescRequest
                                   D424 
               calls direct
               CSTACK = 00000000 ( 00000012 )
    -------------------------------------------------------------------------
<CODE> 1 (was CODE)
  Relative segment, address: D434 - D4EF (0xbc bytes), align: 1
  Segment part 36.            Intra module refs:   MT_ZdoCommandProcessing
           ENTRY                   ADDRESS         REF BY
           =====                   =======         ======
           MT_ZdoMatchDescRequest
                                   D434 
               calls direct
               CSTACK = 00000000 ( 00000064 )
    -------------------------------------------------------------------------
<CODE> 1 (was CODE)
  Relative segment, address: D4F0 - D4F9 (0xa bytes), align: 1
  Segment part 37.            Intra module refs:   MT_ZdoMatchDescRequest
           LOCAL                   ADDRESS         
           =====                   =======         
           ?Subroutine14           D4F0 
    -------------------------------------------------------------------------
<CODE> 1 (was CODE)
  Relative segment, address: D4FA - D4FF (0x6 bytes), align: 1
  Segment part 38.            Intra module refs:   MT_ZdoMatchDescRequest
           LOCAL                   ADDRESS         
           =====                   =======         
           ?Subroutine12           D4FA 
    -------------------------------------------------------------------------
<CODE> 1 (was CODE)
  Relative segment, address: D500 - D50B (0xc bytes), align: 1
  Segment part 39.            Intra module refs:   ?Subroutine12
                                                   MT_ZdoEndDevBindRequest
    -------------------------------------------------------------------------
<CODE> 1 (was CODE)
  Relative segment, address: D50C - D51B (0x10 bytes), align: 1
  Segment part 40.            Intra module refs:   MT_ZdoCommandProcessing
           ENTRY                   ADDRESS         REF BY
           =====                   =======         ======
           MT_ZdoActiveEpRequest   D50C 
               calls direct
               CSTACK = 00000000 ( 00000012 )
    -------------------------------------------------------------------------
<CODE> 1 (was CODE)
  Relative segment, address: D51C - D533 (0x18 bytes), align: 1
  Segment part 41.            Intra module refs:   MT_ZdoCommandProcessing
           ENTRY                   ADDRESS         REF BY
           =====                   =======         ======
           MT_ZdoSimpleDescRequest
                                   D51C 
               calls direct
               CSTACK = 00000000 ( 00000012 )
    -------------------------------------------------------------------------
<CODE> 1 (was CODE)
  Relative segment, address: D534 - D54B (0x18 bytes), align: 1
  Segment part 42.            Intra module refs:   MT_ZdoActiveEpRequest
                                                   MT_ZdoComplexDescRequest
                                                   MT_ZdoNodeDescRequest
                                                   MT_ZdoPowerDescRequest
                                                   MT_ZdoSimpleDescRequest
                                                   MT_ZdoUserDescRequest
           LOCAL                   ADDRESS         
           =====                   =======         
           ?Subroutine8            D534 
    -------------------------------------------------------------------------
<CODE> 1 (was CODE)
  Relative segment, address: D54C - D559 (0xe bytes), align: 1
  Segment part 43.            Intra module refs:   MT_ZdoCommandProcessing
           ENTRY                   ADDRESS         REF BY
           =====                   =======         ======
           MT_ZdoPowerDescRequest
                                   D54C 
               calls direct
               CSTACK = 00000000 ( 00000012 )
    -------------------------------------------------------------------------
<CODE> 1 (was CODE)
  Relative segment, address: D55A - D561 (0x8 bytes), align: 1
  Segment part 44.            Intra module refs:   MT_ZdoActiveEpRequest
                                                   MT_ZdoComplexDescRequest
                                                   MT_ZdoNodeDescRequest
                                                   MT_ZdoPowerDescRequest
                                                   MT_ZdoUserDescRequest
           LOCAL                   ADDRESS         
           =====                   =======         
           ?Subroutine0            D55A 
    -------------------------------------------------------------------------
<CODE> 1 (was CODE)
  Relative segment, address: D562 - D56D (0xc bytes), align: 1
  Segment part 45.            Intra module refs:   ?Subroutine0
                                                   MT_ZdoSimpleDescRequest
    -------------------------------------------------------------------------
<CODE> 1 (was CODE)
  Relative segment, address: D56E - D581 (0x14 bytes), align: 1
  Segment part 46.            Intra module refs:   ?Subroutine0
                                                   MT_ZdoSimpleDescRequest
           LOCAL                   ADDRESS         
           =====                   =======         
           ?Subroutine10           D56E 
    -------------------------------------------------------------------------
<CODE> 1 (was CODE)
  Relative segment, address: D582 - D58F (0xe bytes), align: 1
  Segment part 47.            Intra module refs:   MT_ZdoCommandProcessing
           ENTRY                   ADDRESS         REF BY
           =====                   =======         ======
           MT_ZdoNodeDescRequest   D582 
               calls direct
               CSTACK = 00000000 ( 00000012 )
    -------------------------------------------------------------------------
<CODE> 1 (was CODE)
  Relative segment, address: D590 - D5B3 (0x24 bytes), align: 1
  Segment part 48.            Intra module refs:   MT_ZdoCommandProcessing
           ENTRY                   ADDRESS         REF BY
           =====                   =======         ======
           MT_ZdoIEEEAddrRequest   D590 
               calls direct
               CSTACK = 00000000 ( 00000008 )
    -------------------------------------------------------------------------
<CODE> 1 (was CODE)
  Relative segment, address: D5B4 - D5BD (0xa bytes), align: 1
  Segment part 49.            Intra module refs:   MT_ZdoEndDevAnnce
                                                   MT_ZdoIEEEAddrRequest
                                                   MT_ZdoNWKAddressRequest
                                                   MT_ZdoServiceDiscRequest
           LOCAL                   ADDRESS         
           =====                   =======         
           ?Subroutine3            D5B4 
    -------------------------------------------------------------------------
<CODE> 1 (was CODE)
  Relative segment, address: D5BE - D5DB (0x1e bytes), align: 1
  Segment part 50.            Intra module refs:   MT_ZdoCommandProcessing
           ENTRY                   ADDRESS         REF BY
           =====                   =======         ======
           MT_ZdoNWKAddressRequest
                                   D5BE 
               calls direct
               CSTACK = 00000000 ( 00000008 )
    -------------------------------------------------------------------------
<CODE> 3 (was CODE)
  Relative segment, address: 00010DB6 - 00010E93 (0xde bytes), align: 1
  Segment part 27.            Intra module refs:   MT_ZdoCommandProcessing
           ENTRY                   ADDRESS         REF BY
           =====                   =======         ======
           MT_ZdoEndDevBindRequest
                                   00010DB6 
               calls direct
               CSTACK = 00000000 ( 00000062 )
    -------------------------------------------------------------------------
<CODE> 3 (was CODE)
  Relative segment, address: 000127EE - 00012815 (0x28 bytes), align: 1
  Segment part 22.            Intra module refs:   MT_ZdoCommandProcessing
           ENTRY                   ADDRESS         REF BY
           =====                   =======         ======
           MT_ZdoUnbindRequest     000127EE 
               calls direct
               CSTACK = 00000000 ( 0000002E )
    -------------------------------------------------------------------------
<CODE> 3 (was CODE)
  Relative segment, address: 00012816 - 00012831 (0x1c bytes), align: 1
  Segment part 23.            Intra module refs:   MT_ZdoBindRequest
                                                   MT_ZdoUnbindRequest
           LOCAL                   ADDRESS         
           =====                   =======         
           ?Subroutine2            00012816 
    -------------------------------------------------------------------------
<CODE> 3 (was CODE)
  Relative segment, address: 00012832 - 0001285B (0x2a bytes), align: 1
  Segment part 24.            Intra module refs:   MT_ZdoCommandProcessing
           ENTRY                   ADDRESS         REF BY
           =====                   =======         ======
           MT_ZdoBindRequest       00012832 
               calls direct
               CSTACK = 00000000 ( 0000002E )
    -------------------------------------------------------------------------
<CODE> 3 (was CODE)
  Relative segment, address: 000135E2 - 0001362F (0x4e bytes), align: 1
  Segment part 25.            Intra module refs:   MT_ZdoBindRequest
                                                   MT_ZdoUnbindRequest
           LOCAL                   ADDRESS         
           =====                   =======         
           ?Subroutine9            000135E2 
    -------------------------------------------------------------------------
<CODE> 3 (was CODE)
  Relative segment, address: 000154A8 - 000154B5 (0xe bytes), align: 1
  Segment part 26.            Intra module refs:   ?Subroutine9
           LOCAL                   ADDRESS         
           =====                   =======         
           ?Subroutine17           000154A8 
    -------------------------------------------------------------------------
<CODE> 1 (was CODE)
  Relative segment, address: CE38 - CE45 (0xe bytes), align: 1
  Segment part 5.             Intra module refs:   MT_ZdoCommandProcessing
           ENTRY                   ADDRESS         REF BY
           =====                   =======         ======
           MT_ZdoRemoveRegisteredCB
                                   CE38 
               calls direct
               CSTACK = 00000000 ( 0000000A )
    -------------------------------------------------------------------------
<CODE> 1 (was CODE)
  Relative segment, address: CE46 - CE53 (0xe bytes), align: 1
  Segment part 6.             Intra module refs:   MT_ZdoCommandProcessing
           ENTRY                   ADDRESS         REF BY
           =====                   =======         ======
           MT_ZdoRegisterForZDOMsg
                                   CE46 
               calls direct
               CSTACK = 00000000 ( 0000000A )
    -------------------------------------------------------------------------
<CODE> 1 (was CODE)
  Relative segment, address: CE54 - CE69 (0x16 bytes), align: 1
  Segment part 7.             Intra module refs:   MT_ZdoRegisterForZDOMsg
                                                   MT_ZdoRemoveRegisteredCB
           LOCAL                   ADDRESS         
           =====                   =======         
           ?Subroutine4            CE54 
    -------------------------------------------------------------------------
<CODE> 1 (was CODE)
  Relative segment, address: CE6A - CEAD (0x44 bytes), align: 1
  Segment part 8.             Intra module refs:   MT_ZdoJoinReq
           ENTRY                   ADDRESS         REF BY
           =====                   =======         ======
           MT_ZdoJoinCnfCB         CE6A 
               calls direct
               CSTACK = 00000000 ( 0000000C )
    -------------------------------------------------------------------------
<CODE> 1 (was CODE)
  Relative segment, address: CEAE - CF9F (0xf2 bytes), align: 1
  Segment part 9.             Intra module refs:   MT_ZdoNetworkDiscoveryReq
                                                   MT_ZdoNwkDiscoveryCnfCB
           ENTRY                   ADDRESS         REF BY
           =====                   =======         ======
           MT_ZdoBeaconIndCB       CEAE 
               calls direct
               CSTACK = 00000000 ( 00000008 )
    -------------------------------------------------------------------------
<CODE> 1 (was CODE)
  Relative segment, address: CFA0 - CFB1 (0x12 bytes), align: 1
  Segment part 10.            Intra module refs:   MT_ZdoBeaconIndCB
           LOCAL                   ADDRESS         
           =====                   =======         
           ?Subroutine6            CFA0 
    -------------------------------------------------------------------------
<CODE> 1 (was CODE)
  Relative segment, address: CFB2 - CFDB (0x2a bytes), align: 1
  Segment part 11.            Intra module refs:   MT_ZdoNetworkDiscoveryReq
           ENTRY                   ADDRESS         REF BY
           =====                   =======         ======
           MT_ZdoNwkDiscoveryCnfCB
                                   CFB2 
               calls direct
               CSTACK = 00000000 ( 00000006 )
    -------------------------------------------------------------------------
<CODE> 1 (was CODE)
  Relative segment, address: CFDC - CFEF (0x14 bytes), align: 1
  Segment part 12.            Intra module refs:   MT_ZdoBeaconIndCB
           LOCAL                   ADDRESS         
           =====                   =======         
           ?Subroutine5            CFDC 
    -------------------------------------------------------------------------
<CODE> 1 (was CODE)
  Relative segment, address: CFF0 - CFF7 (0x8 bytes), align: 1
  Segment part 13.            Intra module refs:   ?Subroutine5
                                                   MT_ZdoJoinCnfCB
                                                   MT_ZdoNwkDiscoveryCnfCB
    -------------------------------------------------------------------------
<CODE> 1 (was CODE)
  Relative segment, address: CFF8 - D055 (0x5e bytes), align: 1
  Segment part 14.            Intra module refs:   MT_ZdoCommandProcessing
           ENTRY                   ADDRESS         REF BY
           =====                   =======         ======
           MT_ZdoJoinReq           CFF8 
               calls direct
               CSTACK = 00000000 ( 0000000E )
    -------------------------------------------------------------------------
<CODE> 1 (was CODE)
  Relative segment, address: D056 - D09F (0x4a bytes), align: 1
  Segment part 15.            Intra module refs:   MT_ZdoCommandProcessing
           ENTRY                   ADDRESS         REF BY
           =====                   =======         ======
           MT_ZdoNetworkDiscoveryReq
                                   D056 
               calls direct
               CSTACK = 00000000 ( 0000000A )
    -------------------------------------------------------------------------
<CODE> 1 (was CODE)
  Relative segment, address: D0A0 - D0B3 (0x14 bytes), align: 1
  Segment part 16.            Intra module refs:   MT_ZdoCommandProcessing
           ENTRY                   ADDRESS         REF BY
           =====                   =======         ======
           MT_ZdoStartupFromApp    D0A0 
               calls direct
               CSTACK = 00000000 ( 0000000A )
    -------------------------------------------------------------------------
<CODE> 1 (was CODE)
  Relative segment, address: D0B4 - D0CB (0x18 bytes), align: 1
  Segment part 17.            Intra module refs:   MT_ZdoNetworkDiscoveryReq
                                                   MT_ZdoRegisterForZDOMsg
                                                   MT_ZdoRemoveRegisteredCB
                                                   MT_ZdoStartupFromApp
           LOCAL                   ADDRESS         
           =====                   =======         
           ?Subroutine1            D0B4 

    *************************************************************************

  FILE NAME : C:\Texas Instruments\ZStack-MSP2618-2.5.1\Projects\zstack\HomeAutomation\SampleSwitch\CC2520DB\EndDevice\Obj\OSAL.r43
  PROGRAM MODULE, NAME : OSAL

  SEGMENTS IN THE MODULE
  ======================
DATA16_Z
  Relative segment, address: 13D6 - 13D7 (0x2 bytes), align: 1
  Segment part 6.             Intra module refs:   osal_init_system
                                                   osal_msg_find
                                                   osal_msg_receive
                                                   osal_msg_send
           ENTRY                   ADDRESS         REF BY
           =====                   =======         ======
           osal_qHead              13D6 
    -------------------------------------------------------------------------
DATA16_I
  Relative segment, address: 11F9 - 11F9 (0x1 bytes), align: 0
  Segment part 7.             Intra module refs:   osal_run_system
           LOCAL                   ADDRESS         
           =====                   =======         
           activeTaskID            11F9 
    -------------------------------------------------------------------------
<CODE> 3 (was CODE)
  Relative segment, address: 000157B0 - 000157B3 (0x4 bytes), align: 1
  Segment part 52.
           ENTRY                   ADDRESS         REF BY
           =====                   =======         ======
           osal_strlen             000157B0        HalLcdWriteString (hal_lcd)
                                                   HalLcdWriteStringValue (hal_lcd)
                                                   debug_str (DebugTrace)
               calls direct
               CSTACK = 00000000 ( 00000004 )
    -------------------------------------------------------------------------
<CODE> 3 (was CODE)
  Relative segment, address: 000152CE - 000152DF (0x12 bytes), align: 1
  Segment part 51.
           ENTRY                   ADDRESS         REF BY
           =====                   =======         ======
           osal_memcpy             000152CE        ?Subroutine11 (zcl)
                                                   ?Subroutine14 (ZDObject)
                                                   ?Subroutine2 (ZMain)
                                                   APSDE_DataIndication (APS)
                                                   APSF_IncomingData (APS)
                                                   APSF_SendFragmented (APS)
                                                   APS_CmdInd (APS)
                                                   APS_DataIndReflect (APS)
                                                   BindWriteNV (BindingTable)
                                                   HalLcdWriteString (hal_lcd)
                                                   HalLcdWriteStringValue (hal_lcd)
                                                   MAC_CbackEvent (zmac_cb)
                                                   MAC_MlmeGetReq (mac_pib)
                                                   MAC_MlmeSetReq (mac_pib)
                                                   MT_BuildSPIMsg (MT)
                                                   MT_SysResetInd (MT_SYS)
                                                   MT_ZdoBeaconIndCB (MT_ZDO)
                                                   MT_ZdoUserDescSet (MT_ZDO)
                                                   NLDE_BuildMsg (APS)
                                                   NLDE_ParseMsg (APS)
                                                   NLME_NetworkReportCB (APS)
                                                   Segment part 270 (mac_beacon)
                                                   Segment part 610 (APS)
                                                   ZDApp_LeaveUpdate (ZDApp)
                                                   ZDApp_SendMsg (ZDApp)
                                                   ZDO_ProcessMatchDescReq (ZDObject)
                                                   ZDO_ProcessUserDescSet (ZDObject)
                                                   ZDO_SendMsgCBs (ZDProfile)
                                                   ZDP_EPRsp (ZDProfile)
                                                   ZDP_UserDescRsp (ZDProfile)
                                                   ZDP_UserDescSet (ZDProfile)
                                                   ZMacDataReqSec (zmac)
                                                   afAPSF_ConfigGet (AF)
                                                   afBuildMSGIncoming (AF)
                                                   bindAddEntry (BindingTable)
                                                   debug_str (DebugTrace)
                                                   macApiAssociateReq (mac_beacon)
                                                   macApiScanReq (mac_beacon)
                                                   macAssociateCnf (mac_beacon)
                                                   macRxAssocRsp (mac_beacon)
                                                   macScanRxBeacon (mac_beacon)
                                                   macSecCpy (mac_beacon)
                                                   macSendMsg (mac_beacon)
                                                   nwk_BeaconFromNative (APS)
                                                   nwk_beacon_notify_ind_processing (APS)
                                                   rxStartIsr (mac_rx)
                                                   sAddrExtCpy (saddr)
                                                   zclReadAttrData (zcl)
                                                   zclRevertWriteUndividedCmd (zcl)
                                                   zclSerializeData (zcl)
                                                   zclWriteAttrData (zcl)
                                                   zcl_SendCommand (zcl)
                                                   zgSetItem (ZGlobals)
                                                   zmain_cert_init (ZMain)
               CSTACK = 00000000 ( 00000004 )
    -------------------------------------------------------------------------
<CODE> 3 (was CODE)
  Relative segment, address: 00014FFE - 00015013 (0x16 bytes), align: 1
  Segment part 48.
           ENTRY                   ADDRESS         REF BY
           =====                   =======         ======
           osal_memcmp             00014FFE        Segment part 20 (ZMain)
                                                   macSrcMatchCheckSrcAddr (mac_autopend)
                                                   zmain_ext_addr (ZMain)
               CSTACK = 00000000 ( 00000004 )
    -------------------------------------------------------------------------
<CODE> 3 (was CODE)
  Relative segment, address: 00015772 - 00015777 (0x6 bytes), align: 1
  Segment part 47.
           ENTRY                   ADDRESS         REF BY
           =====                   =======         ======
           osal_memset             00015772        ?Subroutine27 (ZDSecMgr)
                                                   APSDE_DataReq (APS)
                                                   APS_InitEndDeviceBroadcastTable (APS)
                                                   APS_Reflect (APS)
                                                   AddrMgrExtAddrSet (APS)
                                                   InitBindingTable (BindingTable)
                                                   MT_SysOsalNVRead (MT_SYS)
                                                   NIB_init (nwk_globals)
                                                   NLME_LeaveCmdCnf (APS)
                                                   NLME_LeaveCmdProcess (APS)
                                                   RTG_AddRtgEntry (APS)
                                                   Segment part 139 (APS)
                                                   Segment part 688 (APS)
                                                   ZDApp_InitUserDesc (ZDApp)
                                                   ZDO_beaconNotifyIndCB (ZDApp)
                                                   ZDP_UserDescSet (ZDProfile)
                                                   ZMacScanReq (zmac)
                                                   apsGenerateAck (APS)
                                                   bindRemoveEntry (BindingTable)
                                                   fillAndSend (ZDProfile)
                                                   osalInitTasks (OSAL_SampleSw)
                                                   zclParseHdr (zcl)
                                                   zcl_SendCommand (zcl)
               calls direct
               CSTACK = 00000000 ( 00000004 )
    -------------------------------------------------------------------------
<CODE> 3 (was CODE)
  Relative segment, address: 00015428 - 00015437 (0x10 bytes), align: 1
  Segment part 46.
           ENTRY                   ADDRESS         REF BY
           =====                   =======         ======
           osal_build_uint16       00015428        MT_SysSetUtcTime (MT_SYS)
               CSTACK = 00000000 ( 00000004 )
    -------------------------------------------------------------------------
<CODE> 3 (was CODE)
  Relative segment, address: 000137F0 - 00013837 (0x48 bytes), align: 1
  Segment part 44.
           ENTRY                   ADDRESS         REF BY
           =====                   =======         ======
           osal_build_uint32       000137F0        MT_SysSetUtcTime (MT_SYS)
                                                   MT_ZdoNetworkDiscoveryReq (MT_ZDO)
                                                   macSrcMatchGetEnableBit (mac_autopend)
                                                   macSrcMatchSetPendEnBit (mac_autopend)
                                                   nwk_data_ind_processing (APS)
               CSTACK = 00000000 ( 00000008 )
    -------------------------------------------------------------------------
<CODE> 3 (was CODE)
  Relative segment, address: 00015358 - 00015367 (0x10 bytes), align: 1
  Segment part 45.            Intra module refs:   osal_build_uint32
           LOCAL                   ADDRESS         
           =====                   =======         
           ?Subroutine9            00015358 
    -------------------------------------------------------------------------
<CODE> 2 (was CODE)
  Relative segment, address: FB88 - FCDF (0x158 bytes), align: 1
  Segment part 38.
           ENTRY                   ADDRESS         REF BY
           =====                   =======         ======
           _ltoa                   FB88            ?Subroutine4 (hal_lcd)
                                                   HalLcdWriteValue (hal_lcd)
               calls direct
               CSTACK = 00000000 ( 00000032 )
    -------------------------------------------------------------------------
<CODE> 3 (was CODE)
  Relative segment, address: 00015742 - 00015743 (0x2 bytes), align: 1
  Segment part 39.            Intra module refs:   _ltoa
           LOCAL                   ADDRESS         
           =====                   =======         
           ?Subroutine10           00015742 
    -------------------------------------------------------------------------
<CODE> 3 (was CODE)
  Relative segment, address: 00015744 - 00015749 (0x6 bytes), align: 1
  Segment part 40.            Intra module refs:   ?Subroutine10
                                                   _ltoa
    -------------------------------------------------------------------------
<CODE> 3 (was CODE)
  Relative segment, address: 000154E0 - 000154ED (0xe bytes), align: 1
  Segment part 41.            Intra module refs:   _ltoa
           LOCAL                   ADDRESS         
           =====                   =======         
           ?Subroutine8            000154E0 
    -------------------------------------------------------------------------
<CODE> 3 (was CODE)
  Relative segment, address: 0001571A - 00015721 (0x8 bytes), align: 1
  Segment part 42.            Intra module refs:   _ltoa
           LOCAL                   ADDRESS         
           =====                   =======         
           ?Subroutine7            0001571A 
    -------------------------------------------------------------------------
<CODE> 3 (was CODE)
  Relative segment, address: 000155A6 - 000155AF (0xa bytes), align: 1
  Segment part 43.            Intra module refs:   _ltoa
           LOCAL                   ADDRESS         
           =====                   =======         
           ?Subroutine6            000155A6 
    -------------------------------------------------------------------------
<CODE> 3 (was CODE)
  Relative segment, address: 000157C0 - 000157C3 (0x4 bytes), align: 1
  Segment part 37.
           ENTRY                   ADDRESS         REF BY
           =====                   =======         ======
           osal_rand               000157C0        ?Subroutine9 (ZDApp)
                                                   NIB_init (nwk_globals)
                                                   ZDApp_ProcessOSALMsg (ZDApp)
                                                   ZDOInitDevice (ZDApp)
                                                   nwkNeighborFindRandom (APS)
                                                   nwk_MacDataBuffersAdd (APS)
                                                   zmain_ext_addr (ZMain)
               calls direct
               CSTACK = 00000000 ( 00000004 )
    -------------------------------------------------------------------------
<CODE> 3 (was CODE)
  Relative segment, address: 000143F4 - 0001441F (0x2c bytes), align: 1
  Segment part 36.
           ENTRY                   ADDRESS         REF BY
           =====                   =======         ======
           osal_msg_allocate       000143F4        APSDE_DataIndication (APS)
                                                   APSF_AllocRxObj (APS)
                                                   MAC_CbackEvent (zmac_cb)
                                                   MAC_McpsDataAlloc (mac_beacon)
                                                   MT_ProcessDebugMsg (MT_DEBUG)
                                                   MT_TransportAlloc (MT_TASK)
                                                   MT_UartProcessZToolData (MT_UART)
                                                   NLME_NetworkReportCB (APS)
                                                   OnBoard_SendKeys (OnBoard)
                                                   Segment part 401 (APS)
                                                   ZDApp_SendMsg (ZDApp)
                                                   ZDO_ProcessMatchDescReq (ZDObject)
                                                   ZDO_SendMsgCBs (ZDProfile)
                                                   afBuildMSGIncoming (AF)
                                                   afDataConfirm (AF)
                                                   debug_str (DebugTrace)
                                                   macAllocTxBuffer (mac_beacon)
                                                   macDataRxMemAlloc (mac_beacon)
                                                   macSendDataMsg (mac_beacon)
                                                   macSendMsg (mac_beacon)
                                                   nwkBuildDataCnf (APS)
                                                   nwkChangePanID (APS)
                                                   zclSendMsg (zcl)
                                                   zdoSendStateChangeMsg (ZDObject)
               calls direct
               CSTACK = 00000000 ( 00000006 )
    -------------------------------------------------------------------------
<CODE> 3 (was CODE)
  Relative segment, address: 00014B02 - 00014B21 (0x20 bytes), align: 1
  Segment part 35.            Intra module refs:   osal_msg_send
           ENTRY                   ADDRESS         REF BY
           =====                   =======         ======
           osal_msg_deallocate     00014B02        APSDE_DataIndication (APS)
                                                   APSF_ProcessEvent (APS)
                                                   APSF_Schedule (APS)
                                                   APS_event_loop (APS)
                                                   Hal_ProcessEvent (hal_drivers)
                                                   MT_ProcessDebugMsg (MT_DEBUG)
                                                   MT_ProcessEvent (MT_TASK)
                                                   MT_TransportSend (MT_TASK)
                                                   MT_UartProcessZToolData (MT_UART)
                                                   ZDApp_event_loop (ZDApp)
                                                   ZMacDataReqSec (zmac)
                                                   nwk_broadcastSend (APS)
                                                   nwk_event_loop (APS)
                                                   nwk_sys_event_processing (APS)
                                                   zclSampleSw_event_loop (zcl_samplesw)
                                                   zcl_event_loop (zcl)
               calls direct
               CSTACK = 00000000 ( 00000004 )
    -------------------------------------------------------------------------
<CODE> 3 (was CODE)
  Relative segment, address: 000134F8 - 00013545 (0x4e bytes), align: 1
  Segment part 34.
           ENTRY                   ADDRESS         REF BY
           =====                   =======         ======
           osal_msg_send           000134F8        ?Subroutine0 (AF)
                                                   ?Subroutine5 (zcl)
                                                   APSDE_DataIndication (APS)
                                                   APSF_IncomingData (APS)
                                                   APSF_SendOsalMsg (APS)
                                                   APS_CmdInd (APS)
                                                   MAC_CbackEvent (zmac_cb)
                                                   MT_UartProcessZToolData (MT_UART)
                                                   OnBoard_SendKeys (OnBoard)
                                                   Segment part 137 (mac_beacon)
                                                   Segment part 145 (mac_beacon)
                                                   Segment part 473 (APS)
                                                   ZDApp_SendMsg (ZDApp)
                                                   ZDO_ProcessMatchDescReq (ZDObject)
                                                   ZDO_SendMsgCBs (ZDProfile)
                                                   debug_str (DebugTrace)
                                                   nwkBuildDataCnf (APS)
                                                   zdoSendStateChangeMsg (ZDObject)
               calls direct
               CSTACK = 00000000 ( 00000006 )
    -------------------------------------------------------------------------
<CODE> 3 (was CODE)
  Relative segment, address: 00013202 - 00013259 (0x58 bytes), align: 1
  Segment part 33.
           ENTRY                   ADDRESS         REF BY
           =====                   =======         ======
           osal_msg_receive        00013202        APSF_ProcessEvent (APS)
                                                   APS_event_loop (APS)
                                                   Hal_ProcessEvent (hal_drivers)
                                                   MT_ProcessEvent (MT_TASK)
                                                   ZDApp_event_loop (ZDApp)
                                                   macEventLoop (mac_beacon)
                                                   macMainReset (mac_beacon)
                                                   nwk_sys_event_processing (APS)
                                                   zclSampleSw_event_loop (zcl_samplesw)
                                                   zcl_event_loop (zcl)
               calls direct
               CSTACK = 00000000 ( 0000000C )
    -------------------------------------------------------------------------
<CODE> 3 (was CODE)
  Relative segment, address: 0001285C - 00012879 (0x1e bytes), align: 1
  Segment part 29.
           ENTRY                   ADDRESS         REF BY
           =====                   =======         ======
           osal_msg_dequeue        0001285C        macDataReset (mac_beacon)
                                                   macEventLoop (mac_beacon)
               CSTACK = 00000000 ( 00000004 )
    -------------------------------------------------------------------------
<CODE> 3 (was CODE)
  Relative segment, address: 0001287A - 0001287F (0x6 bytes), align: 1
  Segment part 30.            Intra module refs:   osal_msg_dequeue
                                                   osal_msg_find
           LOCAL                   ADDRESS         
           =====                   =======         
           ?Subroutine2            0001287A 
    -------------------------------------------------------------------------
<CODE> 3 (was CODE)
  Relative segment, address: 00012880 - 000128A7 (0x28 bytes), align: 1
  Segment part 31.            Intra module refs:   osal_msg_send
           ENTRY                   ADDRESS         REF BY
           =====                   =======         ======
           osal_msg_enqueue        00012880        macRxCompleteCallback (mac_beacon)
               CSTACK = 00000000 ( 00000004 )
    -------------------------------------------------------------------------
<CODE> 3 (was CODE)
  Relative segment, address: 000128A8 - 000128C9 (0x22 bytes), align: 1
  Segment part 32.
           ENTRY                   ADDRESS         REF BY
           =====                   =======         ======
           osal_msg_find           000128A8        zdoSendStateChangeMsg (ZDObject)
               CSTACK = 00000000 ( 00000004 )
    -------------------------------------------------------------------------
<CODE> 3 (was CODE)
  Relative segment, address: 00014620 - 00014647 (0x28 bytes), align: 1
  Segment part 27.            Intra module refs:   osal_msg_receive
           ENTRY                   ADDRESS         REF BY
           =====                   =======         ======
           osal_msg_extract        00014620        Segment part 293 (mac_beacon)
                                                   nwk_broadcastReceive (APS)
               CSTACK = 00000000 ( 00000006 )
    -------------------------------------------------------------------------
<CODE> 3 (was CODE)
  Relative segment, address: 00013DE6 - 00013E1D (0x38 bytes), align: 1
  Segment part 26.
           ENTRY                   ADDRESS         REF BY
           =====                   =======         ======
           osal_msg_enqueue_max    00013DE6        macDataTxEnqueue (mac_beacon)
                                                   nwk_broadcastSend (APS)
               CSTACK = 00000000 ( 00000008 )
    -------------------------------------------------------------------------
<CODE> 3 (was CODE)
  Relative segment, address: 0001390E - 00013929 (0x1c bytes), align: 1
  Segment part 22.            Intra module refs:   osal_msg_receive
           ENTRY                   ADDRESS         REF BY
           =====                   =======         ======
           osal_clear_event        0001390E        nwk_broadcastReceive (APS)
               CSTACK = 00000000 ( 00000004 )
    -------------------------------------------------------------------------
<CODE> 3 (was CODE)
  Relative segment, address: 0001392A - 0001392F (0x6 bytes), align: 1
  Segment part 23.            Intra module refs:   osal_clear_event
                                                   osal_set_event
           LOCAL                   ADDRESS         
           =====                   =======         
           ?Subroutine4            0001392A 
    -------------------------------------------------------------------------
<CODE> 3 (was CODE)
  Relative segment, address: 00013930 - 00013935 (0x6 bytes), align: 1
  Segment part 24.            Intra module refs:   osal_clear_event
                                                   osal_set_event
           LOCAL                   ADDRESS         
           =====                   =======         
           ?Subroutine1            00013930 
    -------------------------------------------------------------------------
<CODE> 3 (was CODE)
  Relative segment, address: 00013936 - 00013953 (0x1e bytes), align: 1
  Segment part 25.            Intra module refs:   osal_msg_receive
                                                   osal_msg_send
           ENTRY                   ADDRESS         REF BY
           =====                   =======         ======
           osal_set_event          00013936        ?Subroutine3 (ZDApp)
                                                   ?Subroutine6 (MT_AF)
                                                   HalKeyConfig (hal_key)
                                                   HalLedBlink (hal_led)
                                                   MT_TaskInit (MT_TASK)
                                                   NLME_SetPollRate (APS)
                                                   Segment part 107 (ZDApp)
                                                   Segment part 258 (APS)
                                                   Segment part 627 (APS)
                                                   macSetEvent (mac_beacon)
                                                   nwk_broadcastReceive (APS)
                                                   osalTimerUpdate (OSAL_Timers)
                                                   zdoSendStateChangeMsg (ZDObject)
               CSTACK = 00000000 ( 00000004 )
    -------------------------------------------------------------------------
<CODE> 3 (was CODE)
  Relative segment, address: 00014BE2 - 00014BED (0xc bytes), align: 1
  Segment part 18.
           ENTRY                   ADDRESS         REF BY
           =====                   =======         ======
           osal_int_disable        00014BE2        InitBoard (OnBoard)
                                                   ZMacInit (zmac)
                                                   main (ZMain)
               CSTACK = 00000000 ( 00000004 )
    -------------------------------------------------------------------------
<CODE> 3 (was CODE)
  Relative segment, address: 00014BEE - 00014BF3 (0x6 bytes), align: 1
  Segment part 19.            Intra module refs:   osal_int_disable
                                                   osal_int_enable
           LOCAL                   ADDRESS         
           =====                   =======         
           ?Subroutine3            00014BEE 
    -------------------------------------------------------------------------
<CODE> 3 (was CODE)
  Relative segment, address: 00014BF4 - 00014BFF (0xc bytes), align: 1
  Segment part 20.
           ENTRY                   ADDRESS         REF BY
           =====                   =======         ======
           osal_int_enable         00014BF4        main (ZMain)
               CSTACK = 00000000 ( 00000004 )
    -------------------------------------------------------------------------
<CODE> 3 (was CODE)
  Relative segment, address: 00014D2C - 00014D47 (0x1c bytes), align: 1
  Segment part 17.
           ENTRY                   ADDRESS         REF BY
           =====                   =======         ======
           osal_init_system        00014D2C        main (ZMain)
               calls direct
               CSTACK = 00000000 ( 00000004 )
    -------------------------------------------------------------------------
<CODE> 3 (was CODE)
  Relative segment, address: 00015760 - 00015765 (0x6 bytes), align: 1
  Segment part 16.
           ENTRY                   ADDRESS         REF BY
           =====                   =======         ======
           osal_start_system       00015760        main (ZMain)
               calls direct
               CSTACK = 00000000 ( 00000004 )
    -------------------------------------------------------------------------
<CODE> 3 (was CODE)
  Relative segment, address: 0001262E - 0001269F (0x72 bytes), align: 1
  Segment part 15.            Intra module refs:   osal_start_system
           ENTRY                   ADDRESS         REF BY
           =====                   =======         ======
           osal_run_system         0001262E 
               calls direct and indirect
               CSTACK = 00000000 ( 00000008 )
    -------------------------------------------------------------------------
<CODE> 3 (was CODE)
  Relative segment, address: 00014E90 - 00014E93 (0x4 bytes), align: 1
  Segment part 11.
           ENTRY                   ADDRESS         REF BY
           =====                   =======         ======
           osal_buffer_uint24      00014E90        ?Subroutine0 (mac_autopend)
               CSTACK = 00000000 ( 00000004 )
    -------------------------------------------------------------------------
<CODE> 3 (was CODE)
  Relative segment, address: 00014E94 - 00014E9B (0x8 bytes), align: 1
  Segment part 12.            Intra module refs:   osal_buffer_uint24
                                                   osal_buffer_uint32
           LOCAL                   ADDRESS         
           =====                   =======         
           ?Subroutine0            00014E94 
    -------------------------------------------------------------------------
<CODE> 3 (was CODE)
  Relative segment, address: 00014E9C - 00014EA9 (0xe bytes), align: 1
  Segment part 13.
           ENTRY                   ADDRESS         REF BY
           =====                   =======         ======
           osal_buffer_uint32      00014E9C        MT_SysGetUtcTime (MT_SYS)
                                                   zclSerializeData (zcl)
               CSTACK = 00000000 ( 00000004 )
    -------------------------------------------------------------------------
<CODE> 3 (was CODE)
  Relative segment, address: 000150A0 - 000150B3 (0x14 bytes), align: 1
  Segment part 14.            Intra module refs:   osal_buffer_uint24
                                                   osal_buffer_uint32
           LOCAL                   ADDRESS         
           =====                   =======         
           ?Subroutine5            000150A0 
    -------------------------------------------------------------------------
DATA16_ID
  Relative segment, address: 3A11 - 3A11 (0x1 bytes), align: 0
  Segment part 8.             Intra module refs:   activeTaskID
    -------------------------------------------------------------------------
DATA16_C
  Relative segment, address: 3722 - 3723 (0x2 bytes), align: 0
  Segment part 5.             Intra module refs:   ?Subroutine8
                                                   _ltoa

    *************************************************************************

  FILE NAME : C:\Texas Instruments\ZStack-MSP2618-2.5.1\Projects\zstack\HomeAutomation\SampleSwitch\CC2520DB\EndDevice\Obj\OSAL_Clock.r43
  PROGRAM MODULE, NAME : OSAL_Clock

  SEGMENTS IN THE MODULE
  ======================
DATA16_Z
  Relative segment, address: 13D8 - 13DB (0x4 bytes), align: 1
  Segment part 2.             Intra module refs:   osalTimeUpdate
           LOCAL                   ADDRESS         
           =====                   =======         
           previousMacTimerTick    13D8 
    -------------------------------------------------------------------------
DATA16_Z
  Relative segment, address: 13DC - 13DD (0x2 bytes), align: 1
  Segment part 3.             Intra module refs:   osalTimeUpdate
           LOCAL                   ADDRESS         
           =====                   =======         
           remUsTicks              13DC 
    -------------------------------------------------------------------------
DATA16_Z
  Relative segment, address: 13DE - 13DF (0x2 bytes), align: 1
  Segment part 4.             Intra module refs:   osalTimeUpdate
           LOCAL                   ADDRESS         
           =====                   =======         
           timeMSec                13DE 
    -------------------------------------------------------------------------
DATA16_Z
  Relative segment, address: 13E0 - 13E3 (0x4 bytes), align: 1
  Segment part 5.             Intra module refs:   osalTimeUpdate
                                                   osal_getClock
                                                   osal_setClock
           ENTRY                   ADDRESS         REF BY
           =====                   =======         ======
           OSAL_timeSeconds        13E0 
    -------------------------------------------------------------------------
<CODE> 3 (was CODE)
  Relative segment, address: 00012076 - 00012103 (0x8e bytes), align: 1
  Segment part 18.
           ENTRY                   ADDRESS         REF BY
           =====                   =======         ======
           osalTimeUpdate          00012076        osal_run_system (OSAL)
               calls direct
               CSTACK = 00000000 ( 0000000A )
    -------------------------------------------------------------------------
<CODE> 3 (was CODE)
  Relative segment, address: 00015470 - 00015477 (0x8 bytes), align: 1
  Segment part 20.            Intra module refs:   osal_ConvertUTCTime
           LOCAL                   ADDRESS         
           =====                   =======         
           ?Subroutine2            00015470 
    -------------------------------------------------------------------------
<CODE> 3 (was CODE)
  Relative segment, address: 00015478 - 0001547D (0x6 bytes), align: 1
  Segment part 21.            Intra module refs:   ?Subroutine2
                                                   osalTimeUpdate
                                                   osal_ConvertUTCTime
    -------------------------------------------------------------------------
<CODE> 3 (was CODE)
  Relative segment, address: 00015600 - 00015609 (0xa bytes), align: 1
  Segment part 17.
           ENTRY                   ADDRESS         REF BY
           =====                   =======         ======
           osal_setClock           00015600        MT_SysSetUtcTime (MT_SYS)
               CSTACK = 00000000 ( 00000004 )
    -------------------------------------------------------------------------
<CODE> 3 (was CODE)
  Relative segment, address: 00015632 - 0001563B (0xa bytes), align: 1
  Segment part 16.
           ENTRY                   ADDRESS         REF BY
           =====                   =======         ======
           osal_getClock           00015632        MT_SysGetUtcTime (MT_SYS)
               CSTACK = 00000000 ( 00000004 )
    -------------------------------------------------------------------------
<CODE> 3 (was CODE)
  Relative segment, address: 00010292 - 00010297 (0x6 bytes), align: 1
  Segment part 7.             Intra module refs:   osal_ConvertUTCSecs
           LOCAL                   ADDRESS         
           =====                   =======         
           ?Subroutine3            00010292 
    -------------------------------------------------------------------------
<CODE> 3 (was CODE)
  Relative segment, address: 00010298 - 0001029F (0x8 bytes), align: 1
  Segment part 8.             Intra module refs:   ?Subroutine1
                                                   ?Subroutine3
           LOCAL                   ADDRESS         
           =====                   =======         
           ?Subroutine7            00010298 
    -------------------------------------------------------------------------
<CODE> 3 (was CODE)
  Relative segment, address: 000102A0 - 000102C3 (0x24 bytes), align: 1
  Segment part 9.             Intra module refs:   osal_ConvertUTCSecs
                                                   osal_ConvertUTCTime
           LOCAL                   ADDRESS         
           =====                   =======         
           monthLength             000102A0 
               CSTACK = 00000000 ( 00000004 )
    -------------------------------------------------------------------------
<CODE> 3 (was CODE)
  Relative segment, address: 000102C4 - 000103BB (0xf8 bytes), align: 1
  Segment part 10.
           ENTRY                   ADDRESS         REF BY
           =====                   =======         ======
           osal_ConvertUTCTime     000102C4        MT_SysGetUtcTime (MT_SYS)
               calls direct
               CSTACK = 00000000 ( 00000010 )
    -------------------------------------------------------------------------
<CODE> 3 (was CODE)
  Relative segment, address: 000103BC - 000103C5 (0xa bytes), align: 1
  Segment part 11.            Intra module refs:   osal_ConvertUTCTime
           LOCAL                   ADDRESS         
           =====                   =======         
           ?Subroutine5            000103BC 
    -------------------------------------------------------------------------
<CODE> 3 (was CODE)
  Relative segment, address: 000103C6 - 000103CB (0x6 bytes), align: 1
  Segment part 12.            Intra module refs:   osal_ConvertUTCTime
           LOCAL                   ADDRESS         
           =====                   =======         
           ?Subroutine1            000103C6 
    -------------------------------------------------------------------------
<CODE> 3 (was CODE)
  Relative segment, address: 0001553C - 0001553F (0x4 bytes), align: 1
  Segment part 13.            Intra module refs:   osal_ConvertUTCTime
           LOCAL                   ADDRESS         
           =====                   =======         
           ?Subroutine0            0001553C 
    -------------------------------------------------------------------------
<CODE> 3 (was CODE)
  Relative segment, address: 00015540 - 00015547 (0x8 bytes), align: 1
  Segment part 14.            Intra module refs:   ?Subroutine0
                                                   osal_ConvertUTCSecs
    -------------------------------------------------------------------------
<CODE> 3 (was CODE)
  Relative segment, address: 00015696 - 0001569F (0xa bytes), align: 1
  Segment part 15.            Intra module refs:   Segment part 14
                                                   osal_ConvertUTCTime
           LOCAL                   ADDRESS         
           =====                   =======         
           ?Subroutine6            00015696 
    -------------------------------------------------------------------------
<CODE> 3 (was CODE)
  Relative segment, address: 00011AE6 - 00011B8B (0xa6 bytes), align: 1
  Segment part 6.
           ENTRY                   ADDRESS         REF BY
           =====                   =======         ======
           osal_ConvertUTCSecs     00011AE6        MT_SysSetUtcTime (MT_SYS)
               calls direct
               CSTACK = 00000000 ( 00000010 )
    -------------------------------------------------------------------------
<CODE> 3 (was CODE)
  Relative segment, address: 000156B4 - 000156BD (0xa bytes), align: 1
  Segment part 19.            Intra module refs:   osalTimeUpdate
           LOCAL                   ADDRESS         
           =====                   =======         
           ?Subroutine4            000156B4 

    *************************************************************************

  FILE NAME : C:\Texas Instruments\ZStack-MSP2618-2.5.1\Projects\zstack\HomeAutomation\SampleSwitch\CC2520DB\EndDevice\Obj\OSAL_Memory.r43
  PROGRAM MODULE, NAME : OSAL_Memory

  SEGMENTS IN THE MODULE
  ======================
DATA16_N
  Relative segment, address: 1A7E - 227D (0x800 bytes), align: 1
  Segment part 2.             Intra module refs:   osal_mem_alloc
                                                   osal_mem_free
                                                   osal_mem_init
           LOCAL                   ADDRESS         
           =====                   =======         
           theHeap                 1A7E 
    -------------------------------------------------------------------------
DATA16_N
  Relative segment, address: 227E - 227F (0x2 bytes), align: 1
  Segment part 3.             Intra module refs:   osal_mem_alloc
                                                   osal_mem_free
                                                   osal_mem_init
                                                   osal_mem_kick
           LOCAL                   ADDRESS         
           =====                   =======         
           ff1                     227E 
    -------------------------------------------------------------------------
DATA16_Z
  Relative segment, address: 19BF - 19BF (0x1 bytes), align: 0
  Segment part 4.             Intra module refs:   osal_mem_alloc
                                                   osal_mem_kick
           LOCAL                   ADDRESS         
           =====                   =======         
           osalMemStat             19BF 
    -------------------------------------------------------------------------
<CODE> 3 (was CODE)
  Relative segment, address: 00014C96 - 00014CB3 (0x1e bytes), align: 1
  Segment part 9.
           ENTRY                   ADDRESS         REF BY
           =====                   =======         ======
           osal_mem_init           00014C96        osal_init_system (OSAL)
               CSTACK = 00000000 ( 00000004 )
    -------------------------------------------------------------------------
<CODE> 3 (was CODE)
  Relative segment, address: 000142E0 - 0001430F (0x30 bytes), align: 1
  Segment part 8.
           ENTRY                   ADDRESS         REF BY
           =====                   =======         ======
           osal_mem_kick           000142E0        osal_init_system (OSAL)
               calls direct
               CSTACK = 00000000 ( 00000008 )
    -------------------------------------------------------------------------
<CODE> 3 (was CODE)
  Relative segment, address: 000114CA - 00011587 (0xbe bytes), align: 1
  Segment part 7.             Intra module refs:   osal_mem_kick
           ENTRY                   ADDRESS         REF BY
           =====                   =======         ======
           osal_mem_alloc          000114CA        ?Subroutine12 (ZDObject)
                                                   ?Subroutine15 (ZDSecMgr)
                                                   ?Subroutine5 (ZDObject)
                                                   ?Subroutine6 (zcl)
                                                   APSF_AllocRxObj (APS)
                                                   AddrMgrInit (APS)
                                                   HalLcdWriteString (hal_lcd)
                                                   HalUARTOpen (hal_uart)
                                                   MT_ProcessDebugStr (MT_DEBUG)
                                                   MT_SysGetUtcTime (MT_SYS)
                                                   MT_SysOsalNVRead (MT_SYS)
                                                   MT_ZdoBeaconIndCB (MT_ZDO)
                                                   NLDE_BuildMsg (APS)
                                                   NLDE_FrameDataLoad (APS)
                                                   NLDE_SendMsg (APS)
                                                   NLME_NwkDiscReq2 (APS)
                                                   Segment part 30 (zcl)
                                                   Segment part 400 (APS)
                                                   Segment part 481 (APS)
                                                   Segment part 54 (ZDObject)
                                                   Segment part 82 (zcl)
                                                   ZDO_RegisterForZDOMsg (ZDProfile)
                                                   ZDO_beaconNotifyIndCB (ZDApp)
                                                   ZMacScanReq (zmac)
                                                   afRegisterExtended (AF)
                                                   nwkAddPanId (APS)
                                                   nwkDB_CreateHdr (APS)
                                                   osalAddTimer (OSAL_Timers)
                                                   osalInitTasks (OSAL_SampleSw)
                                                   osal_msg_allocate (OSAL)
                                                   zclGeneral_RegisterCmdCallbacks (zcl_general)
                                                   zclHA_Init (zcl_ha)
                                                   zclProcessInReadCmd (zcl)
                                                   zclProcessInWriteUndividedCmd (zcl)
                                                   zcl_SendWriteRsp (zcl)
               calls direct
               CSTACK = 00000000 ( 0000000C )
    -------------------------------------------------------------------------
<CODE> 3 (was CODE)
  Relative segment, address: 00013C12 - 00013C4D (0x3c bytes), align: 1
  Segment part 6.             Intra module refs:   osal_mem_kick
           ENTRY                   ADDRESS         REF BY
           =====                   =======         ======
           osal_mem_free           00013C12        AF_DataRequest (AF)
                                                   APSF_FreeObj (APS)
                                                   HalLcdWriteString (hal_lcd)
                                                   MAC_CbackEvent (zmac_cb)
                                                   MT_AfExec (MT_AF)
                                                   MT_ProcessDebugStr (MT_DEBUG)
                                                   MT_SysGetUtcTime (MT_SYS)
                                                   MT_SysOsalNVRead (MT_SYS)
                                                   MT_ZdoBeaconIndCB (MT_ZDO)
                                                   NLDE_DataReqSend (APS)
                                                   NLDE_SendMsg (APS)
                                                   NLME_NwkDiscTerm (APS)
                                                   Segment part 162 (APS)
                                                   Segment part 238 (APS)
                                                   Segment part 337 (APS)
                                                   Segment part 65 (zcl)
                                                   ZDApp_ProcessMsgCBs (ZDApp)
                                                   ZDO_ProcessMatchDescReq (ZDObject)
                                                   ZDO_ProcessSimpleDescReq (ZDObject)
                                                   ZDO_RemoveRegisteredCB (ZDProfile)
                                                   ZDSecMgrEntryFree (ZDSecMgr)
                                                   ZMacReset (zmac)
                                                   afIncomingData (AF)
                                                   mac_msg_deallocate (mac_beacon)
                                                   nwkDB_DeleteRecAll (APS)
                                                   nwkFreePanIdList (APS)
                                                   nwk_desc_list_free (APS)
                                                   osalTimerUpdate (OSAL_Timers)
                                                   osal_msg_deallocate (OSAL)
                                                   zclProcessInReadCmd (zcl)
                                                   zclProcessInWriteUndividedCmd (zcl)
                                                   zclProcessMessageMSG (zcl)
                                                   zclSampleSw_ProcessIncomingMsg (zcl_samplesw)
                                                   zclSampleSw_ProcessZDOMsgs (zcl_samplesw)
                                                   zcl_SendWriteRsp (zcl)
               calls direct
               CSTACK = 00000000 ( 00000006 )

    *************************************************************************

  FILE NAME : C:\Texas Instruments\ZStack-MSP2618-2.5.1\Projects\zstack\HomeAutomation\SampleSwitch\CC2520DB\EndDevice\Obj\OSAL_Nv.r43
  PROGRAM MODULE, NAME : OSAL_Nv

  SEGMENTS IN THE MODULE
  ======================
DATA16_C
  Relative segment, address: 339A - 339F (0x6 bytes), align: 1
  Segment part 2.             Intra module refs:   hotItem
           LOCAL                   ADDRESS         
           =====                   =======         
           hotIds                  339A 
    -------------------------------------------------------------------------
ZIGNV_ADDRESS_SPACE
  Relative segment, address: E200 - F9FF (0x1800 bytes), align: 0
  Segment part 3.             Intra module refs:   pgOff
           ENTRY                   ADDRESS         REF BY
           =====                   =======         ======
           _nvBuf                  E200 
    -------------------------------------------------------------------------
DATA16_Z
  Relative segment, address: 13E4 - 13EF (0xc bytes), align: 1
  Segment part 4.             Intra module refs:   compactPage
                                                   erasePage
                                                   initItem
                                                   initPage
                                                   osal_nv_write
                                                   writeItem
           LOCAL                   ADDRESS         
           =====                   =======         
           pgOff                   13E4 
    -------------------------------------------------------------------------
DATA16_Z
  Relative segment, address: 13F0 - 13FB (0xc bytes), align: 1
  Segment part 5.             Intra module refs:   erasePage
                                                   initItem
                                                   initNV
                                                   initPage
                                                   setItem
                                                   writeItem
           LOCAL                   ADDRESS         
           =====                   =======         
           pgLost                  13F0 
    -------------------------------------------------------------------------
DATA16_Z
  Relative segment, address: 19C0 - 19C0 (0x1 bytes), align: 0
  Segment part 6.             Intra module refs:   compactPage
                                                   initItem
                                                   initNV
                                                   osal_nv_write
           LOCAL                   ADDRESS         
           =====                   =======         
           pgRes                   19C0 
    -------------------------------------------------------------------------
DATA16_Z
  Relative segment, address: 19C1 - 19C3 (0x3 bytes), align: 0
  Segment part 7.             Intra module refs:   ?Subroutine4
                                                   hotItemUpdate
           LOCAL                   ADDRESS         
           =====                   =======         
           hotPg                   19C1 
    -------------------------------------------------------------------------
DATA16_Z
  Relative segment, address: 13FC - 1401 (0x6 bytes), align: 1
  Segment part 8.             Intra module refs:   ?Subroutine4
                                                   hotItemUpdate
           LOCAL                   ADDRESS         
           =====                   =======         
           hotOff                  13FC 
    -------------------------------------------------------------------------
<CODE> 1 (was CODE)
  Relative segment, address: C3D8 - C429 (0x52 bytes), align: 1
  Segment part 31.            Intra module refs:   Segment part 46
                                                   compactPage
                                                   initPage
           LOCAL                   ADDRESS         
           =====                   =======         
           setItem                 C3D8 
               calls direct
               CSTACK = 00000000 ( 00000014 )
    -------------------------------------------------------------------------
<CODE> 1 (was CODE)
  Relative segment, address: C42A - C42F (0x6 bytes), align: 1
  Segment part 32.            Intra module refs:   initNV
                                                   setItem
           LOCAL                   ADDRESS         
           =====                   =======         
           ?Subroutine1            C42A 
    -------------------------------------------------------------------------
<CODE> 1 (was CODE)
  Relative segment, address: C430 - C4ED (0xbe bytes), align: 1
  Segment part 33.            Intra module refs:   osal_nv_item_init
                                                   osal_nv_write
           LOCAL                   ADDRESS         
           =====                   =======         
           initItem                C430 
               calls direct
               CSTACK = 00000000 ( 00000018 )
    -------------------------------------------------------------------------
<CODE> 1 (was CODE)
  Relative segment, address: C4EE - C527 (0x3a bytes), align: 1
  Segment part 34.            Intra module refs:   ?Subroutine2
                                                   initPage
                                                   osal_nv_delete
                                                   osal_nv_read
                                                   osal_nv_write
           LOCAL                   ADDRESS         
           =====                   =======         
           findItem                C4EE 
               calls direct
               CSTACK = 00000000 ( 0000000C )
    -------------------------------------------------------------------------
<CODE> 1 (was CODE)
  Relative segment, address: C528 - C627 (0x100 bytes), align: 1
  Segment part 35.            Intra module refs:   initItem
                                                   initNV
           LOCAL                   ADDRESS         
           =====                   =======         
           compactPage             C528 
               calls direct
               CSTACK = 00000000 ( 00000020 )
    -------------------------------------------------------------------------
<CODE> 1 (was CODE)
  Relative segment, address: C628 - C631 (0xa bytes), align: 1
  Segment part 36.            Intra module refs:   compactPage
                                                   initItem
           LOCAL                   ADDRESS         
           =====                   =======         
           ?Subroutine10           C628 
    -------------------------------------------------------------------------
<CODE> 1 (was CODE)
  Relative segment, address: C632 - C633 (0x2 bytes), align: 1
  Segment part 37.            Intra module refs:   compactPage
                                                   initPage
                                                   writeItem
           LOCAL                   ADDRESS         
           =====                   =======         
           ?Subroutine9            C632 
    -------------------------------------------------------------------------
<CODE> 1 (was CODE)
  Relative segment, address: C634 - C639 (0x6 bytes), align: 1
  Segment part 38.            Intra module refs:   ?Subroutine9
                                                   osal_nv_write
    -------------------------------------------------------------------------
<CODE> 1 (was CODE)
  Relative segment, address: C63A - C63F (0x6 bytes), align: 1
  Segment part 39.            Intra module refs:   compactPage
                                                   initPage
           LOCAL                   ADDRESS         
           =====                   =======         
           ?Subroutine8            C63A 
    -------------------------------------------------------------------------
<CODE> 1 (was CODE)
  Relative segment, address: C640 - C641 (0x2 bytes), align: 1
  Segment part 40.            Intra module refs:   ?Subroutine8
                                                   writeItem
    -------------------------------------------------------------------------
<CODE> 1 (was CODE)
  Relative segment, address: C642 - C647 (0x6 bytes), align: 1
  Segment part 41.            Intra module refs:   Segment part 40
                                                   osal_nv_write
                                                   writeItem
    -------------------------------------------------------------------------
<CODE> 1 (was CODE)
  Relative segment, address: C648 - C673 (0x2c bytes), align: 1
  Segment part 42.            Intra module refs:   ?Subroutine10
                                                   compactPage
                                                   initNV
                                                   osal_nv_write
           LOCAL                   ADDRESS         
           =====                   =======         
           erasePage               C648 
               calls direct
               CSTACK = 00000000 ( 00000008 )
    -------------------------------------------------------------------------
<CODE> 1 (was CODE)
  Relative segment, address: C674 - C739 (0xc6 bytes), align: 1
  Segment part 43.            Intra module refs:   findItem
                                                   initNV
           LOCAL                   ADDRESS         
           =====                   =======         
           initPage                C674 
               calls direct
               CSTACK = 00000000 ( 0000001A )
    -------------------------------------------------------------------------
<CODE> 1 (was CODE)
  Relative segment, address: C73A - C749 (0x10 bytes), align: 1
  Segment part 44.            Intra module refs:   compactPage
                                                   initPage
           LOCAL                   ADDRESS         
           =====                   =======         
           ?Subroutine11           C73A 
    -------------------------------------------------------------------------
<CODE> 1 (was CODE)
  Relative segment, address: C74A - C74B (0x2 bytes), align: 1
  Segment part 45.            Intra module refs:   osal_nv_write
           LOCAL                   ADDRESS         
           =====                   =======         
           ?Subroutine5            C74A 
    -------------------------------------------------------------------------
<CODE> 1 (was CODE)
  Relative segment, address: C74C - C753 (0x8 bytes), align: 1
  Segment part 46.            Intra module refs:   ?Subroutine5
                                                   initPage
                                                   osal_nv_delete
    -------------------------------------------------------------------------
<CODE> 1 (was CODE)
  Relative segment, address: C754 - C779 (0x26 bytes), align: 1
  Segment part 47.            Intra module refs:   ?Subroutine10
                                                   initNV
                                                   osal_nv_write
           LOCAL                   ADDRESS         
           =====                   =======         
           setPageUse              C754 
               calls direct
               CSTACK = 00000000 ( 0000000C )
    -------------------------------------------------------------------------
<CODE> 1 (was CODE)
  Relative segment, address: C77A - C85D (0xe4 bytes), align: 1
  Segment part 48.            Intra module refs:   osal_nv_init
           LOCAL                   ADDRESS         
           =====                   =======         
           initNV                  C77A 
               calls direct
               CSTACK = 00000000 ( 00000014 )
    -------------------------------------------------------------------------
<CODE> 3 (was CODE)
  Relative segment, address: 000154D2 - 000154D3 (0x2 bytes), align: 1
  Segment part 26.            Intra module refs:   readHdr
                                                   setPageUse
                                                   writeBuf
           LOCAL                   ADDRESS         
           =====                   =======         
           ?Subroutine3            000154D2 
    -------------------------------------------------------------------------
<CODE> 3 (was CODE)
  Relative segment, address: 000154D4 - 000154D5 (0x2 bytes), align: 1
  Segment part 27.            Intra module refs:   ?Subroutine3
                                                   compactPage
                                                   xferBuf
    -------------------------------------------------------------------------
<CODE> 3 (was CODE)
  Relative segment, address: 000154D6 - 000154DF (0xa bytes), align: 1
  Segment part 28.            Intra module refs:   ?Subroutine3
                                                   Segment part 27
                                                   initItem
                                                   setItem
           LOCAL                   ADDRESS         
           =====                   =======         
           ?Subroutine12           000154D6 
    -------------------------------------------------------------------------
<CODE> 3 (was CODE)
  Relative segment, address: 00014BA2 - 00014BC1 (0x20 bytes), align: 1
  Segment part 30.            Intra module refs:   Segment part 38
                                                   compactPage
           LOCAL                   ADDRESS         
           =====                   =======         
           calcChkF                00014BA2 
               CSTACK = 00000000 ( 00000004 )
    -------------------------------------------------------------------------
<CODE> 3 (was CODE)
  Relative segment, address: 0001508C - 0001509F (0x14 bytes), align: 1
  Segment part 29.            Intra module refs:   Segment part 41
                                                   compactPage
                                                   initNV
                                                   osal_nv_item_len
                                                   osal_nv_write
                                                   setItem
           LOCAL                   ADDRESS         
           =====                   =======         
           readHdr                 0001508C 
               CSTACK = 00000000 ( 00000004 )
    -------------------------------------------------------------------------
<CODE> 3 (was CODE)
  Relative segment, address: 00014FE8 - 00014FFD (0x16 bytes), align: 1
  Segment part 25.            Intra module refs:   osal_nv_write
                                                   writeItem
           LOCAL                   ADDRESS         
           =====                   =======         
           writeBuf                00014FE8 
               calls direct
               CSTACK = 00000000 ( 00000006 )
    -------------------------------------------------------------------------
<CODE> 1 (was CODE)
  Relative segment, address: C85E - C89F (0x42 bytes), align: 1
  Segment part 9.
           ENTRY                   ADDRESS         REF BY
           =====                   =======         ======
           osal_nv_delete          C85E            MT_SysOsalNVDelete (MT_SYS)
               calls direct
               CSTACK = 00000000 ( 0000000E )
    -------------------------------------------------------------------------
<CODE> 1 (was CODE)
  Relative segment, address: C8A0 - C8A5 (0x6 bytes), align: 1
  Segment part 10.            Intra module refs:   osal_nv_delete
                                                   osal_nv_item_init
                                                   osal_nv_read
           LOCAL                   ADDRESS         
           =====                   =======         
           ?Subroutine0            C8A0 
    -------------------------------------------------------------------------
<CODE> 1 (was CODE)
  Relative segment, address: C8A6 - C8EB (0x46 bytes), align: 1
  Segment part 11.
           ENTRY                   ADDRESS         REF BY
           =====                   =======         ======
           osal_nv_read            C8A6            ?Subroutine0 (ZGlobals)
                                                   BindRestoreFromNV (BindingTable)
                                                   MT_SysOsalNVRead (MT_SYS)
                                                   ZDApp_InitUserDesc (ZDApp)
                                                   ZDApp_LeaveCtrlInit (ZDApp)
                                                   ZDO_ProcessUserDescReq (ZDObject)
                                                   zgItemInit (ZGlobals)
                                                   zmain_cert_init (ZMain)
                                                   zmain_ext_addr (ZMain)
               calls direct
               CSTACK = 00000000 ( 0000000E )
    -------------------------------------------------------------------------
<CODE> 1 (was CODE)
  Relative segment, address: C8EC - C8EF (0x4 bytes), align: 1
  Segment part 12.            Intra module refs:   osal_nv_read
                                                   osal_nv_write
           LOCAL                   ADDRESS         
           =====                   =======         
           ?Subroutine7            C8EC 
    -------------------------------------------------------------------------
<CODE> 1 (was CODE)
  Relative segment, address: C8F0 - C8FB (0xc bytes), align: 1
  Segment part 13.            Intra module refs:   ?Subroutine7
                                                   xferBuf
    -------------------------------------------------------------------------
<CODE> 1 (was CODE)
  Relative segment, address: C8FC - CAB9 (0x1be bytes), align: 1
  Segment part 14.
           ENTRY                   ADDRESS         REF BY
           =====                   =======         ======
           osal_nv_write           C8FC            ?Subroutine1 (BindingTable)
                                                   ?Subroutine5 (ZDApp)
                                                   BindWriteNV (BindingTable)
                                                   MT_SysOsalNVItemInit (MT_SYS)
                                                   MT_SysOsalNVWrite (MT_SYS)
                                                   MT_SysSetExtAddr (MT_SYS)
                                                   SSP_StoreRandomSeedNV (APS)
                                                   ZDO_ProcessUserDescSet (ZDObject)
                                                   ZDSecMgrEntryFree (ZDSecMgr)
                                                   zgItemInit (ZGlobals)
                                                   zgWriteStartupOptions (ZGlobals)
                                                   zmain_cert_init (ZMain)
                                                   zmain_ext_addr (ZMain)
               calls direct
               CSTACK = 00000000 ( 00000028 )
    -------------------------------------------------------------------------
<CODE> 1 (was CODE)
  Relative segment, address: CABA - CAEF (0x36 bytes), align: 1
  Segment part 15.            Intra module refs:   osal_nv_delete
           ENTRY                   ADDRESS         REF BY
           =====                   =======         ======
           osal_nv_item_len        CABA            MT_SysOsalNVLength (MT_SYS)
                                                   MT_SysOsalNVRead (MT_SYS)
               calls direct
               CSTACK = 00000000 ( 00000010 )
    -------------------------------------------------------------------------
<CODE> 1 (was CODE)
  Relative segment, address: CAF0 - CAF9 (0xa bytes), align: 1
  Segment part 16.            Intra module refs:   hotItemUpdate
                                                   osal_nv_item_len
                                                   osal_nv_read
           LOCAL                   ADDRESS         
           =====                   =======         
           ?Subroutine6            CAF0 
    -------------------------------------------------------------------------
<CODE> 1 (was CODE)
  Relative segment, address: CAFA - CB09 (0x10 bytes), align: 1
  Segment part 17.            Intra module refs:   osal_nv_item_len
                                                   osal_nv_read
           LOCAL                   ADDRESS         
           =====                   =======         
           ?Subroutine4            CAFA 
    -------------------------------------------------------------------------
<CODE> 1 (was CODE)
  Relative segment, address: CB0A - CB17 (0xe bytes), align: 1
  Segment part 18.            Intra module refs:   osal_nv_delete
                                                   osal_nv_item_init
                                                   osal_nv_item_len
           LOCAL                   ADDRESS         
           =====                   =======         
           ?Subroutine2            CB0A 
    -------------------------------------------------------------------------
<CODE> 1 (was CODE)
  Relative segment, address: CB18 - CB5F (0x48 bytes), align: 1
  Segment part 19.
           ENTRY                   ADDRESS         REF BY
           =====                   =======         ======
           osal_nv_item_init       CB18            BindInitNV (BindingTable)
                                                   MT_SysOsalNVItemInit (MT_SYS)
                                                   SSP_StoreRandomSeedNV (APS)
                                                   ZDApp_InitUserDesc (ZDApp)
                                                   ZDApp_LeaveCtrlInit (ZDApp)
                                                   zgItemInit (ZGlobals)
                                                   zgReadStartupOptions (ZGlobals)
                                                   zmain_cert_init (ZMain)
                                                   zmain_ext_addr (ZMain)
               calls direct
               CSTACK = 00000000 ( 0000000E )
    -------------------------------------------------------------------------
<CODE> 3 (was CODE)
  Relative segment, address: 00014A7C - 00014A9D (0x22 bytes), align: 1
  Segment part 24.            Intra module refs:   compactPage
                                                   osal_nv_write
           LOCAL                   ADDRESS         
           =====                   =======         
           xferBuf                 00014A7C 
               calls direct
               CSTACK = 00000000 ( 00000008 )
    -------------------------------------------------------------------------
<CODE> 3 (was CODE)
  Relative segment, address: 00010702 - 00010807 (0x106 bytes), align: 1
  Segment part 23.            Intra module refs:   compactPage
                                                   initItem
           LOCAL                   ADDRESS         
           =====                   =======         
           writeItem               00010702 
               calls direct
               CSTACK = 00000000 ( 00000022 )
    -------------------------------------------------------------------------
<CODE> 3 (was CODE)
  Relative segment, address: 00014F2C - 00014F43 (0x18 bytes), align: 1
  Segment part 22.            Intra module refs:   ?Subroutine6
           LOCAL                   ADDRESS         
           =====                   =======         
           hotItem                 00014F2C 
               CSTACK = 00000000 ( 00000004 )
    -------------------------------------------------------------------------
<CODE> 3 (was CODE)
  Relative segment, address: 00014CD2 - 00014CEF (0x1e bytes), align: 1
  Segment part 21.            Intra module refs:   compactPage
                                                   osal_nv_item_init
                                                   osal_nv_write
                                                   writeItem
           LOCAL                   ADDRESS         
           =====                   =======         
           hotItemUpdate           00014CD2 
               calls direct
               CSTACK = 00000000 ( 00000008 )
    -------------------------------------------------------------------------
<CODE> 3 (was CODE)
  Relative segment, address: 000157C4 - 000157C7 (0x4 bytes), align: 1
  Segment part 20.
           ENTRY                   ADDRESS         REF BY
           =====                   =======         ======
           osal_nv_init            000157C4        main (ZMain)
               calls direct
               CSTACK = 00000000 ( 00000004 )

    *************************************************************************

  FILE NAME : C:\Texas Instruments\ZStack-MSP2618-2.5.1\Projects\zstack\HomeAutomation\SampleSwitch\CC2520DB\EndDevice\Obj\OSAL_PwrMgr.r43
  PROGRAM MODULE, NAME : OSAL_PwrMgr

  SEGMENTS IN THE MODULE
  ======================
DATA16_Z
  Relative segment, address: 1402 - 1409 (0x8 bytes), align: 1
  Segment part 2.             Intra module refs:   osal_pwrmgr_init
           ENTRY                   ADDRESS         REF BY
           =====                   =======         ======
           pwrmgr_attribute        1402 
    -------------------------------------------------------------------------
<CODE> 3 (was CODE)
  Relative segment, address: 00015628 - 00015631 (0xa bytes), align: 1
  Segment part 5.
           ENTRY                   ADDRESS         REF BY
           =====                   =======         ======
           osal_pwrmgr_init        00015628        osal_init_system (OSAL)
               CSTACK = 00000000 ( 00000004 )

    *************************************************************************

  FILE NAME : C:\Texas Instruments\ZStack-MSP2618-2.5.1\Projects\zstack\HomeAutomation\SampleSwitch\CC2520DB\EndDevice\Obj\OSAL_SampleSw.r43
  PROGRAM MODULE, NAME : OSAL_SampleSw

  SEGMENTS IN THE MODULE
  ======================
DATA16_C
  Relative segment, address: 33A0 - 33C3 (0x24 bytes), align: 1
  Segment part 2.
           ENTRY                   ADDRESS         REF BY
           =====                   =======         ======
           tasksArr                33A0            osal_run_system (OSAL)
    -------------------------------------------------------------------------
DATA16_C
  Relative segment, address: 3724 - 3724 (0x1 bytes), align: 0
  Segment part 3.
           ENTRY                   ADDRESS         REF BY
           =====                   =======         ======
           tasksCnt                3724            osal_clear_event (OSAL)
                                                   osal_msg_send (OSAL)
                                                   osal_run_system (OSAL)
                                                   osal_set_event (OSAL)
    -------------------------------------------------------------------------
DATA16_Z
  Relative segment, address: 140A - 140B (0x2 bytes), align: 1
  Segment part 4.             Intra module refs:   osalInitTasks
           ENTRY                   ADDRESS         REF BY
           =====                   =======         ======
           tasksEvents             140A            macMainReset (mac_beacon)
                                                   osal_clear_event (OSAL)
                                                   osal_run_system (OSAL)
                                                   osal_set_event (OSAL)
    -------------------------------------------------------------------------
<CODE> 3 (was CODE)
  Relative segment, address: 000133B0 - 00013403 (0x54 bytes), align: 1
  Segment part 5.
           ENTRY                   ADDRESS         REF BY
           =====                   =======         ======
           osalInitTasks           000133B0        osal_init_system (OSAL)
               calls direct
               CSTACK = 00000000 ( 00000004 )

    *************************************************************************

  FILE NAME : C:\Texas Instruments\ZStack-MSP2618-2.5.1\Projects\zstack\HomeAutomation\SampleSwitch\CC2520DB\EndDevice\Obj\OSAL_Timers.r43
  PROGRAM MODULE, NAME : OSAL_Timers

  SEGMENTS IN THE MODULE
  ======================
DATA16_Z
  Relative segment, address: 140C - 140D (0x2 bytes), align: 1
  Segment part 2.             Intra module refs:   osalAddTimer
                                                   osalFindTimer
                                                   osalTimerUpdate
           ENTRY                   ADDRESS         REF BY
           =====                   =======         ======
           timerHead               140C 
    -------------------------------------------------------------------------
DATA16_Z
  Relative segment, address: 140E - 1411 (0x4 bytes), align: 1
  Segment part 3.             Intra module refs:   osalTimerInit
                                                   osalTimerUpdate
                                                   osal_GetSystemClock
           LOCAL                   ADDRESS         
           =====                   =======         
           osal_systemClock        140E 
    -------------------------------------------------------------------------
<CODE> 3 (was CODE)
  Relative segment, address: 000155C4 - 000155CD (0xa bytes), align: 1
  Segment part 14.
           ENTRY                   ADDRESS         REF BY
           =====                   =======         ======
           osalTimerInit           000155C4        osal_init_system (OSAL)
               CSTACK = 00000000 ( 00000004 )
    -------------------------------------------------------------------------
<CODE> 3 (was CODE)
  Relative segment, address: 000130FA - 00013151 (0x58 bytes), align: 1
  Segment part 13.            Intra module refs:   osal_start_reload_timer
                                                   osal_start_timerEx
           ENTRY                   ADDRESS         REF BY
           =====                   =======         ======
           osalAddTimer            000130FA 
               calls direct
               CSTACK = 00000000 ( 0000000C )
    -------------------------------------------------------------------------
<CODE> 3 (was CODE)
  Relative segment, address: 00014DF0 - 00014E0B (0x1c bytes), align: 1
  Segment part 12.            Intra module refs:   osalAddTimer
                                                   osal_get_timeoutEx
                                                   osal_stop_timerEx
           ENTRY                   ADDRESS         REF BY
           =====                   =======         ======
           osalFindTimer           00014DF0 
               CSTACK = 00000000 ( 00000004 )
    -------------------------------------------------------------------------
<CODE> 3 (was CODE)
  Relative segment, address: 0001559C - 000155A5 (0xa bytes), align: 1
  Segment part 11.            Intra module refs:   osal_stop_timerEx
           ENTRY                   ADDRESS         REF BY
           =====                   =======         ======
           osalDeleteTimer         0001559C 
               CSTACK = 00000000 ( 00000004 )
    -------------------------------------------------------------------------
<CODE> 3 (was CODE)
  Relative segment, address: 00014D48 - 00014D63 (0x1c bytes), align: 1
  Segment part 10.
           ENTRY                   ADDRESS         REF BY
           =====                   =======         ======
           osal_start_timerEx      00014D48        ?Subroutine4 (ZDApp)
                                                   ?Subroutine5 (MT_AF)
                                                   APSF_Schedule (APS)
                                                   HalLedUpdate (hal_led)
                                                   Hal_ProcessEvent (hal_drivers)
                                                   MT_SysOsalStartTimer (MT_SYS)
                                                   NLME_SetPollRate (APS)
                                                   RTG_MTORouteReq (APS)
                                                   Segment part 589 (APS)
                                                   Segment part 722 (APS)
                                                   Segment part 840 (APS)
                                                   ZDApp_event_loop (ZDApp)
                                                   ZDO_StartDevice (ZDObject)
                                                   halBoardPort1Isr (hal_key)
                                                   zclSampleSw_ProcessIdentifyTimeChange (zcl_samplesw)
               calls direct
               CSTACK = 00000000 ( 00000006 )
    -------------------------------------------------------------------------
<CODE> 3 (was CODE)
  Relative segment, address: 00014710 - 00014737 (0x28 bytes), align: 1
  Segment part 9.
           ENTRY                   ADDRESS         REF BY
           =====                   =======         ======
           osal_start_reload_timer
                                   00014710        Segment part 232 (APS)
               calls direct
               CSTACK = 00000000 ( 00000008 )
    -------------------------------------------------------------------------
<CODE> 3 (was CODE)
  Relative segment, address: 00014738 - 0001475F (0x28 bytes), align: 1
  Segment part 8.
           ENTRY                   ADDRESS         REF BY
           =====                   =======         ======
           osal_stop_timerEx       00014738        HalKeyConfig (hal_key)
                                                   HalLedBlink (hal_led)
                                                   MT_SysOsalStopTimer (MT_SYS)
                                                   NLME_SetPollRate (APS)
                                                   Segment part 594 (APS)
                                                   Segment part 843 (APS)
                                                   zclSampleSw_ProcessIdentifyTimeChange (zcl_samplesw)
               calls direct
               CSTACK = 00000000 ( 00000008 )
    -------------------------------------------------------------------------
<CODE> 3 (was CODE)
  Relative segment, address: 00014C1E - 00014C3B (0x1e bytes), align: 1
  Segment part 7.
           ENTRY                   ADDRESS         REF BY
           =====                   =======         ======
           osal_get_timeoutEx      00014C1E        Segment part 256 (APS)
                                                   Segment part 265 (APS)
               calls direct
               CSTACK = 00000000 ( 00000008 )
    -------------------------------------------------------------------------
<CODE> 3 (was CODE)
  Relative segment, address: 00011A40 - 00011AE5 (0xa6 bytes), align: 1
  Segment part 5.
           ENTRY                   ADDRESS         REF BY
           =====                   =======         ======
           osalTimerUpdate         00011A40        osalTimeUpdate (OSAL_Clock)
               calls direct
               CSTACK = 00000000 ( 00000010 )
    -------------------------------------------------------------------------
<CODE> 3 (was CODE)
  Relative segment, address: 000155BA - 000155C3 (0xa bytes), align: 1
  Segment part 4.
           ENTRY                   ADDRESS         REF BY
           =====                   =======         ======
           osal_GetSystemClock     000155BA        APSF_IncomingData (APS)
                                                   APSF_ProcessAck (APS)
                                                   APSF_Schedule (APS)
                                                   APSF_SendFragmented (APS)
                                                   APSF_TxNextFrame (APS)
                                                   HalLedBlink (hal_led)
                                                   HalLedUpdate (hal_led)
                                                   HalUARTPoll (hal_uart)
                                                   Hal_UART_RxProcessEvent (hal_uart)
               CSTACK = 00000000 ( 00000004 )

    *************************************************************************

  FILE NAME : C:\Texas Instruments\ZStack-MSP2618-2.5.1\Projects\zstack\HomeAutomation\SampleSwitch\CC2520DB\EndDevice\Obj\OnBoard.r43
  PROGRAM MODULE, NAME : OnBoard

  SEGMENTS IN THE MODULE
  ======================
DATA16_Z
  Relative segment, address: 19C4 - 19CB (0x8 bytes), align: 0
  Segment part 2.
           ENTRY                   ADDRESS         REF BY
           =====                   =======         ======
           aExtendedAddress        19C4            ZMacGetReq (zmac)
                                                   ZMacReset (zmac)
                                                   ZMacSetReq (zmac)
                                                   zmain_dev_info (ZMain)
                                                   zmain_ext_addr (ZMain)
    -------------------------------------------------------------------------
DATA16_I
  Relative segment, address: 11FA - 11FA (0x1 bytes), align: 0
  Segment part 3.             Intra module refs:   OnBoard_SendKeys
                                                   RegisterForKeys
           LOCAL                   ADDRESS         
           =====                   =======         
           registeredKeysTaskID    11FA 
    -------------------------------------------------------------------------
<CODE> 3 (was CODE)
  Relative segment, address: 00014F8C - 00014FA3 (0x18 bytes), align: 1
  Segment part 18.
           ENTRY                   ADDRESS         REF BY
           =====                   =======         ======
           InitBoard               00014F8C        main (ZMain)
               calls direct
               CSTACK = 00000000 ( 00000004 )
    -------------------------------------------------------------------------
<CODE> 3 (was CODE)
  Relative segment, address: 000151AE - 000151BF (0x12 bytes), align: 1
  Segment part 17.
           ENTRY                   ADDRESS         REF BY
           =====                   =======         ======
           RegisterForKeys         000151AE        zclSampleSw_Init (zcl_samplesw)
               CSTACK = 00000000 ( 00000004 )
    -------------------------------------------------------------------------
<CODE> 3 (was CODE)
  Relative segment, address: 00013E56 - 00013E8D (0x38 bytes), align: 1
  Segment part 16.            Intra module refs:   OnBoard_KeyCallback
           ENTRY                   ADDRESS         REF BY
           =====                   =======         ======
           OnBoard_SendKeys        00013E56 
               calls direct
               CSTACK = 00000000 ( 00000008 )
    -------------------------------------------------------------------------
<CODE> 3 (was CODE)
  Relative segment, address: 00015560 - 0001556B (0xc bytes), align: 1
  Segment part 15.            Intra module refs:   InitBoard
           ENTRY                   ADDRESS         REF BY
           =====                   =======         ======
           OnBoard_KeyCallback     00015560 
               calls direct
               CSTACK = 00000000 ( 00000004 )
    -------------------------------------------------------------------------
<CODE> 3 (was CODE)
  Relative segment, address: 00012D4E - 00012DB1 (0x64 bytes), align: 1
  Segment part 13.
           ENTRY                   ADDRESS         REF BY
           =====                   =======         ======
           _itoa                   00012D4E        _ltoa (OSAL)
               CSTACK = 00000000 ( 00000016 )
    -------------------------------------------------------------------------
<CODE> 3 (was CODE)
  Relative segment, address: 000157CC - 000157CF (0x4 bytes), align: 1
  Segment part 12.
           ENTRY                   ADDRESS         REF BY
           =====                   =======         ======
           Onboard_rand            000157CC        MT_SysRandom (MT_SYS)
                                                   osal_rand (OSAL)
               calls direct
               CSTACK = 00000000 ( 00000004 )
    -------------------------------------------------------------------------
<CODE> 3 (was CODE)
  Relative segment, address: 00015646 - 0001564F (0xa bytes), align: 1
  Segment part 10.
           ENTRY                   ADDRESS         REF BY
           =====                   =======         ======
           Onboard_soft_reset      00015646        ZDApp_event_loop (ZDApp)
               CSTACK = 00000000 ( 00000004 )
    -------------------------------------------------------------------------
DATA16_ID
  Relative segment, address: 3A12 - 3A12 (0x1 bytes), align: 0
  Segment part 4.             Intra module refs:   registeredKeysTaskID

    *************************************************************************

  FILE NAME : C:\Texas Instruments\ZStack-MSP2618-2.5.1\Projects\zstack\HomeAutomation\SampleSwitch\CC2520DB\EndDevice\Obj\ZDApp.r43
  PROGRAM MODULE, NAME : ZDApp

  SEGMENTS IN THE MODULE
  ======================
DATA16_I
  Relative segment, address: 11FB - 11FB (0x1 bytes), align: 0
  Segment part 3.             Intra module refs:   ZDApp_ProcessNetworkJoin
                                                   ZDApp_ProcessOSALMsg
           ENTRY                   ADDRESS         REF BY
           =====                   =======         ======
           zdoDiscCounter          11FB 
    -------------------------------------------------------------------------
DATA16_Z
  Relative segment, address: 1412 - 141B (0xa bytes), align: 1
  Segment part 5.             Intra module refs:   ZDApp_Init
           ENTRY                   ADDRESS         REF BY
           =====                   =======         ======
           ZDAppNwkAddr            1412            ?Subroutine18 (ZDObject)
                                                   ZDO_ProcessMatchDescReq (ZDObject)
                                                   ZDO_ProcessServerDiscReq (ZDObject)
                                                   ZDO_ProcessSimpleDescReq (ZDObject)
                                                   ZDO_ProcessUserDescReq (ZDObject)
                                                   ZDO_ProcessUserDescSet (ZDObject)
                                                   ZDO_UpdateNwkStatus (ZDObject)
                                                   ZDP_NwkAddrReq (ZDProfile)
                                                   ZDP_SimpleDescMsg (ZDProfile)
                                                   zdpProcessAddrReq (ZDProfile)
    -------------------------------------------------------------------------
DATA16_I
  Relative segment, address: 11FC - 11FC (0x1 bytes), align: 0
  Segment part 12.            Intra module refs:   ZDApp_ProcessOSALMsg
           ENTRY                   ADDRESS         REF BY
           =====                   =======         ======
           continueJoining         11FC 
    -------------------------------------------------------------------------
DATA16_Z
  Relative segment, address: 19CC - 19CC (0x1 bytes), align: 0
  Segment part 14.            Intra module refs:   ZDApp_ProcessNetworkJoin
                                                   ZDApp_ProcessOSALMsg
                                                   ZDO_beaconNotifyIndCB
           ENTRY                   ADDRESS         REF BY
           =====                   =======         ======
           _tmpRejoinState         19CC            NLME_ReJoinReq (APS)
    -------------------------------------------------------------------------
DATA16_Z
  Relative segment, address: 19CD - 19D4 (0x8 bytes), align: 0
  Segment part 15.            Intra module refs:   ?Subroutine15
                                                   ZDApp_NwkDescListProcessing
                                                   ZDApp_ProcessOSALMsg
           ENTRY                   ADDRESS         REF BY
           =====                   =======         ======
           ZDO_UseExtendedPANID    19CD            ZDO_Init (ZDObject)
    -------------------------------------------------------------------------
DATA16_Z
  Relative segment, address: 141C - 1437 (0x1c bytes), align: 1
  Segment part 16.            Intra module refs:   ZDApp_InitZdoCBFunc
                                                   ZDO_DeregisterForZdoCB
                                                   ZDO_JoinConfirmCB
                                                   ZDO_LeaveCnf
                                                   ZDO_LeaveInd
                                                   ZDO_NetworkDiscoveryConfirmCB
                                                   ZDO_RegisterForZdoCB
                                                   ZDO_beaconNotifyIndCB
           ENTRY                   ADDRESS         REF BY
           =====                   =======         ======
           zdoCBFunc               141C 
    -------------------------------------------------------------------------
DATA16_Z
  Relative segment, address: 19D5 - 19D5 (0x1 bytes), align: 0
  Segment part 17.            Intra module refs:   ?Subroutine3
                                                   ?Subroutine4
                                                   ?Subroutine8
                                                   Segment part 107
                                                   Segment part 26
                                                   ZDApp_Init
                                                   ZDApp_RegisterCBs
                                                   ZDApp_event_loop
           ENTRY                   ADDRESS         REF BY
           =====                   =======         ======
           ZDAppTaskID             19D5            ZDO_StartDevice (ZDObject)
                                                   zdoSendStateChangeMsg (ZDObject)
    -------------------------------------------------------------------------
DATA16_Z
  Relative segment, address: 19D6 - 19D6 (0x1 bytes), align: 0
  Segment part 18.            Intra module refs:   ZDApp_ProcessNetworkJoin
                                                   ZDO_JoinConfirmCB
           ENTRY                   ADDRESS         REF BY
           =====                   =======         ======
           nwkStatus               19D6 
    -------------------------------------------------------------------------
DATA16_Z
  Relative segment, address: 19D7 - 19D7 (0x1 bytes), align: 0
  Segment part 20.            Intra module refs:   ?Subroutine14
                                                   ZDApp_LeaveCtrlInit
                                                   ZDApp_LeaveCtrlReset
                                                   ZDApp_LeaveCtrlSet
                                                   ZDApp_LeaveCtrlStartup
           ENTRY                   ADDRESS         REF BY
           =====                   =======         ======
           ZDApp_LeaveCtrl         19D7 
    -------------------------------------------------------------------------
DATA16_I
  Relative segment, address: 11FD - 11FD (0x1 bytes), align: 0
  Segment part 21.            Intra module refs:   ?Subroutine10
                                                   ?Subroutine7
                                                   ZDAppCheckForHoldKey
                                                   ZDApp_Init
                                                   ZDApp_ProcessNetworkJoin
                                                   ZDApp_ProcessOSALMsg
                                                   ZDApp_event_loop
                                                   ZDOInitDevice
                                                   ZDO_JoinConfirmCB
           ENTRY                   ADDRESS         REF BY
           =====                   =======         ======
           devState                11FD            ZDO_StartDevice (ZDObject)
    -------------------------------------------------------------------------
DATA16_Z
  Relative segment, address: 19D8 - 19D8 (0x1 bytes), align: 0
  Segment part 23.            Intra module refs:   ZDAppDetermineDeviceType
                                                   ZDApp_ProcessNetworkJoin
                                                   ZDApp_ProcessOSALMsg
                                                   ZDApp_event_loop
           ENTRY                   ADDRESS         REF BY
           =====                   =======         ======
           devStartMode            19D8 
    -------------------------------------------------------------------------
DATA16_Z
  Relative segment, address: 19D9 - 19D9 (0x1 bytes), align: 0
  Segment part 24.            Intra module refs:   ZDApp_ProcessNetworkJoin
                                                   ZDApp_ProcessOSALMsg
           ENTRY                   ADDRESS         REF BY
           =====                   =======         ======
           retryCnt                19D9 
    -------------------------------------------------------------------------
DATA16_I
  Relative segment, address: 117A - 1181 (0x8 bytes), align: 1
  Segment part 25.            Intra module refs:   ZDApp_Init
           ENTRY                   ADDRESS         REF BY
           =====                   =======         ======
           ZDApp_epDesc            117A            fillAndSend (ZDProfile)
    -------------------------------------------------------------------------
<CODE> 3 (was CODE)
  Relative segment, address: 00013456 - 000134A7 (0x52 bytes), align: 1
  Segment part 111.
           ENTRY                   ADDRESS         REF BY
           =====                   =======         ======
           ZDApp_Init              00013456        osalInitTasks (OSAL_SampleSw)
               calls direct
               CSTACK = 00000000 ( 00000004 )
    -------------------------------------------------------------------------
<CODE> 3 (was CODE)
  Relative segment, address: 00015274 - 00015279 (0x6 bytes), align: 1
  Segment part 106.           Intra module refs:   ZDApp_ProcessNetworkJoin
           LOCAL                   ADDRESS         
           =====                   =======         
           ?Subroutine7            00015274 
    -------------------------------------------------------------------------
<CODE> 3 (was CODE)
  Relative segment, address: 0001527A - 00015285 (0xc bytes), align: 1
  Segment part 107.           Intra module refs:   ?Subroutine7
                                                   ZDApp_ProcessNetworkJoin
                                                   ZDApp_event_loop
                                                   ZDOInitDevice
    -------------------------------------------------------------------------
<CODE> 3 (was CODE)
  Relative segment, address: 00011CD6 - 00011D77 (0xa2 bytes), align: 1
  Segment part 109.
           ENTRY                   ADDRESS         REF BY
           =====                   =======         ======
           ZDApp_event_loop        00011CD6        tasksArr (OSAL_SampleSw)
               calls direct
               CSTACK = 00000000 ( 00000008 )
    -------------------------------------------------------------------------
<CODE> 1 (was CODE)
  Relative segment, address: ACC4 - ACC5 (0x2 bytes), align: 1
  Segment part 35.
           ENTRY                   ADDRESS         REF BY
           =====                   =======         ======
           ZDApp_NVUpdate          ACC4            ZDO_ProcessBindUnbindReq (ZDObject)
               CSTACK = 00000000 ( 00000004 )
    -------------------------------------------------------------------------
<CODE> 1 (was CODE)
  Relative segment, address: ACC6 - ACED (0x28 bytes), align: 1
  Segment part 36.            Intra module refs:   ZDApp_ProcessNetworkJoin
           ENTRY                   ADDRESS         REF BY
           =====                   =======         ======
           ZDApp_AnnounceNewAddress
                                   ACC6 
               calls direct
               CSTACK = 00000000 ( 00000006 )
    -------------------------------------------------------------------------
<CODE> 1 (was CODE)
  Relative segment, address: ACEE - AD17 (0x2a bytes), align: 1
  Segment part 39.            Intra module refs:   ZDApp_JoinReq
                                                   ZDApp_ProcessOSALMsg
           ENTRY                   ADDRESS         REF BY
           =====                   =======         ======
           ZDApp_NodeProfileSync   ACEE 
               calls direct
               CSTACK = 00000000 ( 00000004 )
    -------------------------------------------------------------------------
<CODE> 1 (was CODE)
  Relative segment, address: AD18 - AD27 (0x10 bytes), align: 1
  Segment part 41.            Intra module refs:   ?Subroutine9
                                                   ZDApp_ProcessOSALMsg
                                                   ZDOInitDevice
           ENTRY                   ADDRESS         REF BY
           =====                   =======         ======
           ZDApp_NetworkInit       AD18 
               calls direct
               CSTACK = 00000000 ( 00000004 )
    -------------------------------------------------------------------------
<CODE> 1 (was CODE)
  Relative segment, address: AD28 - AD5D (0x36 bytes), align: 1
  Segment part 43.
           ENTRY                   ADDRESS         REF BY
           =====                   =======         ======
           ZDApp_InMsgCB           AD28            ZDP_IncomingData (ZDProfile)
               calls direct
               CSTACK = 00000000 ( 00000008 )
    -------------------------------------------------------------------------
<CODE> 1 (was CODE)
  Relative segment, address: AD5E - AD5F (0x2 bytes), align: 1
  Segment part 45.
           ENTRY                   ADDRESS         REF BY
           =====                   =======         ======
           AddrMgrWriteNVRequest   AD5E            AddrMgrEntryDataSave (APS)
               CSTACK = 00000000 ( 00000004 )
    -------------------------------------------------------------------------
<CODE> 1 (was CODE)
  Relative segment, address: AD60 - AD61 (0x2 bytes), align: 1
  Segment part 46.
           ENTRY                   ADDRESS         REF BY
           =====                   =======         ======
           ZDO_PollConfirmCB       AD60            nwkPollConfirmProcessing (APS)
               CSTACK = 00000000 ( 00000004 )
    -------------------------------------------------------------------------
<CODE> 1 (was CODE)
  Relative segment, address: AD62 - AD77 (0x16 bytes), align: 1
  Segment part 48.
           ENTRY                   ADDRESS         REF BY
           =====                   =======         ======
           ZDO_SyncIndicationCB    AD62            RTG_UpdateNeighborEntry (APS)
               calls direct
               CSTACK = 00000000 ( 00000004 )
    -------------------------------------------------------------------------
<CODE> 1 (was CODE)
  Relative segment, address: AD78 - ADC9 (0x52 bytes), align: 1
  Segment part 49.
           ENTRY                   ADDRESS         REF BY
           =====                   =======         ======
           ZDO_LeaveInd            AD78            NLME_LeaveCmdProcess (APS)
               calls direct and indirect
               CSTACK = 00000000 ( 00000006 )
    -------------------------------------------------------------------------
<CODE> 1 (was CODE)
  Relative segment, address: ADCA - AE01 (0x38 bytes), align: 1
  Segment part 50.
           ENTRY                   ADDRESS         REF BY
           =====                   =======         ======
           ZDO_LeaveCnf            ADCA            NLME_LeaveCmdCnf (APS)
               calls direct and indirect
               CSTACK = 00000000 ( 00000006 )
    -------------------------------------------------------------------------
<CODE> 1 (was CODE)
  Relative segment, address: AE02 - AE59 (0x58 bytes), align: 1
  Segment part 54.
           ENTRY                   ADDRESS         REF BY
           =====                   =======         ======
           ZDO_JoinConfirmCB       AE02            Segment part 592 (APS)
               calls direct and indirect
               CSTACK = 00000000 ( 0000000C )
    -------------------------------------------------------------------------
<CODE> 1 (was CODE)
  Relative segment, address: AE5A - AE61 (0x8 bytes), align: 1
  Segment part 55.            Intra module refs:   ZDO_JoinConfirmCB
                                                   ZDO_NetworkDiscoveryConfirmCB
                                                   ZDO_SyncIndicationCB
           LOCAL                   ADDRESS         
           =====                   =======         
           ?Subroutine8            AE5A 
    -------------------------------------------------------------------------
<CODE> 1 (was CODE)
  Relative segment, address: AE62 - AE69 (0x8 bytes), align: 1
  Segment part 57.            Intra module refs:   ZDO_JoinConfirmCB
           LOCAL                   ADDRESS         
           =====                   =======         
           ?Subroutine11           AE62 
    -------------------------------------------------------------------------
<CODE> 1 (was CODE)
  Relative segment, address: AE6A - AE7F (0x16 bytes), align: 1
  Segment part 58.            Intra module refs:   ZDO_JoinConfirmCB
           LOCAL                   ADDRESS         
           =====                   =======         
           ?Subroutine10           AE6A 
    -------------------------------------------------------------------------
<CODE> 1 (was CODE)
  Relative segment, address: AE80 - AF9D (0x11e bytes), align: 1
  Segment part 59.
           ENTRY                   ADDRESS         REF BY
           =====                   =======         ======
           ZDO_beaconNotifyIndCB   AE80            nwk_beacon_notify_ind_processing (APS)
               calls direct and indirect
               CSTACK = 00000000 ( 0000000C )
    -------------------------------------------------------------------------
<CODE> 1 (was CODE)
  Relative segment, address: AF9E - AFA5 (0x8 bytes), align: 1
  Segment part 61.            Intra module refs:   ZDApp_NetworkInit
           LOCAL                   ADDRESS         
           =====                   =======         
           ?Subroutine3            AF9E 
    -------------------------------------------------------------------------
<CODE> 1 (was CODE)
  Relative segment, address: AFA6 - B049 (0xa4 bytes), align: 1
  Segment part 62.            Intra module refs:   ZDApp_ProcessOSALMsg
           ENTRY                   ADDRESS         REF BY
           =====                   =======         ======
           ZDApp_NwkDescListProcessing
                                   AFA6 
               calls direct
               CSTACK = 00000000 ( 00000010 )
    -------------------------------------------------------------------------
<CODE> 1 (was CODE)
  Relative segment, address: B04A - B079 (0x30 bytes), align: 1
  Segment part 63.
           ENTRY                   ADDRESS         REF BY
           =====                   =======         ======
           ZDO_NetworkDiscoveryConfirmCB
                                   B04A            nwk_scan_cnf_processing (APS)
               calls direct and indirect
               CSTACK = 00000000 ( 00000008 )
    -------------------------------------------------------------------------
<CODE> 1 (was CODE)
  Relative segment, address: B07A - B0B1 (0x38 bytes), align: 1
  Segment part 64.            Intra module refs:   ?Subroutine8
           ENTRY                   ADDRESS         REF BY
           =====                   =======         ======
           ZDApp_SendMsg           B07A 
               calls direct
               CSTACK = 00000000 ( 00000010 )
    -------------------------------------------------------------------------
<CODE> 1 (was CODE)
  Relative segment, address: B0B2 - B0DF (0x2e bytes), align: 1
  Segment part 67.
           ENTRY                   ADDRESS         REF BY
           =====                   =======         ======
           ZDApp_JoinReq           B0B2            MT_ZdoJoinReq (MT_ZDO)
               calls direct
               CSTACK = 00000000 ( 00000014 )
    -------------------------------------------------------------------------
<CODE> 1 (was CODE)
  Relative segment, address: B0E0 - B0E3 (0x4 bytes), align: 1
  Segment part 68.
           ENTRY                   ADDRESS         REF BY
           =====                   =======         ======
           ZDApp_NetworkDiscoveryReq
                                   B0E0            MT_ZdoNetworkDiscoveryReq (MT_ZDO)
               calls direct
               CSTACK = 00000000 ( 00000004 )
    -------------------------------------------------------------------------
<CODE> 1 (was CODE)
  Relative segment, address: B0E4 - B139 (0x56 bytes), align: 1
  Segment part 69.            Intra module refs:   ZDO_LeaveInd
           ENTRY                   ADDRESS         REF BY
           =====                   =======         ======
           ZDApp_LeaveUpdate       B0E4 
               calls direct and indirect
               CSTACK = 00000000 ( 00000012 )
    -------------------------------------------------------------------------
<CODE> 1 (was CODE)
  Relative segment, address: B13A - B145 (0xc bytes), align: 1
  Segment part 70.            Intra module refs:   ZDO_LeaveCnf
                                                   ZDO_LeaveInd
           ENTRY                   ADDRESS         REF BY
           =====                   =======         ======
           ZDApp_LeaveReset        B13A 
               calls direct
               CSTACK = 00000000 ( 00000004 )
    -------------------------------------------------------------------------
<CODE> 1 (was CODE)
  Relative segment, address: B146 - B167 (0x22 bytes), align: 1
  Segment part 71.            Intra module refs:   ZDOInitDevice
           ENTRY                   ADDRESS         REF BY
           =====                   =======         ======
           ZDApp_LeaveCtrlStartup
                                   B146 
               calls direct
               CSTACK = 00000000 ( 00000004 )
    -------------------------------------------------------------------------
<CODE> 1 (was CODE)
  Relative segment, address: B168 - B16B (0x4 bytes), align: 1
  Segment part 73.            Intra module refs:   ZDApp_LeaveCtrlStartup
           ENTRY                   ADDRESS         REF BY
           =====                   =======         ======
           ZDApp_LeaveCtrlReset    B168 
               calls direct
               CSTACK = 00000000 ( 00000004 )
    -------------------------------------------------------------------------
<CODE> 1 (was CODE)
  Relative segment, address: B16C - B173 (0x8 bytes), align: 1
  Segment part 74.            Intra module refs:   ZDApp_LeaveCtrlReset
                                                   ZDApp_LeaveCtrlSet
           LOCAL                   ADDRESS         
           =====                   =======         
           ?Subroutine5            B16C 
    -------------------------------------------------------------------------
<CODE> 1 (was CODE)
  Relative segment, address: B174 - B181 (0xe bytes), align: 1
  Segment part 75.            Intra module refs:   ?Subroutine5
                                                   ZDApp_LeaveCtrlInit
           LOCAL                   ADDRESS         
           =====                   =======         
           ?Subroutine14           B174 
    -------------------------------------------------------------------------
<CODE> 1 (was CODE)
  Relative segment, address: B182 - B191 (0x10 bytes), align: 1
  Segment part 76.            Intra module refs:   ZDApp_LeaveReset
           ENTRY                   ADDRESS         REF BY
           =====                   =======         ======
           ZDApp_LeaveCtrlSet      B182 
               calls direct
               CSTACK = 00000000 ( 00000004 )
    -------------------------------------------------------------------------
<CODE> 1 (was CODE)
  Relative segment, address: B192 - B1B1 (0x20 bytes), align: 1
  Segment part 77.            Intra module refs:   ZDOInitDevice
           ENTRY                   ADDRESS         REF BY
           =====                   =======         ======
           ZDApp_LeaveCtrlInit     B192 
               calls direct
               CSTACK = 00000000 ( 00000004 )
    -------------------------------------------------------------------------
<CODE> 1 (was CODE)
  Relative segment, address: B1B2 - B1B5 (0x4 bytes), align: 1
  Segment part 79.            Intra module refs:   ZDApp_LeaveReset
           ENTRY                   ADDRESS         REF BY
           =====                   =======         ======
           ZDApp_ResetTimerStart   B1B2 
               calls direct
               CSTACK = 00000000 ( 00000004 )
    -------------------------------------------------------------------------
<CODE> 1 (was CODE)
  Relative segment, address: B1B6 - B1BD (0x8 bytes), align: 1
  Segment part 80.            Intra module refs:   ZDApp_NetworkInit
                                                   ZDApp_ResetTimerStart
           LOCAL                   ADDRESS         
           =====                   =======         
           ?Subroutine4            B1B6 
    -------------------------------------------------------------------------
<CODE> 1 (was CODE)
  Relative segment, address: B1BE - B2C9 (0x10c bytes), align: 1
  Segment part 87.            Intra module refs:   ZDApp_ProcessOSALMsg
           ENTRY                   ADDRESS         REF BY
           =====                   =======         ======
           ZDApp_ProcessNetworkJoin
                                   B1BE 
               calls direct
               CSTACK = 00000000 ( 0000000A )
    -------------------------------------------------------------------------
<CODE> 1 (was CODE)
  Relative segment, address: B2CA - B2F3 (0x2a bytes), align: 1
  Segment part 89.            Intra module refs:   ZDApp_Init
           ENTRY                   ADDRESS         REF BY
           =====                   =======         ======
           ZDApp_RegisterCBs       B2CA 
               calls direct
               CSTACK = 00000000 ( 00000006 )
    -------------------------------------------------------------------------
<CODE> 1 (was CODE)
  Relative segment, address: B2F4 - B2F9 (0x6 bytes), align: 1
  Segment part 90.            Intra module refs:   ZDApp_RegisterCBs
           LOCAL                   ADDRESS         
           =====                   =======         
           ?Subroutine16           B2F4 
    -------------------------------------------------------------------------
<CODE> 1 (was CODE)
  Relative segment, address: B2FA - B357 (0x5e bytes), align: 1
  Segment part 91.            Intra module refs:   ZDApp_ProcessOSALMsg
           ENTRY                   ADDRESS         REF BY
           =====                   =======         ======
           ZDApp_ProcessMsgCBs     B2FA 
               calls direct
               CSTACK = 00000000 ( 0000001E )
    -------------------------------------------------------------------------
<CODE> 1 (was CODE)
  Relative segment, address: B358 - B491 (0x13a bytes), align: 1
  Segment part 92.            Intra module refs:   ZDApp_event_loop
           ENTRY                   ADDRESS         REF BY
           =====                   =======         ======
           ZDApp_ProcessOSALMsg    B358 
               calls direct
               CSTACK = 00000000 ( 0000000C )
    -------------------------------------------------------------------------
<CODE> 1 (was CODE)
  Relative segment, address: B492 - B497 (0x6 bytes), align: 1
  Segment part 93.            Intra module refs:   ZDApp_ProcessOSALMsg
                                                   ZDOInitDevice
           LOCAL                   ADDRESS         
           =====                   =======         
           ?Subroutine1            B492 
    -------------------------------------------------------------------------
<CODE> 1 (was CODE)
  Relative segment, address: B498 - B4A7 (0x10 bytes), align: 1
  Segment part 94.            Intra module refs:   ZDApp_ProcessNetworkJoin
                                                   ZDApp_ProcessOSALMsg
           LOCAL                   ADDRESS         
           =====                   =======         
           ?Subroutine9            B498 
    -------------------------------------------------------------------------
<CODE> 1 (was CODE)
  Relative segment, address: B4A8 - B4B9 (0x12 bytes), align: 1
  Segment part 95.            Intra module refs:   ZDApp_ProcessNetworkJoin
                                                   ZDApp_ProcessOSALMsg
           LOCAL                   ADDRESS         
           =====                   =======         
           ?Subroutine6            B4A8 
    -------------------------------------------------------------------------
<CODE> 1 (was CODE)
  Relative segment, address: B4BA - B4C7 (0xe bytes), align: 1
  Segment part 96.            Intra module refs:   ZDApp_Init
           ENTRY                   ADDRESS         REF BY
           =====                   =======         ======
           ZDAppCheckForHoldKey    B4BA 
               calls direct
               CSTACK = 00000000 ( 00000004 )
    -------------------------------------------------------------------------
<CODE> 1 (was CODE)
  Relative segment, address: B4C8 - B517 (0x50 bytes), align: 1
  Segment part 97.            Intra module refs:   ZDApp_Init
           ENTRY                   ADDRESS         REF BY
           =====                   =======         ======
           ZDApp_InitUserDesc      B4C8 
               calls direct
               CSTACK = 00000000 ( 00000018 )
    -------------------------------------------------------------------------
<CODE> 1 (was CODE)
  Relative segment, address: B518 - B523 (0xc bytes), align: 1
  Segment part 99.            Intra module refs:   ZDApp_ProcessOSALMsg
           LOCAL                   ADDRESS         
           =====                   =======         
           ?Subroutine15           B518 
    -------------------------------------------------------------------------
<CODE> 1 (was CODE)
  Relative segment, address: B524 - B569 (0x46 bytes), align: 1
  Segment part 103.           Intra module refs:   ZDOInitDevice
           ENTRY                   ADDRESS         REF BY
           =====                   =======         ======
           ZDAppDetermineDeviceType
                                   B524 
               calls direct
               CSTACK = 00000000 ( 00000004 )
    -------------------------------------------------------------------------
<CODE> 1 (was CODE)
  Relative segment, address: B56A - B5DF (0x76 bytes), align: 1
  Segment part 105.           Intra module refs:   ZDApp_Init
           ENTRY                   ADDRESS         REF BY
           =====                   =======         ======
           ZDOInitDevice           B56A            MT_ZdoStartupFromApp (MT_ZDO)
               calls direct
               CSTACK = 00000000 ( 00000008 )
    -------------------------------------------------------------------------
<CODE> 3 (was CODE)
  Relative segment, address: 00014F44 - 00014F5B (0x18 bytes), align: 1
  Segment part 31.            Intra module refs:   ZDApp_Init
           ENTRY                   ADDRESS         REF BY
           =====                   =======         ======
           ZDApp_InitZdoCBFunc     00014F44 
               CSTACK = 00000000 ( 00000004 )
    -------------------------------------------------------------------------
<CODE> 3 (was CODE)
  Relative segment, address: 00014EAA - 00014EC3 (0x1a bytes), align: 1
  Segment part 30.
           ENTRY                   ADDRESS         REF BY
           =====                   =======         ======
           ZDO_RegisterForZdoCB    00014EAA        MT_ZdoJoinReq (MT_ZDO)
                                                   MT_ZdoNetworkDiscoveryReq (MT_ZDO)
               CSTACK = 00000000 ( 00000004 )
    -------------------------------------------------------------------------
<CODE> 3 (was CODE)
  Relative segment, address: 00014EC4 - 00014EDD (0x1a bytes), align: 1
  Segment part 29.
           ENTRY                   ADDRESS         REF BY
           =====                   =======         ======
           ZDO_DeregisterForZdoCB
                                   00014EC4        MT_ZdoJoinCnfCB (MT_ZDO)
                                                   MT_ZdoNwkDiscoveryCnfCB (MT_ZDO)
               CSTACK = 00000000 ( 00000004 )
    -------------------------------------------------------------------------
DATA16_ID
  Relative segment, address: 3A13 - 3A13 (0x1 bytes), align: 0
  Segment part 4.             Intra module refs:   zdoDiscCounter
    -------------------------------------------------------------------------
DATA16_ID
  Relative segment, address: 3A14 - 3A14 (0x1 bytes), align: 0
  Segment part 13.            Intra module refs:   continueJoining
    -------------------------------------------------------------------------
DATA16_ID
  Relative segment, address: 3A15 - 3A15 (0x1 bytes), align: 0
  Segment part 22.            Intra module refs:   devState
    -------------------------------------------------------------------------
DATA16_ID
  Relative segment, address: 3992 - 3999 (0x8 bytes), align: 1
  Segment part 26.            Intra module refs:   ZDApp_epDesc

    *************************************************************************

  FILE NAME : C:\Texas Instruments\ZStack-MSP2618-2.5.1\Projects\zstack\HomeAutomation\SampleSwitch\CC2520DB\EndDevice\Obj\ZDConfig.r43
  PROGRAM MODULE, NAME : ZDConfig

  SEGMENTS IN THE MODULE
  ======================
DATA16_Z
  Relative segment, address: 1438 - 1445 (0xe bytes), align: 1
  Segment part 2.             Intra module refs:   ZDConfig_UpdateNodeDescriptor
           ENTRY                   ADDRESS         REF BY
           =====                   =======         ======
           ZDO_Config_Node_Descriptor
                                   1438            NIB_init (nwk_globals)
                                                   ZDAppDetermineDeviceType (ZDApp)
                                                   ZDApp_AnnounceNewAddress (ZDApp)
                                                   ZDApp_InitUserDesc (ZDApp)
                                                   ZDApp_JoinReq (ZDApp)
                                                   ZDApp_NodeProfileSync (ZDApp)
                                                   ZDApp_ProcessNetworkJoin (ZDApp)
                                                   ZDApp_ProcessOSALMsg (ZDApp)
                                                   ZDApp_event_loop (ZDApp)
                                                   ZDOInitDevice (ZDApp)
                                                   ZDO_LeaveInd (ZDApp)
                                                   ZDO_ProcessNodeDescReq (ZDObject)
                                                   ZDO_ProcessServerDiscReq (ZDObject)
                                                   ZDO_ProcessUserDescSet (ZDObject)
    -------------------------------------------------------------------------
DATA16_Z
  Relative segment, address: 1446 - 1447 (0x2 bytes), align: 1
  Segment part 3.             Intra module refs:   ZDConfig_UpdatePowerDescriptor
           ENTRY                   ADDRESS         REF BY
           =====                   =======         ======
           ZDO_Config_Power_Descriptor
                                   1446            ZDO_ProcessPowerDescReq (ZDObject)
    -------------------------------------------------------------------------
<CODE> 3 (was CODE)
  Relative segment, address: 000156E2 - 000156E9 (0x8 bytes), align: 1
  Segment part 6.
           ENTRY                   ADDRESS         REF BY
           =====                   =======         ======
           ZDConfig_InitDescriptors
                                   000156E2        ZDOInitDevice (ZDApp)
               calls direct
               CSTACK = 00000000 ( 00000004 )
    -------------------------------------------------------------------------
<CODE> 3 (was CODE)
  Relative segment, address: 00013DAC - 00013DE5 (0x3a bytes), align: 1
  Segment part 5.             Intra module refs:   ZDConfig_InitDescriptors
           ENTRY                   ADDRESS         REF BY
           =====                   =======         ======
           ZDConfig_UpdateNodeDescriptor
                                   00013DAC 
               CSTACK = 00000000 ( 00000004 )
    -------------------------------------------------------------------------
<CODE> 3 (was CODE)
  Relative segment, address: 0001457A - 000145A3 (0x2a bytes), align: 1
  Segment part 4.             Intra module refs:   ZDConfig_InitDescriptors
           ENTRY                   ADDRESS         REF BY
           =====                   =======         ======
           ZDConfig_UpdatePowerDescriptor
                                   0001457A 
               CSTACK = 00000000 ( 00000004 )

    *************************************************************************

  FILE NAME : C:\Texas Instruments\ZStack-MSP2618-2.5.1\Projects\zstack\HomeAutomation\SampleSwitch\CC2520DB\EndDevice\Obj\ZDNwkMgr.r43
  PROGRAM MODULE, NAME : ZDNwkMgr

  SEGMENTS IN THE MODULE
  ======================
DATA16_Z
  Relative segment, address: 1448 - 144B (0x4 bytes), align: 1
  Segment part 20.
           ENTRY                   ADDRESS         REF BY
           =====                   =======         ======
           pZDNwkMgr_NetworkReportCB
                                   1448            NLME_NetworkReportCB (APS)
    -------------------------------------------------------------------------
DATA16_Z
  Relative segment, address: 144C - 144F (0x4 bytes), align: 1
  Segment part 21.
           ENTRY                   ADDRESS         REF BY
           =====                   =======         ======
           pZDNwkMgr_NetworkUpdateCB
                                   144C            nwkChangePanID (APS)

    *************************************************************************

  FILE NAME : C:\Texas Instruments\ZStack-MSP2618-2.5.1\Projects\zstack\HomeAutomation\SampleSwitch\CC2520DB\EndDevice\Obj\ZDObject.r43
  PROGRAM MODULE, NAME : ZDObject

  SEGMENTS IN THE MODULE
  ======================
DATA16_Z
  Relative segment, address: 1450 - 1483 (0x34 bytes), align: 1
  Segment part 11.            Intra module refs:   ZDO_ProcessActiveEPReq
                                                   ZDO_ProcessMatchDescReq
           LOCAL                   ADDRESS         
           =====                   =======         
           ZDOBuildBuf             1450 
    -------------------------------------------------------------------------
DATA16_Z
  Relative segment, address: 1484 - 1485 (0x2 bytes), align: 1
  Segment part 12.            Intra module refs:   ZDO_Init
           LOCAL                   ADDRESS         
           =====                   =======         
           ZDO_EDBind              1484 
    -------------------------------------------------------------------------
<CODE> 3 (was CODE)
  Relative segment, address: 000148DA - 000148FD (0x24 bytes), align: 1
  Segment part 97.
           ENTRY                   ADDRESS         REF BY
           =====                   =======         ======
           ZDO_Init                000148DA        ZDApp_Init (ZDApp)
               calls direct
               CSTACK = 00000000 ( 00000004 )
    -------------------------------------------------------------------------
<CODE> 3 (was CODE)
  Relative segment, address: 00011588 - 0001163D (0xb6 bytes), align: 1
  Segment part 96.
           ENTRY                   ADDRESS         REF BY
           =====                   =======         ======
           ZDO_StartDevice         00011588        ZDApp_event_loop (ZDApp)
               calls direct
               CSTACK = 00000000 ( 00000012 )
    -------------------------------------------------------------------------
DATA16_Z
  Relative segment, address: 19DA - 19DA (0x1 bytes), align: 0
  Segment part 15.            Intra module refs:   ZDO_StartDevice
           LOCAL                   ADDRESS         
           =====                   =======         
           ZDO_StartDevice::scanCnt
                                   19DA 
    -------------------------------------------------------------------------
<CODE> 3 (was CODE)
  Relative segment, address: 00013880 - 000138C7 (0x48 bytes), align: 1
  Segment part 95.            Intra module refs:   ZDO_UpdateNwkStatus
           LOCAL                   ADDRESS         
           =====                   =======         
           zdoSendStateChangeMsg   00013880 
               calls direct
               CSTACK = 00000000 ( 00000008 )
    -------------------------------------------------------------------------
<CODE> 3 (was CODE)
  Relative segment, address: 000140B4 - 000140E9 (0x36 bytes), align: 1
  Segment part 94.
           ENTRY                   ADDRESS         REF BY
           =====                   =======         ======
           ZDO_UpdateNwkStatus     000140B4        ZDApp_event_loop (ZDApp)
               calls direct
               CSTACK = 00000000 ( 00000008 )
    -------------------------------------------------------------------------
<CODE> 3 (was CODE)
  Relative segment, address: 00014152 - 00014185 (0x34 bytes), align: 1
  Segment part 92.            Intra module refs:   ZDO_ProcessMatchDescReq
           ENTRY                   ADDRESS         REF BY
           =====                   =======         ======
           ZDO_AnyClusterMatches   00014152 
               CSTACK = 00000000 ( 00000010 )
    -------------------------------------------------------------------------
<CODE> 3 (was CODE)
  Relative segment, address: 0001566E - 00015677 (0xa bytes), align: 1
  Segment part 86.            Intra module refs:   ?Subroutine18
                                                   ZDO_ProcessActiveEPReq
                                                   ZDO_ProcessUserDescReq
           LOCAL                   ADDRESS         
           =====                   =======         
           ?Subroutine27           0001566E 
    -------------------------------------------------------------------------
<CODE> 3 (was CODE)
  Relative segment, address: 00013954 - 00013969 (0x16 bytes), align: 1
  Segment part 88.
           ENTRY                   ADDRESS         REF BY
           =====                   =======         ======
           ZDO_ProcessPowerDescReq
                                   00013954        zdpMsgProcs (ZDProfile)
               calls direct
               CSTACK = 00000000 ( 00000008 )
    -------------------------------------------------------------------------
<CODE> 3 (was CODE)
  Relative segment, address: 0001396A - 0001397F (0x16 bytes), align: 1
  Segment part 89.            Intra module refs:   ZDO_ProcessNodeDescReq
                                                   ZDO_ProcessPowerDescReq
           LOCAL                   ADDRESS         
           =====                   =======         
           ?Subroutine0            0001396A 
    -------------------------------------------------------------------------
<CODE> 3 (was CODE)
  Relative segment, address: 00013980 - 00013997 (0x18 bytes), align: 1
  Segment part 90.
           ENTRY                   ADDRESS         REF BY
           =====                   =======         ======
           ZDO_ProcessNodeDescReq
                                   00013980        zdpMsgProcs (ZDProfile)
               calls direct
               CSTACK = 00000000 ( 00000008 )
    -------------------------------------------------------------------------
<CODE> 3 (was CODE)
  Relative segment, address: 000151E4 - 000151F5 (0x12 bytes), align: 1
  Segment part 91.            Intra module refs:   ZDO_ProcessNodeDescReq
                                                   ZDO_ProcessPowerDescReq
           LOCAL                   ADDRESS         
           =====                   =======         
           ?Subroutine18           000151E4 
    -------------------------------------------------------------------------
<CODE> 1 (was CODE)
  Relative segment, address: D0CC - D0D5 (0xa bytes), align: 1
  Segment part 27.            Intra module refs:   ZDO_ParseAddrRsp
           LOCAL                   ADDRESS         
           =====                   =======         
           ?Subroutine12           D0CC 
    -------------------------------------------------------------------------
<CODE> 1 (was CODE)
  Relative segment, address: D0D6 - D105 (0x30 bytes), align: 1
  Segment part 29.
           ENTRY                   ADDRESS         REF BY
           =====                   =======         ======
           ZDO_ParseEPListRsp      D0D6            zclSampleSw_ProcessZDOMsgs (zcl_samplesw)
               calls direct
               CSTACK = 00000000 ( 00000010 )
    -------------------------------------------------------------------------
<CODE> 1 (was CODE)
  Relative segment, address: D106 - D10F (0xa bytes), align: 1
  Segment part 30.            Intra module refs:   ZDO_ParseEPListRsp
           LOCAL                   ADDRESS         
           =====                   =======         
           ?Subroutine14           D106 
    -------------------------------------------------------------------------
<CODE> 1 (was CODE)
  Relative segment, address: D110 - D11D (0xe bytes), align: 1
  Segment part 31.            Intra module refs:   ZDO_ParseEPListRsp
           LOCAL                   ADDRESS         
           =====                   =======         
           ?Subroutine10           D110 
    -------------------------------------------------------------------------
<CODE> 1 (was CODE)
  Relative segment, address: D11E - D12F (0x12 bytes), align: 1
  Segment part 32.            Intra module refs:   ZDO_ParseEPListRsp
           LOCAL                   ADDRESS         
           =====                   =======         
           ?Subroutine5            D11E 
    -------------------------------------------------------------------------
<CODE> 1 (was CODE)
  Relative segment, address: D130 - D1A1 (0x72 bytes), align: 1
  Segment part 38.
           ENTRY                   ADDRESS         REF BY
           =====                   =======         ======
           ZDO_ParseAddrRsp        D130            ZDApp_ProcessMsgCBs (ZDApp)
               calls direct
               CSTACK = 00000000 ( 0000000C )
    -------------------------------------------------------------------------
<CODE> 1 (was CODE)
  Relative segment, address: D1A2 - D1ED (0x4c bytes), align: 1
  Segment part 39.
           ENTRY                   ADDRESS         REF BY
           =====                   =======         ======
           ZDO_ParseBindUnbindReq
                                   D1A2            ZDApp_ProcessMsgCBs (ZDApp)
               calls direct
               CSTACK = 00000000 ( 00000008 )
    -------------------------------------------------------------------------
<CODE> 1 (was CODE)
  Relative segment, address: D1EE - D1F3 (0x6 bytes), align: 1
  Segment part 42.            Intra module refs:   ZDO_ParseBindUnbindReq
           LOCAL                   ADDRESS         
           =====                   =======         
           ?Subroutine26           D1EE 
    -------------------------------------------------------------------------
<CODE> 1 (was CODE)
  Relative segment, address: D1F4 - D1FB (0x8 bytes), align: 1
  Segment part 43.            Intra module refs:   ?Subroutine10
                                                   ?Subroutine11
                                                   ?Subroutine26
                                                   ZDO_ProcessMatchDescReq
                                                   ZDO_ProcessServerDiscReq
                                                   ZDO_ProcessSimpleDescReq
    -------------------------------------------------------------------------
<CODE> 1 (was CODE)
  Relative segment, address: D1FC - D1FD (0x2 bytes), align: 1
  Segment part 53.            Intra module refs:   ZDO_ProcessMatchDescReq
           LOCAL                   ADDRESS         
           =====                   =======         
           ?Subroutine13           D1FC 
    -------------------------------------------------------------------------
<CODE> 1 (was CODE)
  Relative segment, address: D1FE - D203 (0x6 bytes), align: 1
  Segment part 54.            Intra module refs:   ?Subroutine13
                                                   ZDO_ProcessMatchDescReq
    -------------------------------------------------------------------------
<CODE> 1 (was CODE)
  Relative segment, address: D204 - D2A3 (0xa0 bytes), align: 1
  Segment part 59.
           ENTRY                   ADDRESS         REF BY
           =====                   =======         ======
           ZDO_ProcessUserDescSet
                                   D204            zdpMsgProcs (ZDProfile)
               calls direct
               CSTACK = 00000000 ( 00000020 )
    -------------------------------------------------------------------------
<CODE> 1 (was CODE)
  Relative segment, address: D2A4 - D30F (0x6c bytes), align: 1
  Segment part 60.
           ENTRY                   ADDRESS         REF BY
           =====                   =======         ======
           ZDO_ProcessUserDescReq
                                   D2A4            zdpMsgProcs (ZDProfile)
               calls direct
               CSTACK = 00000000 ( 0000001E )
    -------------------------------------------------------------------------
<CODE> 1 (was CODE)
  Relative segment, address: D310 - D317 (0x8 bytes), align: 1
  Segment part 64.            Intra module refs:   ZDO_ProcessBindUnbindReq
           LOCAL                   ADDRESS         
           =====                   =======         
           ?Subroutine15           D310 
    -------------------------------------------------------------------------
<CODE> 1 (was CODE)
  Relative segment, address: D318 - D31D (0x6 bytes), align: 1
  Segment part 65.            Intra module refs:   ?Subroutine15
    -------------------------------------------------------------------------
<CODE> 1 (was CODE)
  Relative segment, address: D31E - D34D (0x30 bytes), align: 1
  Segment part 76.
           ENTRY                   ADDRESS         REF BY
           =====                   =======         ======
           ZDO_ProcessServerDiscReq
                                   D31E            zdpMsgProcs (ZDProfile)
               calls direct
               CSTACK = 00000000 ( 00000008 )
    -------------------------------------------------------------------------
<CODE> 1 (was CODE)
  Relative segment, address: D34E - D357 (0xa bytes), align: 1
  Segment part 77.            Intra module refs:   ZDO_ParseAddrRsp
           LOCAL                   ADDRESS         
           =====                   =======         
           ?Subroutine11           D34E 
    -------------------------------------------------------------------------
<CODE> 3 (was CODE)
  Relative segment, address: 000126A0 - 0001270F (0x70 bytes), align: 1
  Segment part 87.
           ENTRY                   ADDRESS         REF BY
           =====                   =======         ======
           ZDO_ProcessSimpleDescReq
                                   000126A0        zdpMsgProcs (ZDProfile)
               calls direct
               CSTACK = 00000000 ( 0000000E )
    -------------------------------------------------------------------------
<CODE> 3 (was CODE)
  Relative segment, address: 00013152 - 000131A9 (0x58 bytes), align: 1
  Segment part 85.
           ENTRY                   ADDRESS         REF BY
           =====                   =======         ======
           ZDO_ProcessActiveEPReq
                                   00013152        zdpMsgProcs (ZDProfile)
               calls direct
               CSTACK = 00000000 ( 00000014 )
    -------------------------------------------------------------------------
<CODE> 3 (was CODE)
  Relative segment, address: 0001439C - 000143C7 (0x2c bytes), align: 1
  Segment part 84.            Intra module refs:   ZDO_ProcessMatchDescReq
           ENTRY                   ADDRESS         REF BY
           =====                   =======         ======
           ZDO_ConvertOTAClusters
                                   0001439C 
               CSTACK = 00000000 ( 0000000C )
    -------------------------------------------------------------------------
<CODE> 1 (was CODE)
  Relative segment, address: D814 - DA3D (0x22a bytes), align: 1
  Segment part 80.
           ENTRY                   ADDRESS         REF BY
           =====                   =======         ======
           ZDO_ProcessMatchDescReq
                                   D814            zdpMsgProcs (ZDProfile)
               calls direct and indirect
               CSTACK = 00000000 ( 00000022 )
    -------------------------------------------------------------------------
<CODE> 3 (was CODE)
  Relative segment, address: 00015722 - 00015729 (0x8 bytes), align: 1
  Segment part 81.            Intra module refs:   ZDO_ProcessMatchDescReq
           LOCAL                   ADDRESS         
           =====                   =======         
           ?Subroutine25           00015722 
    -------------------------------------------------------------------------
<CODE> 3 (was CODE)
  Relative segment, address: 00015166 - 00015167 (0x2 bytes), align: 1
  Segment part 82.            Intra module refs:   ZDO_ProcessMatchDescReq
           LOCAL                   ADDRESS         
           =====                   =======         
           ?Subroutine17           00015166 
    -------------------------------------------------------------------------
<CODE> 3 (was CODE)
  Relative segment, address: 00015168 - 00015177 (0x10 bytes), align: 1
  Segment part 83.            Intra module refs:   ?Subroutine17
                                                   ZDO_ProcessMatchDescReq
    -------------------------------------------------------------------------
<CODE> 3 (was CODE)
  Relative segment, address: 00010808 - 00010905 (0xfe bytes), align: 1
  Segment part 79.
           ENTRY                   ADDRESS         REF BY
           =====                   =======         ======
           ZDO_ProcessBindUnbindReq
                                   00010808        ZDApp_ProcessMsgCBs (ZDApp)
               calls direct
               CSTACK = 00000000 ( 0000001E )
    -------------------------------------------------------------------------
<CODE> 3 (was CODE)
  Relative segment, address: 00014A5A - 00014A7B (0x22 bytes), align: 1
  Segment part 78.
           ENTRY                   ADDRESS         REF BY
           =====                   =======         ======
           ZDO_UpdateAddrManager   00014A5A        ZDApp_ProcessMsgCBs (ZDApp)
               calls direct
               CSTACK = 00000000 ( 00000012 )
    -------------------------------------------------------------------------
DATA16_C
  Relative segment, address: 3725 - 3734 (0x10 bytes), align: 0
  Segment part 2.             Intra module refs:   ZDO_StartDevice
    -------------------------------------------------------------------------
DATA16_C
  Relative segment, address: 3735 - 3741 (0xd bytes), align: 0
  Segment part 3.             Intra module refs:   ZDO_StartDevice
    -------------------------------------------------------------------------
DATA16_C
  Relative segment, address: 3742 - 3750 (0xf bytes), align: 0
  Segment part 7.             Intra module refs:   ZDO_ProcessMatchDescReq
    -------------------------------------------------------------------------
DATA16_C
  Relative segment, address: 3751 - 3759 (0x9 bytes), align: 0
  Segment part 8.             Intra module refs:   ZDO_ProcessMatchDescReq
    -------------------------------------------------------------------------
DATA16_C
  Relative segment, address: 375A - 3769 (0x10 bytes), align: 0
  Segment part 9.             Intra module refs:   ZDO_ProcessMatchDescReq
    -------------------------------------------------------------------------
DATA16_C
  Relative segment, address: 376A - 3775 (0xc bytes), align: 0
  Segment part 10.            Intra module refs:   ZDO_ProcessMatchDescReq

    *************************************************************************

  FILE NAME : C:\Texas Instruments\ZStack-MSP2618-2.5.1\Projects\zstack\HomeAutomation\SampleSwitch\CC2520DB\EndDevice\Obj\ZDProfile.r43
  PROGRAM MODULE, NAME : ZDProfile

  SEGMENTS IN THE MODULE
  ======================
DATA16_Z
  Relative segment, address: 19DB - 19DB (0x1 bytes), align: 0
  Segment part 3.             Intra module refs:   ?Subroutine5
                                                   Segment part 64
                                                   ZDP_BindUnbindReq
                                                   ZDP_ServerDiscReq
           ENTRY                   ADDRESS         REF BY
           =====                   =======         ======
           ZDP_TransID             19DB 
    -------------------------------------------------------------------------
DATA16_Z
  Relative segment, address: 19DC - 1A2B (0x50 bytes), align: 0
  Segment part 4.             Intra module refs:   Segment part 6
           LOCAL                   ADDRESS         
           =====                   =======         
           ZDP_Buf                 19DC 
    -------------------------------------------------------------------------
DATA16_I
  Relative segment, address: 1182 - 1183 (0x2 bytes), align: 1
  Segment part 5.             Intra module refs:   ?Subroutine15
                                                   Segment part 31
                                                   ZDP_BindUnbindReq
                                                   ZDP_DeviceAnnce
                                                   ZDP_EPRsp
                                                   ZDP_EndDeviceBindReq
                                                   ZDP_GenericRsp
                                                   ZDP_IEEEAddrReq
                                                   ZDP_MatchDescReq
                                                   ZDP_NodeDescMsg
                                                   ZDP_NwkAddrReq
                                                   ZDP_PowerDescMsg
                                                   ZDP_SendData
                                                   ZDP_ServerDiscReq
                                                   ZDP_ServerDiscRsp
                                                   ZDP_SimpleDescMsg
                                                   ZDP_UserDescRsp
                                                   ZDP_UserDescSet
                                                   fillAndSend
                                                   zdpProcessAddrReq
           LOCAL                   ADDRESS         
           =====                   =======         
           ZDP_TmpBuf              1182 
    -------------------------------------------------------------------------
DATA16_Z
  Relative segment, address: 1A2C - 1A2C (0x1 bytes), align: 0
  Segment part 7.             Intra module refs:   Segment part 59
                                                   ZDP_BindUnbindReq
                                                   ZDP_EPRsp
                                                   ZDP_SendData
                                                   ZDP_ServerDiscReq
                                                   ZDP_ServerDiscRsp
                                                   fillAndSend
                                                   zdpProcessAddrReq
           ENTRY                   ADDRESS         REF BY
           =====                   =======         ======
           ZDP_TxOptions           1A2C 
    -------------------------------------------------------------------------
DATA16_Z
  Relative segment, address: 1486 - 1487 (0x2 bytes), align: 1
  Segment part 8.             Intra module refs:   ZDO_RegisterForZDOMsg
                                                   ZDO_RemoveRegisteredCB
                                                   ZDO_SendMsgCBs
           ENTRY                   ADDRESS         REF BY
           =====                   =======         ======
           zdoMsgCBs               1486 
    -------------------------------------------------------------------------
DATA16_C
  Relative segment, address: 33C4 - 33FF (0x3c bytes), align: 1
  Segment part 9.             Intra module refs:   ZDP_IncomingData
           ENTRY                   ADDRESS         REF BY
           =====                   =======         ======
           zdpMsgProcs             33C4 
    -------------------------------------------------------------------------
<CODE> 3 (was CODE)
  Relative segment, address: 000130A0 - 000130F9 (0x5a bytes), align: 1
  Segment part 71.            Intra module refs:   ?Subroutine12
                                                   ?Subroutine13
                                                   ?Subroutine5
                                                   Segment part 59
                                                   Segment part 64
                                                   ZDP_NodeDescMsg
           LOCAL                   ADDRESS         
           =====                   =======         
           fillAndSend             000130A0 
               calls direct
               CSTACK = 00000000 ( 00000020 )
    -------------------------------------------------------------------------
<CODE> 1 (was CODE)
  Relative segment, address: B5E0 - B5E9 (0xa bytes), align: 1
  Segment part 31.            Intra module refs:   ZDP_DeviceAnnce
    -------------------------------------------------------------------------
<CODE> 1 (was CODE)
  Relative segment, address: B5EA - B5F3 (0xa bytes), align: 1
  Segment part 33.            Intra module refs:   ZDP_NWKAddrOfInterestReq
                                                   ZDP_SimpleDescReq
           LOCAL                   ADDRESS         
           =====                   =======         
           ?Subroutine5            B5EA 
    -------------------------------------------------------------------------
<CODE> 1 (was CODE)
  Relative segment, address: B5F4 - B5FD (0xa bytes), align: 1
  Segment part 35.            Intra module refs:   ZDP_UserDescSet
           LOCAL                   ADDRESS         
           =====                   =======         
           ?Subroutine0            B5F4 
    -------------------------------------------------------------------------
<CODE> 1 (was CODE)
  Relative segment, address: B5FE - B67F (0x82 bytes), align: 1
  Segment part 37.
           ENTRY                   ADDRESS         REF BY
           =====                   =======         ======
           ZDP_BindUnbindReq       B5FE            ?Subroutine2 (MT_ZDO)
               calls direct
               CSTACK = 00000000 ( 00000010 )
    -------------------------------------------------------------------------
<CODE> 1 (was CODE)
  Relative segment, address: B680 - B687 (0x8 bytes), align: 1
  Segment part 38.            Intra module refs:   ZDP_BindUnbindReq
                                                   ZDP_SendData
           LOCAL                   ADDRESS         
           =====                   =======         
           ?Subroutine2            B680 
    -------------------------------------------------------------------------
<CODE> 1 (was CODE)
  Relative segment, address: B688 - B73F (0xb8 bytes), align: 1
  Segment part 39.
           ENTRY                   ADDRESS         REF BY
           =====                   =======         ======
           ZDP_EndDeviceBindReq    B688            MT_ZdoEndDevBindRequest (MT_ZDO)
                                                   zclSampleSw_HandleKeys (zcl_samplesw)
               calls direct
               CSTACK = 00000000 ( 00000014 )
    -------------------------------------------------------------------------
<CODE> 1 (was CODE)
  Relative segment, address: B740 - B751 (0x12 bytes), align: 1
  Segment part 40.            Intra module refs:   ZDP_EndDeviceBindReq
           LOCAL                   ADDRESS         
           =====                   =======         
           ?Subroutine16           B740 
    -------------------------------------------------------------------------
<CODE> 1 (was CODE)
  Relative segment, address: B752 - B77F (0x2e bytes), align: 1
  Segment part 41.
           ENTRY                   ADDRESS         REF BY
           =====                   =======         ======
           ZDP_GenericRsp          B752            ?Subroutine0 (ZDObject)
                                                   ZDApp_InMsgCB (ZDApp)
                                                   ZDO_ProcessUserDescReq (ZDObject)
               calls direct
               CSTACK = 00000000 ( 00000008 )
    -------------------------------------------------------------------------
<CODE> 1 (was CODE)
  Relative segment, address: B780 - B787 (0x8 bytes), align: 1
  Segment part 42.            Intra module refs:   ZDP_GenericRsp
                                                   ZDP_UserDescRsp
           LOCAL                   ADDRESS         
           =====                   =======         
           ?Subroutine12           B780 
    -------------------------------------------------------------------------
<CODE> 1 (was CODE)
  Relative segment, address: B788 - B7BB (0x34 bytes), align: 1
  Segment part 43.
           ENTRY                   ADDRESS         REF BY
           =====                   =======         ======
           ZDP_ServerDiscRsp       B788            ZDO_ProcessServerDiscReq (ZDObject)
               calls direct
               CSTACK = 00000000 ( 00000006 )
    -------------------------------------------------------------------------
<CODE> 1 (was CODE)
  Relative segment, address: B7BC - B7F5 (0x3a bytes), align: 1
  Segment part 44.
           ENTRY                   ADDRESS         REF BY
           =====                   =======         ======
           ZDP_UserDescRsp         B7BC            ZDO_ProcessUserDescReq (ZDObject)
               calls direct
               CSTACK = 00000000 ( 0000000A )
    -------------------------------------------------------------------------
<CODE> 1 (was CODE)
  Relative segment, address: B7F6 - B7FD (0x8 bytes), align: 1
  Segment part 45.            Intra module refs:   ZDP_BindUnbindReq
                                                   ZDP_EPRsp
                                                   ZDP_UserDescRsp
           LOCAL                   ADDRESS         
           =====                   =======         
           ?Subroutine9            B7F6 
    -------------------------------------------------------------------------
<CODE> 1 (was CODE)
  Relative segment, address: B7FE - B80D (0x10 bytes), align: 1
  Segment part 46.            Intra module refs:   ?Subroutine9
           LOCAL                   ADDRESS         
           =====                   =======         
           ?Subroutine22           B7FE 
    -------------------------------------------------------------------------
<CODE> 1 (was CODE)
  Relative segment, address: B80E - B865 (0x58 bytes), align: 1
  Segment part 47.
           ENTRY                   ADDRESS         REF BY
           =====                   =======         ======
           ZDP_EPRsp               B80E            Segment part 83 (ZDObject)
                                                   ZDO_ProcessActiveEPReq (ZDObject)
               calls direct
               CSTACK = 00000000 ( 0000000E )
    -------------------------------------------------------------------------
<CODE> 1 (was CODE)
  Relative segment, address: B866 - B95F (0xfa bytes), align: 1
  Segment part 48.
           ENTRY                   ADDRESS         REF BY
           =====                   =======         ======
           ZDP_SimpleDescMsg       B866            ZDO_ProcessSimpleDescReq (ZDObject)
               calls direct
               CSTACK = 00000000 ( 0000000C )
    -------------------------------------------------------------------------
<CODE> 1 (was CODE)
  Relative segment, address: B960 - B96D (0xe bytes), align: 1
  Segment part 49.            Intra module refs:   ZDP_SimpleDescMsg
           LOCAL                   ADDRESS         
           =====                   =======         
           ?Subroutine19           B960 
    -------------------------------------------------------------------------
<CODE> 1 (was CODE)
  Relative segment, address: B96E - B9B9 (0x4c bytes), align: 1
  Segment part 50.
           ENTRY                   ADDRESS         REF BY
           =====                   =======         ======
           ZDP_PowerDescMsg        B96E            ZDO_ProcessPowerDescReq (ZDObject)
               calls direct
               CSTACK = 00000000 ( 00000006 )
    -------------------------------------------------------------------------
<CODE> 1 (was CODE)
  Relative segment, address: B9BA - B9C5 (0xc bytes), align: 1
  Segment part 51.            Intra module refs:   ZDP_PowerDescMsg
                                                   ZDP_SimpleDescMsg
           LOCAL                   ADDRESS         
           =====                   =======         
           ?Subroutine13           B9BA 
    -------------------------------------------------------------------------
<CODE> 1 (was CODE)
  Relative segment, address: B9C6 - BA5D (0x98 bytes), align: 1
  Segment part 52.
           ENTRY                   ADDRESS         REF BY
           =====                   =======         ======
           ZDP_NodeDescMsg         B9C6            ZDO_ProcessNodeDescReq (ZDObject)
               calls direct
               CSTACK = 00000000 ( 00000004 )
    -------------------------------------------------------------------------
<CODE> 1 (was CODE)
  Relative segment, address: BA5E - BB35 (0xd8 bytes), align: 1
  Segment part 53.            Intra module refs:   zdpMsgProcs
           ENTRY                   ADDRESS         REF BY
           =====                   =======         ======
           zdpProcessAddrReq       BA5E 
               calls direct
               CSTACK = 00000000 ( 0000000C )
    -------------------------------------------------------------------------
<CODE> 1 (was CODE)
  Relative segment, address: BB36 - BB71 (0x3c bytes), align: 1
  Segment part 54.
           ENTRY                   ADDRESS         REF BY
           =====                   =======         ======
           ZDP_DeviceAnnce         BB36            MT_ZdoEndDevAnnce (MT_ZDO)
                                                   ZDApp_AnnounceNewAddress (ZDApp)
               calls direct
               CSTACK = 00000000 ( 00000010 )
    -------------------------------------------------------------------------
<CODE> 1 (was CODE)
  Relative segment, address: BB72 - BBA3 (0x32 bytes), align: 1
  Segment part 55.
           ENTRY                   ADDRESS         REF BY
           =====                   =======         ======
           ZDP_ServerDiscReq       BB72            MT_ZdoServiceDiscRequest (MT_ZDO)
               calls direct
               CSTACK = 00000000 ( 0000000E )
    -------------------------------------------------------------------------
<CODE> 1 (was CODE)
  Relative segment, address: BBA4 - BBA9 (0x6 bytes), align: 1
  Segment part 56.            Intra module refs:   ZDP_IEEEAddrReq
                                                   ZDP_ServerDiscReq
           LOCAL                   ADDRESS         
           =====                   =======         
           ?Subroutine4            BBA4 
    -------------------------------------------------------------------------
<CODE> 1 (was CODE)
  Relative segment, address: BBAA - BBB7 (0xe bytes), align: 1
  Segment part 57.            Intra module refs:   ZDP_DeviceAnnce
                                                   ZDP_NwkAddrReq
                                                   ZDP_ServerDiscReq
           LOCAL                   ADDRESS         
           =====                   =======         
           ?Subroutine17           BBAA 
    -------------------------------------------------------------------------
<CODE> 1 (was CODE)
  Relative segment, address: BBB8 - BBBB (0x4 bytes), align: 1
  Segment part 58.            Intra module refs:   ZDP_EPRsp
                                                   ZDP_ServerDiscRsp
           LOCAL                   ADDRESS         
           =====                   =======         
           ?Subroutine10           BBB8 
    -------------------------------------------------------------------------
<CODE> 1 (was CODE)
  Relative segment, address: BBBC - BBC5 (0xa bytes), align: 1
  Segment part 59.            Intra module refs:   ?Subroutine10
                                                   ?Subroutine2
                                                   ZDP_ServerDiscReq
                                                   zdpProcessAddrReq
    -------------------------------------------------------------------------
<CODE> 1 (was CODE)
  Relative segment, address: BBC6 - BC15 (0x50 bytes), align: 1
  Segment part 60.
           ENTRY                   ADDRESS         REF BY
           =====                   =======         ======
           ZDP_UserDescSet         BBC6            MT_ZdoUserDescSet (MT_ZDO)
               calls direct
               CSTACK = 00000000 ( 00000008 )
    -------------------------------------------------------------------------
<CODE> 1 (was CODE)
  Relative segment, address: BC16 - BC27 (0x12 bytes), align: 1
  Segment part 61.
           ENTRY                   ADDRESS         REF BY
           =====                   =======         ======
           ZDP_SimpleDescReq       BC16            MT_ZdoSimpleDescRequest (MT_ZDO)
               calls direct
               CSTACK = 00000000 ( 00000004 )
    -------------------------------------------------------------------------
<CODE> 1 (was CODE)
  Relative segment, address: BC28 - BCF1 (0xca bytes), align: 1
  Segment part 62.
           ENTRY                   ADDRESS         REF BY
           =====                   =======         ======
           ZDP_MatchDescReq        BC28            MT_ZdoMatchDescRequest (MT_ZDO)
                                                   zclSampleSw_HandleKeys (zcl_samplesw)
               calls direct
               CSTACK = 00000000 ( 00000010 )
    -------------------------------------------------------------------------
<CODE> 1 (was CODE)
  Relative segment, address: BCF2 - BCF5 (0x4 bytes), align: 1
  Segment part 63.            Intra module refs:   ZDP_DeviceAnnce
                                                   ZDP_IEEEAddrReq
                                                   ZDP_NwkAddrReq
           LOCAL                   ADDRESS         
           =====                   =======         
           ?Subroutine11           BCF2 
    -------------------------------------------------------------------------
<CODE> 1 (was CODE)
  Relative segment, address: BCF6 - BCFD (0x8 bytes), align: 1
  Segment part 64.            Intra module refs:   ?Subroutine0
                                                   ?Subroutine11
                                                   ZDP_EndDeviceBindReq
                                                   ZDP_MatchDescReq
    -------------------------------------------------------------------------
<CODE> 1 (was CODE)
  Relative segment, address: BCFE - BD27 (0x2a bytes), align: 1
  Segment part 65.
           ENTRY                   ADDRESS         REF BY
           =====                   =======         ======
           ZDP_IEEEAddrReq         BCFE            MT_ZdoIEEEAddrRequest (MT_ZDO)
               calls direct
               CSTACK = 00000000 ( 0000000E )
    -------------------------------------------------------------------------
<CODE> 1 (was CODE)
  Relative segment, address: BD28 - BD37 (0x10 bytes), align: 1
  Segment part 66.            Intra module refs:   ZDP_IEEEAddrReq
                                                   ZDP_ServerDiscReq
           LOCAL                   ADDRESS         
           =====                   =======         
           ?Subroutine18           BD28 
    -------------------------------------------------------------------------
<CODE> 1 (was CODE)
  Relative segment, address: BD38 - BD8B (0x54 bytes), align: 1
  Segment part 67.
           ENTRY                   ADDRESS         REF BY
           =====                   =======         ======
           ZDP_NwkAddrReq          BD38            MT_ZdoNWKAddressRequest (MT_ZDO)
                                                   ZDO_ProcessBindUnbindReq (ZDObject)
               calls direct
               CSTACK = 00000000 ( 00000016 )
    -------------------------------------------------------------------------
<CODE> 1 (was CODE)
  Relative segment, address: BD8C - BD97 (0xc bytes), align: 1
  Segment part 68.
           ENTRY                   ADDRESS         REF BY
           =====                   =======         ======
           ZDP_NWKAddrOfInterestReq
                                   BD8C            ?Subroutine0 (MT_ZDO)
               calls direct
               CSTACK = 00000000 ( 00000004 )
    -------------------------------------------------------------------------
<CODE> 1 (was CODE)
  Relative segment, address: BD98 - BDA9 (0x12 bytes), align: 1
  Segment part 69.            Intra module refs:   ZDP_NWKAddrOfInterestReq
                                                   ZDP_SimpleDescReq
           LOCAL                   ADDRESS         
           =====                   =======         
           ?Subroutine15           BD98 
    -------------------------------------------------------------------------
<CODE> 1 (was CODE)
  Relative segment, address: BDAA - BDDD (0x34 bytes), align: 1
  Segment part 70.
           ENTRY                   ADDRESS         REF BY
           =====                   =======         ======
           ZDP_SendData            BDAA            Segment part 65 (ZDObject)
                                                   ZDO_ProcessUserDescSet (ZDObject)
               calls direct
               CSTACK = 00000000 ( 00000010 )
    -------------------------------------------------------------------------
<CODE> 3 (was CODE)
  Relative segment, address: 0001325A - 000132AF (0x56 bytes), align: 1
  Segment part 13.
           ENTRY                   ADDRESS         REF BY
           =====                   =======         ======
           ZDO_RegisterForZDOMsg   0001325A        ?Subroutine16 (ZDApp)
                                                   MT_ZdoRegisterForZDOMsg (MT_ZDO)
                                                   zclSampleSw_Init (zcl_samplesw)
               calls direct
               CSTACK = 00000000 ( 0000000C )
    -------------------------------------------------------------------------
<CODE> 3 (was CODE)
  Relative segment, address: 000139DC - 00013A1F (0x44 bytes), align: 1
  Segment part 12.
           ENTRY                   ADDRESS         REF BY
           =====                   =======         ======
           ZDO_RemoveRegisteredCB
                                   000139DC        MT_ZdoRemoveRegisteredCB (MT_ZDO)
               calls direct
               CSTACK = 00000000 ( 00000004 )
    -------------------------------------------------------------------------
<CODE> 3 (was CODE)
  Relative segment, address: 00012A10 - 00012A79 (0x6a bytes), align: 1
  Segment part 11.            Intra module refs:   ZDP_IncomingData
           ENTRY                   ADDRESS         REF BY
           =====                   =======         ======
           ZDO_SendMsgCBs          00012A10 
               calls direct
               CSTACK = 00000000 ( 0000000C )
    -------------------------------------------------------------------------
<CODE> 3 (was CODE)
  Relative segment, address: 0001221C - 000122A5 (0x8a bytes), align: 1
  Segment part 10.
           ENTRY                   ADDRESS         REF BY
           =====                   =======         ======
           ZDP_IncomingData        0001221C        ZDApp_ProcessOSALMsg (ZDApp)
               calls direct and indirect
               CSTACK = 00000000 ( 00000020 )
    -------------------------------------------------------------------------
DATA16_ID
  Relative segment, address: 399A - 399B (0x2 bytes), align: 1
  Segment part 6.             Intra module refs:   ZDP_TmpBuf

    *************************************************************************

  FILE NAME : C:\Texas Instruments\ZStack-MSP2618-2.5.1\Projects\zstack\HomeAutomation\SampleSwitch\CC2520DB\EndDevice\Obj\ZDSecMgr.r43
  PROGRAM MODULE, NAME : ZDSecMgr

  SEGMENTS IN THE MODULE
  ======================
DATA16_Z
  Relative segment, address: 1488 - 1489 (0x2 bytes), align: 1
  Segment part 5.             Intra module refs:   ZDSecMgrEntryLookupAMI
           ENTRY                   ADDRESS         REF BY
           =====                   =======         ======
           ZDSecMgrEntries         1488 
    -------------------------------------------------------------------------
<CODE> 2 (was CODE)
  Relative segment, address: FA00 - FA01 (0x2 bytes), align: 1
  Segment part 23.            Intra module refs:   ZDSecMgrEntryFree
           LOCAL                   ADDRESS         
           =====                   =======         
           ?Subroutine28           FA00 
    -------------------------------------------------------------------------
<CODE> 2 (was CODE)
  Relative segment, address: FA02 - FA09 (0x8 bytes), align: 1
  Segment part 24.            Intra module refs:   ?Subroutine28
    -------------------------------------------------------------------------
<CODE> 2 (was CODE)
  Relative segment, address: FA0A - FA0F (0x6 bytes), align: 1
  Segment part 45.            Intra module refs:   ZDSecMgrDeviceRemoveByExtAddr
           LOCAL                   ADDRESS         
           =====                   =======         
           ?Subroutine10           FA0A 
    -------------------------------------------------------------------------
<CODE> 2 (was CODE)
  Relative segment, address: FA10 - FA13 (0x4 bytes), align: 1
  Segment part 46.
           ENTRY                   ADDRESS         REF BY
           =====                   =======         ======
           ZDSecMgrAuthenticationCheck
                                   FA10            APSDE_DataReq (APS)
                                                   APSME_FrameSecurityRemove (APS)
               CSTACK = 00000000 ( 00000004 )
    -------------------------------------------------------------------------
<CODE> 2 (was CODE)
  Relative segment, address: FA14 - FA1B (0x8 bytes), align: 1
  Segment part 48.            Intra module refs:   ZDSecMgrDeviceRemoveByExtAddr
           LOCAL                   ADDRESS         
           =====                   =======         
           ?Subroutine34           FA14 
    -------------------------------------------------------------------------
<CODE> 2 (was CODE)
  Relative segment, address: FA1C - FA23 (0x8 bytes), align: 1
  Segment part 61.            Intra module refs:   ZDSecMgrAddrClear
           LOCAL                   ADDRESS         
           =====                   =======         
           ?Subroutine5            FA1C 
    -------------------------------------------------------------------------
<CODE> 2 (was CODE)
  Relative segment, address: FA24 - FA27 (0x4 bytes), align: 1
  Segment part 75.
           ENTRY                   ADDRESS         REF BY
           =====                   =======         ======
           ZDSecMgrInit            FA24            ZDOInitDevice (ZDApp)
               calls direct
               CSTACK = 00000000 ( 00000004 )
    -------------------------------------------------------------------------
<CODE> 2 (was CODE)
  Relative segment, address: FA28 - FA29 (0x2 bytes), align: 1
  Segment part 85.            Intra module refs:   ZDSecMgrEntryLookupExt
           LOCAL                   ADDRESS         
           =====                   =======         
           ?Subroutine2            FA28 
    -------------------------------------------------------------------------
<CODE> 2 (was CODE)
  Relative segment, address: FA2A - FA2F (0x6 bytes), align: 1
  Segment part 86.            Intra module refs:   ?Subroutine2
    -------------------------------------------------------------------------
<CODE> 2 (was CODE)
  Relative segment, address: FA30 - FA49 (0x1a bytes), align: 1
  Segment part 105.
           ENTRY                   ADDRESS         REF BY
           =====                   =======         ======
           ZDSecMgrDeviceRemoveByExtAddr
                                   FA30            ZDApp_LeaveUpdate (ZDApp)
               calls direct
               CSTACK = 00000000 ( 00000008 )
    -------------------------------------------------------------------------
<CODE> 2 (was CODE)
  Relative segment, address: FA4A - FA51 (0x8 bytes), align: 1
  Segment part 125.           Intra module refs:   ZDSecMgrEntryFree
           LOCAL                   ADDRESS         
           =====                   =======         
           ?Subroutine15           FA4A 
    -------------------------------------------------------------------------
<CODE> 2 (was CODE)
  Relative segment, address: FA52 - FA87 (0x36 bytes), align: 1
  Segment part 127.           Intra module refs:   ZDSecMgrDeviceRemoveByExtAddr
           ENTRY                   ADDRESS         REF BY
           =====                   =======         ======
           ZDSecMgrEntryFree       FA52 
               calls direct
               CSTACK = 00000000 ( 00000008 )
    -------------------------------------------------------------------------
<CODE> 2 (was CODE)
  Relative segment, address: FA88 - FA91 (0xa bytes), align: 1
  Segment part 128.           Intra module refs:   ZDSecMgrEntryFree
           LOCAL                   ADDRESS         
           =====                   =======         
           ?Subroutine27           FA88 
    -------------------------------------------------------------------------
<CODE> 2 (was CODE)
  Relative segment, address: FA92 - FA99 (0x8 bytes), align: 1
  Segment part 131.           Intra module refs:   ZDSecMgrEntryLookupAMI
           LOCAL                   ADDRESS         
           =====                   =======         
           ?Subroutine32           FA92 
    -------------------------------------------------------------------------
<CODE> 2 (was CODE)
  Relative segment, address: FA9A - FABD (0x24 bytes), align: 1
  Segment part 132.           Intra module refs:   ?Subroutine34
           ENTRY                   ADDRESS         REF BY
           =====                   =======         ======
           ZDSecMgrEntryLookupExt
                                   FA9A 
               calls direct
               CSTACK = 00000000 ( 0000000A )
    -------------------------------------------------------------------------
<CODE> 2 (was CODE)
  Relative segment, address: FABE - FAC5 (0x8 bytes), align: 1
  Segment part 133.           Intra module refs:   ZDSecMgrAddrClear
                                                   ZDSecMgrEntryLookupExt
           LOCAL                   ADDRESS         
           =====                   =======         
           ?Subroutine35           FABE 
    -------------------------------------------------------------------------
<CODE> 2 (was CODE)
  Relative segment, address: FAC6 - FAFB (0x36 bytes), align: 1
  Segment part 134.           Intra module refs:   ZDSecMgrEntryLookupExt
           ENTRY                   ADDRESS         REF BY
           =====                   =======         ======
           ZDSecMgrEntryLookupAMI
                                   FAC6 
               CSTACK = 00000000 ( 00000008 )
    -------------------------------------------------------------------------
<CODE> 2 (was CODE)
  Relative segment, address: FAFC - FB27 (0x2c bytes), align: 1
  Segment part 144.
           ENTRY                   ADDRESS         REF BY
           =====                   =======         ======
           ZDSecMgrAddrClear       FAFC            ZDApp_LeaveUpdate (ZDApp)
               calls direct
               CSTACK = 00000000 ( 00000016 )
    -------------------------------------------------------------------------
<CODE> 2 (was CODE)
  Relative segment, address: FB28 - FB47 (0x20 bytes), align: 1
  Segment part 145.           Intra module refs:   ?Subroutine35
           ENTRY                   ADDRESS         REF BY
           =====                   =======         ======
           ZDSecMgrExtAddrLookup   FB28 
               calls direct
               CSTACK = 00000000 ( 00000014 )
    -------------------------------------------------------------------------
<CODE> 2 (was CODE)
  Relative segment, address: FB48 - FB67 (0x20 bytes), align: 1
  Segment part 146.           Intra module refs:   ZDSecMgrExtAddrLookup
           LOCAL                   ADDRESS         
           =====                   =======         
           ?Subroutine0            FB48 
    -------------------------------------------------------------------------
<CODE> 2 (was CODE)
  Relative segment, address: FB68 - FB6F (0x8 bytes), align: 1
  Segment part 147.           Intra module refs:   ?Subroutine0
    -------------------------------------------------------------------------
<CODE> 2 (was CODE)
  Relative segment, address: FB70 - FB87 (0x18 bytes), align: 1
  Segment part 148.           Intra module refs:   ?Subroutine0
           LOCAL                   ADDRESS         
           =====                   =======         
           ?Subroutine30           FB70 

    *************************************************************************

  FILE NAME : C:\Texas Instruments\ZStack-MSP2618-2.5.1\Projects\zstack\HomeAutomation\SampleSwitch\CC2520DB\EndDevice\Obj\ZGlobals.r43
  PROGRAM MODULE, NAME : ZGlobals

  SEGMENTS IN THE MODULE
  ======================
DATA16_I
  Relative segment, address: 1184 - 1185 (0x2 bytes), align: 1
  Segment part 2.
           ENTRY                   ADDRESS         REF BY
           =====                   =======         ======
           zgPollRate              1184            NLME_SetPollRate (APS)
                                                   Segment part 563 (APS)
                                                   ZDConfig_UpdatePowerDescriptor (ZDConfig)
    -------------------------------------------------------------------------
DATA16_I
  Relative segment, address: 1186 - 1187 (0x2 bytes), align: 1
  Segment part 4.
           ENTRY                   ADDRESS         REF BY
           =====                   =======         ======
           zgQueuedPollRate        1186            NLME_SetQueuedPollRate (APS)
                                                   nwk_data_ind_processing (APS)
    -------------------------------------------------------------------------
DATA16_I
  Relative segment, address: 1188 - 1189 (0x2 bytes), align: 1
  Segment part 6.
           ENTRY                   ADDRESS         REF BY
           =====                   =======         ======
           zgResponsePollRate      1188            NLME_ReJoinReq (APS)
                                                   NLME_RejoinRspCmdProcess (APS)
                                                   NLME_SetResponseRate (APS)
                                                   nwk_data_cnf_processing (APS)
                                                   nwk_event_loop (APS)
    -------------------------------------------------------------------------
DATA16_I
  Relative segment, address: 118A - 118B (0x2 bytes), align: 1
  Segment part 8.
           ENTRY                   ADDRESS         REF BY
           =====                   =======         ======
           zgRejoinPollRate        118A            NLME_ReJoinReq (APS)
    -------------------------------------------------------------------------
DATA16_I
  Relative segment, address: 11FE - 11FE (0x1 bytes), align: 0
  Segment part 10.
           ENTRY                   ADDRESS         REF BY
           =====                   =======         ======
           zgMaxDataRetries        11FE            nwk_MacDataBuffersAdd (APS)
    -------------------------------------------------------------------------
DATA16_I
  Relative segment, address: 11FF - 11FF (0x1 bytes), align: 0
  Segment part 12.
           ENTRY                   ADDRESS         REF BY
           =====                   =======         ======
           zgMaxPollFailureRetries
                                   11FF            RTG_UpdateNeighborEntry (APS)
    -------------------------------------------------------------------------
DATA16_I
  Relative segment, address: 118C - 118F (0x4 bytes), align: 1
  Segment part 14.
           ENTRY                   ADDRESS         REF BY
           =====                   =======         ======
           zgDefaultChannelList    118C            ZDO_StartDevice (ZDObject)
    -------------------------------------------------------------------------
DATA16_I
  Relative segment, address: 1200 - 1200 (0x1 bytes), align: 0
  Segment part 16.
           ENTRY                   ADDRESS         REF BY
           =====                   =======         ======
           zgDefaultStartingScanDuration
                                   1200            ZDApp_ProcessOSALMsg (ZDApp)
                                                   ZDO_StartDevice (ZDObject)
    -------------------------------------------------------------------------
DATA16_I
  Relative segment, address: 1201 - 1201 (0x1 bytes), align: 0
  Segment part 18.
           ENTRY                   ADDRESS         REF BY
           =====                   =======         ======
           zgStackProfile          1201            ZDApp_NodeProfileSync (ZDApp)
                                                   ZDApp_NwkDescListProcessing (ZDApp)
    -------------------------------------------------------------------------
DATA16_I
  Relative segment, address: 1202 - 1202 (0x1 bytes), align: 0
  Segment part 20.
           ENTRY                   ADDRESS         REF BY
           =====                   =======         ======
           zgIndirectMsgTimeout    1202            NIB_init (nwk_globals)
    -------------------------------------------------------------------------
DATA16_Z
  Relative segment, address: 1A2D - 1A2D (0x1 bytes), align: 0
  Segment part 22.
           ENTRY                   ADDRESS         REF BY
           =====                   =======         ======
           zgSecurityMode          1A2D            NLDE_DataReqSend (APS)
    -------------------------------------------------------------------------
DATA16_I
  Relative segment, address: 1203 - 1203 (0x1 bytes), align: 0
  Segment part 26.
           ENTRY                   ADDRESS         REF BY
           =====                   =======         ======
           zgRouteDiscoveryTime    1203            NIB_init (nwk_globals)
    -------------------------------------------------------------------------
DATA16_I
  Relative segment, address: 1204 - 1204 (0x1 bytes), align: 0
  Segment part 28.
           ENTRY                   ADDRESS         REF BY
           =====                   =======         ======
           zgRouteExpiryTime       1204            NIB_init (nwk_globals)
    -------------------------------------------------------------------------
DATA16_Z
  Relative segment, address: 1A2E - 1A35 (0x8 bytes), align: 0
  Segment part 30.            Intra module refs:   zgInit
           ENTRY                   ADDRESS         REF BY
           =====                   =======         ======
           zgExtendedPANID         1A2E            NIB_init (nwk_globals)
    -------------------------------------------------------------------------
DATA16_I
  Relative segment, address: 1205 - 1205 (0x1 bytes), align: 0
  Segment part 31.
           ENTRY                   ADDRESS         REF BY
           =====                   =======         ======
           zgMaxBcastRetires       1205            NIB_init (nwk_globals)
    -------------------------------------------------------------------------
DATA16_I
  Relative segment, address: 1206 - 1206 (0x1 bytes), align: 0
  Segment part 33.
           ENTRY                   ADDRESS         REF BY
           =====                   =======         ======
           zgPassiveAckTimeout     1206            NIB_init (nwk_globals)
    -------------------------------------------------------------------------
DATA16_I
  Relative segment, address: 1207 - 1207 (0x1 bytes), align: 0
  Segment part 35.
           ENTRY                   ADDRESS         REF BY
           =====                   =======         ======
           zgBcastDeliveryTime     1207            NIB_init (nwk_globals)
    -------------------------------------------------------------------------
DATA16_Z
  Relative segment, address: 1A36 - 1A36 (0x1 bytes), align: 0
  Segment part 39.
           ENTRY                   ADDRESS         REF BY
           =====                   =======         ======
           zgConcentratorEnable    1A36            NIB_init (nwk_globals)
                                                   ZDApp_event_loop (ZDApp)
                                                   nwk_indSendError (APS)
    -------------------------------------------------------------------------
DATA16_Z
  Relative segment, address: 1A37 - 1A37 (0x1 bytes), align: 0
  Segment part 40.
           ENTRY                   ADDRESS         REF BY
           =====                   =======         ======
           zgConcentratorDiscoveryTime
                                   1A37            NIB_init (nwk_globals)
    -------------------------------------------------------------------------
DATA16_I
  Relative segment, address: 1208 - 1208 (0x1 bytes), align: 0
  Segment part 41.
           ENTRY                   ADDRESS         REF BY
           =====                   =======         ======
           zgConcentratorRadius    1208            NIB_init (nwk_globals)
                                                   RTG_MTORouteReq (APS)
    -------------------------------------------------------------------------
DATA16_Z
  Relative segment, address: 1A38 - 1A38 (0x1 bytes), align: 0
  Segment part 43.
           ENTRY                   ADDRESS         REF BY
           =====                   =======         ======
           zgConcentratorRC        1A38            RTG_MTORouteReq (APS)
    -------------------------------------------------------------------------
DATA16_I
  Relative segment, address: 1209 - 1209 (0x1 bytes), align: 0
  Segment part 47.
           ENTRY                   ADDRESS         REF BY
           =====                   =======         ======
           zgApscMaxFrameRetries   1209            APSF_IncomingData (APS)
                                                   APSF_TxNextFrame (APS)
                                                   NLDE_DataCnf (APS)
    -------------------------------------------------------------------------
DATA16_I
  Relative segment, address: 1190 - 1191 (0x2 bytes), align: 1
  Segment part 49.
           ENTRY                   ADDRESS         REF BY
           =====                   =======         ======
           zgApscAckWaitDurationPolled
                                   1190            NLDE_DataCnf (APS)
    -------------------------------------------------------------------------
DATA16_I
  Relative segment, address: 120A - 120A (0x1 bytes), align: 0
  Segment part 51.
           ENTRY                   ADDRESS         REF BY
           =====                   =======         ======
           zgApsAckWaitMultiplier
                                   120A            Segment part 620 (APS)
    -------------------------------------------------------------------------
DATA16_Z
  Relative segment, address: 1A39 - 1A40 (0x8 bytes), align: 0
  Segment part 55.
           ENTRY                   ADDRESS         REF BY
           =====                   =======         ======
           zgApsUseExtendedPANID   1A39            APS_Init (APS)
    -------------------------------------------------------------------------
DATA16_I
  Relative segment, address: 120B - 120B (0x1 bytes), align: 0
  Segment part 56.
           ENTRY                   ADDRESS         REF BY
           =====                   =======         ======
           zgApsUseInsecureJoin    120B            APS_Init (APS)
    -------------------------------------------------------------------------
DATA16_I
  Relative segment, address: 120C - 120C (0x1 bytes), align: 0
  Segment part 58.
           ENTRY                   ADDRESS         REF BY
           =====                   =======         ======
           zgApsNonMemberRadius    120C            NLDE_DataReqSend (APS)
    -------------------------------------------------------------------------
DATA16_I
  Relative segment, address: 1192 - 1193 (0x2 bytes), align: 1
  Segment part 63.
           ENTRY                   ADDRESS         REF BY
           =====                   =======         ======
           zgConfigPANID           1192            ZDApp_NwkDescListProcessing (ZDApp)
    -------------------------------------------------------------------------
DATA16_I
  Relative segment, address: 120D - 120D (0x1 bytes), align: 0
  Segment part 65.
           ENTRY                   ADDRESS         REF BY
           =====                   =======         ======
           zgDeviceLogicalType     120D            ZDAppDetermineDeviceType (ZDApp)
                                                   ZDApp_ProcessOSALMsg (ZDApp)
                                                   ZDO_Init (ZDObject)
    -------------------------------------------------------------------------
DATA16_C
  Relative segment, address: 3400 - 3405 (0x6 bytes), align: 1
  Segment part 75.            Intra module refs:   zgInitItems
                                                   zgSetItem
           LOCAL                   ADDRESS         
           =====                   =======         
           zgItemTable             3400 
    -------------------------------------------------------------------------
<CODE> 3 (was CODE)
  Relative segment, address: 000144D0 - 000144FB (0x2c bytes), align: 1
  Segment part 82.            Intra module refs:   zgInitItems
           LOCAL                   ADDRESS         
           =====                   =======         
           zgItemInit              000144D0 
               calls direct
               CSTACK = 00000000 ( 0000000C )
    -------------------------------------------------------------------------
<CODE> 3 (was CODE)
  Relative segment, address: 000141EC - 0001421D (0x32 bytes), align: 1
  Segment part 81.
           ENTRY                   ADDRESS         REF BY
           =====                   =======         ======
           zgInit                  000141EC        main (ZMain)
               calls direct
               CSTACK = 00000000 ( 00000006 )
    -------------------------------------------------------------------------
<CODE> 3 (was CODE)
  Relative segment, address: 00014478 - 000144A3 (0x2c bytes), align: 1
  Segment part 80.            Intra module refs:   zgInit
           ENTRY                   ADDRESS         REF BY
           =====                   =======         ======
           zgInitItems             00014478        ZDOInitDevice (ZDApp)
               calls direct
               CSTACK = 00000000 ( 00000008 )
    -------------------------------------------------------------------------
<CODE> 3 (was CODE)
  Relative segment, address: 00014A16 - 00014A37 (0x22 bytes), align: 1
  Segment part 78.            Intra module refs:   zgInit
           ENTRY                   ADDRESS         REF BY
           =====                   =======         ======
           zgReadStartupOptions    00014A16 
               calls direct
               CSTACK = 00000000 ( 00000006 )
    -------------------------------------------------------------------------
<CODE> 3 (was CODE)
  Relative segment, address: 00015338 - 00015347 (0x10 bytes), align: 1
  Segment part 79.            Intra module refs:   zgReadStartupOptions
                                                   zgWriteStartupOptions
           LOCAL                   ADDRESS         
           =====                   =======         
           ?Subroutine0            00015338 
    -------------------------------------------------------------------------
<CODE> 3 (was CODE)
  Relative segment, address: 00013CC4 - 00013CFD (0x3a bytes), align: 1
  Segment part 77.            Intra module refs:   zgInit
           ENTRY                   ADDRESS         REF BY
           =====                   =======         ======
           zgWriteStartupOptions   00013CC4        ZDApp_event_loop (ZDApp)
                                                   ZDOInitDevice (ZDApp)
               calls direct
               CSTACK = 00000000 ( 0000000A )
    -------------------------------------------------------------------------
<CODE> 3 (was CODE)
  Relative segment, address: 0001421E - 0001424F (0x32 bytes), align: 1
  Segment part 76.
           ENTRY                   ADDRESS         REF BY
           =====                   =======         ======
           zgSetItem               0001421E        MT_SysOsalNVWrite (MT_SYS)
               calls direct
               CSTACK = 00000000 ( 00000008 )
    -------------------------------------------------------------------------
DATA16_ID
  Relative segment, address: 399C - 399D (0x2 bytes), align: 1
  Segment part 3.             Intra module refs:   zgPollRate
    -------------------------------------------------------------------------
DATA16_ID
  Relative segment, address: 399E - 399F (0x2 bytes), align: 1
  Segment part 5.             Intra module refs:   zgQueuedPollRate
    -------------------------------------------------------------------------
DATA16_ID
  Relative segment, address: 39A0 - 39A1 (0x2 bytes), align: 1
  Segment part 7.             Intra module refs:   zgResponsePollRate
    -------------------------------------------------------------------------
DATA16_ID
  Relative segment, address: 39A2 - 39A3 (0x2 bytes), align: 1
  Segment part 9.             Intra module refs:   zgRejoinPollRate
    -------------------------------------------------------------------------
DATA16_ID
  Relative segment, address: 3A16 - 3A16 (0x1 bytes), align: 0
  Segment part 11.            Intra module refs:   zgMaxDataRetries
    -------------------------------------------------------------------------
DATA16_ID
  Relative segment, address: 3A17 - 3A17 (0x1 bytes), align: 0
  Segment part 13.            Intra module refs:   zgMaxPollFailureRetries
    -------------------------------------------------------------------------
DATA16_ID
  Relative segment, address: 39A4 - 39A7 (0x4 bytes), align: 1
  Segment part 15.            Intra module refs:   zgDefaultChannelList
    -------------------------------------------------------------------------
DATA16_ID
  Relative segment, address: 3A18 - 3A18 (0x1 bytes), align: 0
  Segment part 17.            Intra module refs:   zgDefaultStartingScanDuration
    -------------------------------------------------------------------------
DATA16_ID
  Relative segment, address: 3A19 - 3A19 (0x1 bytes), align: 0
  Segment part 19.            Intra module refs:   zgStackProfile
    -------------------------------------------------------------------------
DATA16_ID
  Relative segment, address: 3A1A - 3A1A (0x1 bytes), align: 0
  Segment part 21.            Intra module refs:   zgIndirectMsgTimeout
    -------------------------------------------------------------------------
DATA16_ID
  Relative segment, address: 3A1B - 3A1B (0x1 bytes), align: 0
  Segment part 27.            Intra module refs:   zgRouteDiscoveryTime
    -------------------------------------------------------------------------
DATA16_ID
  Relative segment, address: 3A1C - 3A1C (0x1 bytes), align: 0
  Segment part 29.            Intra module refs:   zgRouteExpiryTime
    -------------------------------------------------------------------------
DATA16_ID
  Relative segment, address: 3A1D - 3A1D (0x1 bytes), align: 0
  Segment part 32.            Intra module refs:   zgMaxBcastRetires
    -------------------------------------------------------------------------
DATA16_ID
  Relative segment, address: 3A1E - 3A1E (0x1 bytes), align: 0
  Segment part 34.            Intra module refs:   zgPassiveAckTimeout
    -------------------------------------------------------------------------
DATA16_ID
  Relative segment, address: 3A1F - 3A1F (0x1 bytes), align: 0
  Segment part 36.            Intra module refs:   zgBcastDeliveryTime
    -------------------------------------------------------------------------
DATA16_ID
  Relative segment, address: 3A20 - 3A20 (0x1 bytes), align: 0
  Segment part 42.            Intra module refs:   zgConcentratorRadius
    -------------------------------------------------------------------------
DATA16_ID
  Relative segment, address: 3A21 - 3A21 (0x1 bytes), align: 0
  Segment part 48.            Intra module refs:   zgApscMaxFrameRetries
    -------------------------------------------------------------------------
DATA16_ID
  Relative segment, address: 39A8 - 39A9 (0x2 bytes), align: 1
  Segment part 50.            Intra module refs:   zgApscAckWaitDurationPolled
    -------------------------------------------------------------------------
DATA16_ID
  Relative segment, address: 3A22 - 3A22 (0x1 bytes), align: 0
  Segment part 52.            Intra module refs:   zgApsAckWaitMultiplier
    -------------------------------------------------------------------------
DATA16_ID
  Relative segment, address: 3A23 - 3A23 (0x1 bytes), align: 0
  Segment part 57.            Intra module refs:   zgApsUseInsecureJoin
    -------------------------------------------------------------------------
DATA16_ID
  Relative segment, address: 3A24 - 3A24 (0x1 bytes), align: 0
  Segment part 59.            Intra module refs:   zgApsNonMemberRadius
    -------------------------------------------------------------------------
DATA16_ID
  Relative segment, address: 39AA - 39AB (0x2 bytes), align: 1
  Segment part 64.            Intra module refs:   zgConfigPANID
    -------------------------------------------------------------------------
DATA16_ID
  Relative segment, address: 3A25 - 3A25 (0x1 bytes), align: 0
  Segment part 66.            Intra module refs:   zgDeviceLogicalType

    *************************************************************************

  FILE NAME : C:\Texas Instruments\ZStack-MSP2618-2.5.1\Projects\zstack\HomeAutomation\SampleSwitch\CC2520DB\EndDevice\Obj\ZMain.r43
  PROGRAM MODULE, NAME : ZMain

  SEGMENTS IN THE MODULE
  ======================
DATA16_AN
  Relative segment, address: 0002 - 0002 (0x1 bytes), align: 0
  Segment part 1. ROOT.       Intra module refs:   halAssertHazardLights (hal_assert)
                                                   main
           ENTRY                   ADDRESS         REF BY
           =====                   =======         ======
           IFG1                    0002 
    -------------------------------------------------------------------------
DATA16_AN
  Relative segment, address: 0057 - 0057 (0x1 bytes), align: 0
  Segment part 2. ROOT.       Intra module refs:   halAssertHazardLights (hal_assert)
                                                   main
           ENTRY                   ADDRESS         REF BY
           =====                   =======         ======
           BCSCTL1                 0057 
    -------------------------------------------------------------------------
DATA16_AN
  Relative segment, address: 0058 - 0058 (0x1 bytes), align: 0
  Segment part 3. ROOT.       Intra module refs:   halAssertHazardLights (hal_assert)
                                                   main
           ENTRY                   ADDRESS         REF BY
           =====                   =======         ======
           BCSCTL2                 0058 
    -------------------------------------------------------------------------
DATA16_AN
  Relative segment, address: 0053 - 0053 (0x1 bytes), align: 0
  Segment part 4. ROOT.       Intra module refs:   halAssertHazardLights (hal_assert)
                                                   main
           ENTRY                   ADDRESS         REF BY
           =====                   =======         ======
           BCSCTL3                 0053 
    -------------------------------------------------------------------------
DATA16_AN
  Relative segment, address: 0022 - 0022 (0x1 bytes), align: 0
  Segment part 5. ROOT.       Intra module refs:   halAssertHazardLights (hal_assert)
                                                   halMacInit (hal_mac_cfg)
                                                   macDualchipTurnOnRadioPower (mac_dualchip)
                                                   macDualchipTxPrepCsmaSlotted (mac_dualchip_tx)
                                                   macDualchipTxPrepSlotted (mac_dualchip_tx)
                                                   main
           ENTRY                   ADDRESS         REF BY
           =====                   =======         ======
           P1DIR                   0022 
    -------------------------------------------------------------------------
DATA16_AN
  Relative segment, address: 0026 - 0026 (0x1 bytes), align: 0
  Segment part 6. ROOT.       Intra module refs:   halAssertHazardLights (hal_assert)
                                                   halMacInit (hal_mac_cfg)
                                                   macDualchipTurnOnRadioPower (mac_dualchip)
                                                   macDualchipTxPrepCsmaSlotted (mac_dualchip_tx)
                                                   macDualchipTxPrepSlotted (mac_dualchip_tx)
                                                   main
           ENTRY                   ADDRESS         REF BY
           =====                   =======         ======
           P1SEL                   0026 
    -------------------------------------------------------------------------
DATA16_AN
  Relative segment, address: 002A - 002A (0x1 bytes), align: 0
  Segment part 7. ROOT.       Intra module refs:   HalUARTOpen (hal_uart)
                                                   halAssertHazardLights (hal_assert)
                                                   main
           ENTRY                   ADDRESS         REF BY
           =====                   =======         ======
           P2DIR                   002A 
    -------------------------------------------------------------------------
DATA16_AN
  Relative segment, address: 002E - 002E (0x1 bytes), align: 0
  Segment part 8. ROOT.       Intra module refs:   halAssertHazardLights (hal_assert)
                                                   main
           ENTRY                   ADDRESS         REF BY
           =====                   =======         ======
           P2SEL                   002E 
    -------------------------------------------------------------------------
DATA16_AN
  Relative segment, address: 001D - 001D (0x1 bytes), align: 0
  Segment part 9. ROOT.       Intra module refs:   HalLedOnOff (hal_led)
                                                   halAssertHazardLights (hal_assert)
                                                   main
           ENTRY                   ADDRESS         REF BY
           =====                   =======         ======
           P4OUT                   001D 
    -------------------------------------------------------------------------
DATA16_AN
  Relative segment, address: 001E - 001E (0x1 bytes), align: 0
  Segment part 10. ROOT.      Intra module refs:   halAssertHazardLights (hal_assert)
                                                   main
           ENTRY                   ADDRESS         REF BY
           =====                   =======         ======
           P4DIR                   001E 
    -------------------------------------------------------------------------
<CODE> 3 (was CODE)
  Relative segment, address: 00011998 - 00011A3F (0xa8 bytes), align: 1
  Segment part 23.
           ENTRY                   ADDRESS         REF BY
           =====                   =======         ======
           main                    00011998        Segment part 22 (?cstart)
               calls direct
               CSTACK = 00000000 ( 00000006 )
    -------------------------------------------------------------------------
<CODE> 3 (was CODE)
  Relative segment, address: 00015348 - 00015349 (0x2 bytes), align: 1
  Segment part 19.            Intra module refs:   zmain_cert_init
           LOCAL                   ADDRESS         
           =====                   =======         
           ?Subroutine1            00015348 
    -------------------------------------------------------------------------
<CODE> 3 (was CODE)
  Relative segment, address: 0001534A - 00015357 (0xe bytes), align: 1
  Segment part 20.            Intra module refs:   ?Subroutine1
                                                   zmain_ext_addr
    -------------------------------------------------------------------------
<CODE> 3 (was CODE)
  Relative segment, address: 00011D78 - 00011E15 (0x9e bytes), align: 1
  Segment part 21.            Intra module refs:   main
           LOCAL                   ADDRESS         
           =====                   =======         
           zmain_ext_addr          00011D78 
               calls direct
               CSTACK = 00000000 ( 00000010 )
    -------------------------------------------------------------------------
<CODE> 3 (was CODE)
  Relative segment, address: 0001568C - 00015695 (0xa bytes), align: 1
  Segment part 22.            Intra module refs:   zmain_cert_init
                                                   zmain_ext_addr
           LOCAL                   ADDRESS         
           =====                   =======         
           ?Subroutine2            0001568C 
    -------------------------------------------------------------------------
<CODE> 3 (was CODE)
  Relative segment, address: 0001134C - 0001140B (0xc0 bytes), align: 1
  Segment part 18.            Intra module refs:   main
           LOCAL                   ADDRESS         
           =====                   =======         
           zmain_cert_init         0001134C 
               calls direct
               CSTACK = 00000000 ( 00000068 )
    -------------------------------------------------------------------------
<CODE> 3 (was CODE)
  Relative segment, address: 00013716 - 0001375F (0x4a bytes), align: 1
  Segment part 16.            Intra module refs:   main
           LOCAL                   ADDRESS         
           =====                   =======         
           zmain_dev_info          00013716 
               calls direct
               CSTACK = 00000000 ( 0000001A )
    -------------------------------------------------------------------------
<CODE> 3 (was CODE)
  Relative segment, address: 00014B62 - 00014B81 (0x20 bytes), align: 1
  Segment part 17.            Intra module refs:   zmain_dev_info
           LOCAL                   ADDRESS         
           =====                   =======         
           ?Subroutine0            00014B62 
    -------------------------------------------------------------------------
DATA16_C
  Relative segment, address: 3776 - 377D (0x8 bytes), align: 0
  Segment part 13.            Intra module refs:   zmain_ext_addr
    -------------------------------------------------------------------------
DATA16_C
  Relative segment, address: 377E - 37AD (0x30 bytes), align: 0
  Segment part 14.            Intra module refs:   zmain_cert_init
    -------------------------------------------------------------------------
DATA16_C
  Relative segment, address: 37AE - 37B4 (0x7 bytes), align: 0
  Segment part 15.            Intra module refs:   zmain_dev_info

    *************************************************************************

  FILE NAME : C:\Texas Instruments\ZStack-MSP2618-2.5.1\Projects\zstack\HomeAutomation\SampleSwitch\CC2520DB\EndDevice\Obj\hal_adc.r43
  PROGRAM MODULE, NAME : hal_adc

  SEGMENTS IN THE MODULE
  ======================
DATA16_AN
  Relative segment, address: 01A0 - 01A1 (0x2 bytes), align: 0
  Segment part 1. ROOT.       Intra module refs:   HalAdcCheckVdd
                                                   HalAdcInit
                                                   HalAdcReadJoyLevel
                                                   HalAdcReadPot
                                                   HalAdcReadTS
           ENTRY                   ADDRESS         REF BY
           =====                   =======         ======
           ADC12CTL0               01A0 
    -------------------------------------------------------------------------
DATA16_AN
  Relative segment, address: 01A2 - 01A3 (0x2 bytes), align: 0
  Segment part 2. ROOT.       Intra module refs:   HalAdcCheckVdd
                                                   HalAdcInit
                                                   HalAdcReadJoyLevel
                                                   HalAdcReadPot
                                                   HalAdcReadTS
           ENTRY                   ADDRESS         REF BY
           =====                   =======         ======
           ADC12CTL1               01A2 
    -------------------------------------------------------------------------
DATA16_AN
  Relative segment, address: 01A4 - 01A5 (0x2 bytes), align: 0
  Segment part 3. ROOT.       Intra module refs:   HalAdcCheckVdd
                                                   HalAdcReadJoyLevel
                                                   HalAdcReadPot
                                                   HalAdcReadTS
           ENTRY                   ADDRESS         REF BY
           =====                   =======         ======
           ADC12IFG                01A4 
    -------------------------------------------------------------------------
DATA16_AN
  Relative segment, address: 0140 - 0141 (0x2 bytes), align: 0
  Segment part 4. ROOT.       Intra module refs:   HalAdcCheckVdd
                                                   HalAdcReadPot
           ENTRY                   ADDRESS         REF BY
           =====                   =======         ======
           ADC12MEM0               0140 
    -------------------------------------------------------------------------
DATA16_AN
  Relative segment, address: 014C - 014D (0x2 bytes), align: 0
  Segment part 5. ROOT.       Intra module refs:   HalAdcReadJoyLevel
           ENTRY                   ADDRESS         REF BY
           =====                   =======         ======
           ADC12MEM6               014C 
    -------------------------------------------------------------------------
DATA16_AN
  Relative segment, address: 0154 - 0155 (0x2 bytes), align: 0
  Segment part 6. ROOT.       Intra module refs:   HalAdcReadTS
           ENTRY                   ADDRESS         REF BY
           =====                   =======         ======
           ADC12MEM10              0154 
    -------------------------------------------------------------------------
DATA16_AN
  Relative segment, address: 0080 - 0080 (0x1 bytes), align: 0
  Segment part 7. ROOT.       Intra module refs:   HalAdcCheckVdd
                                                   HalAdcInit
                                                   HalAdcReadPot
           ENTRY                   ADDRESS         REF BY
           =====                   =======         ======
           ADC12MCTL0              0080 
    -------------------------------------------------------------------------
DATA16_AN
  Relative segment, address: 0086 - 0086 (0x1 bytes), align: 0
  Segment part 8. ROOT.       Intra module refs:   HalAdcReadJoyLevel
           ENTRY                   ADDRESS         REF BY
           =====                   =======         ======
           ADC12MCTL6              0086 
    -------------------------------------------------------------------------
DATA16_AN
  Relative segment, address: 008A - 008A (0x1 bytes), align: 0
  Segment part 9. ROOT.       Intra module refs:   HalAdcReadTS
           ENTRY                   ADDRESS         REF BY
           =====                   =======         ======
           ADC12MCTL10             008A 
    -------------------------------------------------------------------------
DATA16_AN
  Relative segment, address: 0037 - 0037 (0x1 bytes), align: 0
  Segment part 10. ROOT.      Intra module refs:   HalAdcInit
           ENTRY                   ADDRESS         REF BY
           =====                   =======         ======
           P6SEL                   0037 
    -------------------------------------------------------------------------
<CODE> 3 (was CODE)
  Relative segment, address: 00015064 - 00015077 (0x14 bytes), align: 1
  Segment part 18.
           ENTRY                   ADDRESS         REF BY
           =====                   =======         ======
           HalAdcInit              00015064        HalDriverInit (hal_drivers)
               CSTACK = 00000000 ( 00000004 )
    -------------------------------------------------------------------------
<CODE> 3 (was CODE)
  Relative segment, address: 00013A60 - 00013A9F (0x40 bytes), align: 1
  Segment part 17.
           ENTRY                   ADDRESS         REF BY
           =====                   =======         ======
           HalAdcRead              00013A60        MT_SysAdcRead (MT_SYS)
               calls direct
               CSTACK = 00000000 ( 00000004 )
    -------------------------------------------------------------------------
<CODE> 3 (was CODE)
  Relative segment, address: 00013AA0 - 00013ADD (0x3e bytes), align: 1
  Segment part 16.
           ENTRY                   ADDRESS         REF BY
           =====                   =======         ======
           HalAdcCheckVdd          00013AA0        main (ZMain)
                                                   osal_nv_item_init (OSAL_Nv)
                                                   osal_nv_write (OSAL_Nv)
               CSTACK = 00000000 ( 00000004 )
    -------------------------------------------------------------------------
<CODE> 3 (was CODE)
  Relative segment, address: 000156AA - 000156B3 (0xa bytes), align: 1
  Segment part 14.            Intra module refs:   HalAdcReadJoyLevel
                                                   HalAdcReadPot
                                                   HalAdcReadTS
           LOCAL                   ADDRESS         
           =====                   =======         
           ?Subroutine0            000156AA 
    -------------------------------------------------------------------------
<CODE> 3 (was CODE)
  Relative segment, address: 00014892 - 000148B5 (0x24 bytes), align: 1
  Segment part 15.            Intra module refs:   HalAdcRead
           ENTRY                   ADDRESS         REF BY
           =====                   =======         ======
           HalAdcReadPot           00014892 
               CSTACK = 00000000 ( 00000004 )
    -------------------------------------------------------------------------
<CODE> 3 (was CODE)
  Relative segment, address: 00014788 - 000147AF (0x28 bytes), align: 1
  Segment part 13.            Intra module refs:   HalAdcRead
           ENTRY                   ADDRESS         REF BY
           =====                   =======         ======
           HalAdcReadJoyLevel      00014788 
               CSTACK = 00000000 ( 00000004 )
    -------------------------------------------------------------------------
<CODE> 3 (was CODE)
  Relative segment, address: 000146C0 - 000146E7 (0x28 bytes), align: 1
  Segment part 12.            Intra module refs:   HalAdcRead
           ENTRY                   ADDRESS         REF BY
           =====                   =======         ======
           HalAdcReadTS            000146C0 
               CSTACK = 00000000 ( 00000004 )

    *************************************************************************

  FILE NAME : C:\Texas Instruments\ZStack-MSP2618-2.5.1\Projects\zstack\HomeAutomation\SampleSwitch\CC2520DB\EndDevice\Obj\hal_assert.r43
  PROGRAM MODULE, NAME : hal_assert

  SEGMENTS IN THE MODULE
  ======================
DATA16_AN
  Relative segment, address: 001C - 001C (0x1 bytes), align: 0
  Segment part 9. ROOT.       Intra module refs:   HalKeyPoll (hal_key)
                                                   HalKeyRead (hal_key)
                                                   halAssertHazardLights
           ENTRY                   ADDRESS         REF BY
           =====                   =======         ======
           P4IN                    001C 
    -------------------------------------------------------------------------
<CODE> 3 (was CODE)
  Relative segment, address: 000157DC - 000157DF (0x4 bytes), align: 1
  Segment part 17.
           ENTRY                   ADDRESS         REF BY
           =====                   =======         ======
           halAssertHandler        000157DC        ?Subroutine1 (mac_backoff_timer)
                                                   ?Subroutine1 (mac_mcu_timer)
                                                   ?Subroutine2 (mac_rx_onoff)
                                                   ?Subroutine3 (mac_mcu_timer)
                                                   ?Subroutine4 (mac_dualchip)
                                                   APSF_AddObj (APS)
                                                   halMacFifopIsr (hal_mac_cfg)
                                                   halMacInit (hal_mac_cfg)
                                                   halMacTimerCaptureCompareIsr (mac_mcu_timer)
                                                   macBackoffTimerSetRollover (mac_backoff_timer)
                                                   macBackoffTimerTriggerCallback (mac_beacon)
                                                   macDualchipSystemInit (mac_dualchip)
                                                   macDualchipTurnOffRadioPower (mac_dualchip)
                                                   macDualchipTxGoCsma (mac_dualchip_tx)
                                                   macDualchipTxGoSlottedCsma (mac_dualchip_tx)
                                                   macLowLevelReset (mac_low_level)
                                                   macMcuTimerUsecs (mac_mcu_timer)
                                                   macRadioSetChannel (mac_radio)
                                                   macRadioStartScan (mac_radio)
                                                   macRadioUpdateChannel (mac_radio)
                                                   macRxEnable (mac_rx_onoff)
                                                   macRxPromiscuousMode (mac_rx)
                                                   macSleepWakeUp (mac_sleep)
                                                   macSpiReadRam (mac_spi)
                                                   macTimerRecalcUnaligned (mac_beacon)
                                                   macTxChannelBusyCallback (mac_tx)
                                                   macTxFrame (mac_tx)
                                                   macTxStartQueuedFrame (mac_tx)
                                                   mac_msg_deallocate (mac_beacon)
                                                   main (ZMain)
                                                   osal_mem_alloc (OSAL_Memory)
                                                   osal_mem_free (OSAL_Memory)
                                                   osal_mem_kick (OSAL_Memory)
                                                   rxAddrIsr (mac_rx)
                                                   rxDiscardFrame (mac_rx)
                                                   rxStartIsr (mac_rx)
                                                   spiFifoAccess (mac_spi)
                                                   spiSendBytes (mac_spi)
                                                   spiWriteRamByte (mac_spi)
               calls direct
               CSTACK = 00000000 ( 00000004 )
    -------------------------------------------------------------------------
<CODE> 3 (was CODE)
  Relative segment, address: 0001014A - 00010291 (0x148 bytes), align: 1
  Segment part 15.            Intra module refs:   halAssertHandler
           ENTRY                   ADDRESS         REF BY
           =====                   =======         ======
           halAssertHazardLights   0001014A 
               calls direct
               CSTACK = 00000000 ( 0000000E )
    -------------------------------------------------------------------------
<CODE> 3 (was CODE)
  Relative segment, address: 000151C0 - 000151D1 (0x12 bytes), align: 1
  Segment part 16.            Intra module refs:   halAssertHazardLights
           LOCAL                   ADDRESS         
           =====                   =======         
           ?Subroutine0            000151C0 
    -------------------------------------------------------------------------
DATA16_Z
  Relative segment, address: 1A41 - 1A41 (0x1 bytes), align: 0
  Segment part 14.            Intra module refs:   halAssertHazardLights
           LOCAL                   ADDRESS         
           =====                   =======         
           halAssertHazardLights{22}{23}{31}::escape
                                   1A41 

    *************************************************************************

  FILE NAME : C:\Texas Instruments\ZStack-MSP2618-2.5.1\Projects\zstack\HomeAutomation\SampleSwitch\CC2520DB\EndDevice\Obj\hal_drivers.r43
  PROGRAM MODULE, NAME : hal_drivers

  SEGMENTS IN THE MODULE
  ======================
DATA16_Z
  Relative segment, address: 1A42 - 1A42 (0x1 bytes), align: 0
  Segment part 2.             Intra module refs:   Hal_Init
                                                   Hal_ProcessEvent
           ENTRY                   ADDRESS         REF BY
           =====                   =======         ======
           Hal_TaskID              1A42            HalKeyConfig (hal_key)
                                                   HalLedBlink (hal_led)
                                                   HalLedUpdate (hal_led)
                                                   halBoardPort1Isr (hal_key)
    -------------------------------------------------------------------------
<CODE> 3 (was CODE)
  Relative segment, address: 00015778 - 0001577D (0x6 bytes), align: 1
  Segment part 6.
           ENTRY                   ADDRESS         REF BY
           =====                   =======         ======
           Hal_Init                00015778        osalInitTasks (OSAL_SampleSw)
               CSTACK = 00000000 ( 00000004 )
    -------------------------------------------------------------------------
<CODE> 3 (was CODE)
  Relative segment, address: 000150DC - 000150EF (0x14 bytes), align: 1
  Segment part 5.
           ENTRY                   ADDRESS         REF BY
           =====                   =======         ======
           HalDriverInit           000150DC        main (ZMain)
               calls direct
               CSTACK = 00000000 ( 00000004 )
    -------------------------------------------------------------------------
<CODE> 3 (was CODE)
  Relative segment, address: 0001335C - 000133AF (0x54 bytes), align: 1
  Segment part 4.
           ENTRY                   ADDRESS         REF BY
           =====                   =======         ======
           Hal_ProcessEvent        0001335C        tasksArr (OSAL_SampleSw)
               calls direct
               CSTACK = 00000000 ( 00000006 )
    -------------------------------------------------------------------------
<CODE> 3 (was CODE)
  Relative segment, address: 000157D0 - 000157D3 (0x4 bytes), align: 1
  Segment part 3.
           ENTRY                   ADDRESS         REF BY
           =====                   =======         ======
           Hal_ProcessPoll         000157D0        osal_run_system (OSAL)
               calls direct
               CSTACK = 00000000 ( 00000004 )

    *************************************************************************

  FILE NAME : C:\Texas Instruments\ZStack-MSP2618-2.5.1\Projects\zstack\HomeAutomation\SampleSwitch\CC2520DB\EndDevice\Obj\hal_key.r43
  PROGRAM MODULE, NAME : hal_key

  SEGMENTS IN THE MODULE
  ======================
DATA16_AN
  Relative segment, address: 0028 - 0028 (0x1 bytes), align: 0
  Segment part 1. ROOT.       Intra module refs:   HalKeyPoll
                                                   HalKeyRead
           ENTRY                   ADDRESS         REF BY
           =====                   =======         ======
           P2IN                    0028 
    -------------------------------------------------------------------------
DATA16_AN
  Relative segment, address: 002B - 002B (0x1 bytes), align: 0
  Segment part 2. ROOT.       Intra module refs:   halBoardPort1Isr
           ENTRY                   ADDRESS         REF BY
           =====                   =======         ======
           P2IFG                   002B 
    -------------------------------------------------------------------------
DATA16_AN
  Relative segment, address: 002C - 002C (0x1 bytes), align: 0
  Segment part 3. ROOT.       Intra module refs:   HalKeyConfig
           ENTRY                   ADDRESS         REF BY
           =====                   =======         ======
           P2IES                   002C 
    -------------------------------------------------------------------------
DATA16_AN
  Relative segment, address: 002D - 002D (0x1 bytes), align: 0
  Segment part 4. ROOT.       Intra module refs:   HalKeyConfig
           ENTRY                   ADDRESS         REF BY
           =====                   =======         ======
           P2IE                    002D 
    -------------------------------------------------------------------------
DATA16_AN
  Relative segment, address: 0034 - 0034 (0x1 bytes), align: 0
  Segment part 6. ROOT.       Intra module refs:   HalKeyPoll
                                                   HalKeyRead
           ENTRY                   ADDRESS         REF BY
           =====                   =======         ======
           P6IN                    0034 
    -------------------------------------------------------------------------
DATA16_Z
  Relative segment, address: 1A43 - 1A43 (0x1 bytes), align: 0
  Segment part 9.             Intra module refs:   HalKeyInit
                                                   HalKeyPoll
           LOCAL                   ADDRESS         
           =====                   =======         
           halSavedKeys            1A43 
    -------------------------------------------------------------------------
DATA16_Z
  Relative segment, address: 148A - 148D (0x4 bytes), align: 1
  Segment part 10.            Intra module refs:   HalKeyConfig
                                                   HalKeyInit
                                                   HalKeyPoll
           LOCAL                   ADDRESS         
           =====                   =======         
           pHal_KeyProcessFunction
                                   148A 
    -------------------------------------------------------------------------
DATA16_Z
  Relative segment, address: 1A44 - 1A44 (0x1 bytes), align: 0
  Segment part 11.            Intra module refs:   HalKeyConfig
                                                   HalKeyPoll
           ENTRY                   ADDRESS         REF BY
           =====                   =======         ======
           Hal_KeyIntEnable        1A44            Hal_ProcessEvent (hal_drivers)
    -------------------------------------------------------------------------
<CODE> 3 (was CODE)
  Relative segment, address: 000154C4 - 000154D1 (0xe bytes), align: 1
  Segment part 17.
           ENTRY                   ADDRESS         REF BY
           =====                   =======         ======
           HalKeyInit              000154C4        HalDriverInit (hal_drivers)
               CSTACK = 00000000 ( 00000004 )
    -------------------------------------------------------------------------
<CODE> 3 (was CODE)
  Relative segment, address: 00014310 - 0001433F (0x30 bytes), align: 1
  Segment part 16.
           ENTRY                   ADDRESS         REF BY
           =====                   =======         ======
           HalKeyConfig            00014310        InitBoard (OnBoard)
               calls direct
               CSTACK = 00000000 ( 00000004 )
    -------------------------------------------------------------------------
<CODE> 3 (was CODE)
  Relative segment, address: 000129A4 - 00012A0F (0x6c bytes), align: 1
  Segment part 15.
           ENTRY                   ADDRESS         REF BY
           =====                   =======         ======
           HalKeyRead              000129A4        ZDAppCheckForHoldKey (ZDApp)
               CSTACK = 00000000 ( 0000000C )
    -------------------------------------------------------------------------
<CODE> 3 (was CODE)
  Relative segment, address: 00011E16 - 00011EB1 (0x9c bytes), align: 1
  Segment part 13.
           ENTRY                   ADDRESS         REF BY
           =====                   =======         ======
           HalKeyPoll              00011E16        Hal_ProcessEvent (hal_drivers)
               calls indirect
               CSTACK = 00000000 ( 0000000C )
    -------------------------------------------------------------------------
<CODE> 3 (was CODE)
  Relative segment, address: 00014048 - 0001407D (0x36 bytes), align: 1
  Segment part 14.            Intra module refs:   HalKeyPoll
           LOCAL                   ADDRESS         
           =====                   =======         
           ?Subroutine0            00014048 
    -------------------------------------------------------------------------
ISR_CODE
  Relative segment, address: 3130 - 3147 (0x18 bytes), align: 1
  Segment part 12.            Intra module refs:   halBoardPort1Isr::??INTVEC 38
           ENTRY                   ADDRESS         REF BY
           =====                   =======         ======
           halBoardPort1Isr        3130 
               interrupt function
               calls direct
               CSTACK = 00000000 ( 0000000C )
    -------------------------------------------------------------------------
INTVEC
  Common segment, address: FFC0 - FFE7 (0x28 bytes), align: 1
  Segment part 7. ROOT.
           ENTRY                   ADDRESS         REF BY
           =====                   =======         ======
           halBoardPort1Isr::??INTVEC 38
                                   FFE6 

    *************************************************************************

  FILE NAME : C:\Texas Instruments\ZStack-MSP2618-2.5.1\Projects\zstack\HomeAutomation\SampleSwitch\CC2520DB\EndDevice\Obj\hal_lcd.r43
  PROGRAM MODULE, NAME : hal_lcd

  SEGMENTS IN THE MODULE
  ======================
DATA16_AN
  Relative segment, address: 0003 - 0003 (0x1 bytes), align: 0
  Segment part 1. ROOT.       Intra module refs:   HalLcd_HW_Control
                                                   HalLcd_HW_Write
                                                   HalUARTOpen (hal_uart)
                                                   HalUARTPoll (hal_uart)
                                                   Hal_UART_TxProcessEvent (hal_uart)
           ENTRY                   ADDRESS         REF BY
           =====                   =======         ======
           IFG2                    0003 
    -------------------------------------------------------------------------
DATA16_AN
  Relative segment, address: 001B - 001B (0x1 bytes), align: 0
  Segment part 2. ROOT.       Intra module refs:   HalLcd_HW_Init
                                                   HalUARTOpen (hal_uart)
           ENTRY                   ADDRESS         REF BY
           =====                   =======         ======
           P3SEL                   001B 
    -------------------------------------------------------------------------
DATA16_AN
  Relative segment, address: 0035 - 0035 (0x1 bytes), align: 0
  Segment part 3. ROOT.       Intra module refs:   HalLcd_HW_Control
                                                   HalLcd_HW_Init
                                                   HalLcd_HW_Write
           ENTRY                   ADDRESS         REF BY
           =====                   =======         ======
           P6OUT                   0035 
    -------------------------------------------------------------------------
DATA16_AN
  Relative segment, address: 0036 - 0036 (0x1 bytes), align: 0
  Segment part 4. ROOT.       Intra module refs:   HalLcd_HW_Init
           ENTRY                   ADDRESS         REF BY
           =====                   =======         ======
           P6DIR                   0036 
    -------------------------------------------------------------------------
DATA16_AN
  Relative segment, address: 0068 - 0068 (0x1 bytes), align: 0
  Segment part 5. ROOT.       Intra module refs:   HalLcd_HW_Init
           ENTRY                   ADDRESS         REF BY
           =====                   =======         ======
           UCB0CTL0                0068 
    -------------------------------------------------------------------------
DATA16_AN
  Relative segment, address: 0069 - 0069 (0x1 bytes), align: 0
  Segment part 6. ROOT.       Intra module refs:   HalLcd_HW_Init
           ENTRY                   ADDRESS         REF BY
           =====                   =======         ======
           UCB0CTL1                0069 
    -------------------------------------------------------------------------
DATA16_AN
  Relative segment, address: 006A - 006A (0x1 bytes), align: 0
  Segment part 7. ROOT.       Intra module refs:   HalLcd_HW_Init
           ENTRY                   ADDRESS         REF BY
           =====                   =======         ======
           UCB0BR0                 006A 
    -------------------------------------------------------------------------
DATA16_AN
  Relative segment, address: 006B - 006B (0x1 bytes), align: 0
  Segment part 8. ROOT.       Intra module refs:   HalLcd_HW_Init
           ENTRY                   ADDRESS         REF BY
           =====                   =======         ======
           UCB0BR1                 006B 
    -------------------------------------------------------------------------
DATA16_AN
  Relative segment, address: 006F - 006F (0x1 bytes), align: 0
  Segment part 9. ROOT.       Intra module refs:   HalLcd_HW_Control
                                                   HalLcd_HW_Write
           ENTRY                   ADDRESS         REF BY
           =====                   =======         ======
           UCB0TXBUF               006F 
    -------------------------------------------------------------------------
DATA16_Z
  Relative segment, address: 148E - 148F (0x2 bytes), align: 1
  Segment part 13.            Intra module refs:   HalLcdInit
                                                   HalLcdWriteString
           LOCAL                   ADDRESS         
           =====                   =======         
           Lcd_Line1               148E 
    -------------------------------------------------------------------------
<CODE> 3 (was CODE)
  Relative segment, address: 000156DA - 000156E1 (0x8 bytes), align: 1
  Segment part 35.
           ENTRY                   ADDRESS         REF BY
           =====                   =======         ======
           HalLcdInit              000156DA        HalDriverInit (hal_drivers)
               calls direct
               CSTACK = 00000000 ( 00000004 )
    -------------------------------------------------------------------------
<CODE> 3 (was CODE)
  Relative segment, address: 000116F0 - 0001179B (0xac bytes), align: 1
  Segment part 34.            Intra module refs:   HalLcdWriteScreen
                                                   HalLcdWriteValue
                                                   Segment part 30
           ENTRY                   ADDRESS         REF BY
           =====                   =======         ======
           HalLcdWriteString       000116F0        nwk_Status (nwk_globals)
                                                   zmain_dev_info (ZMain)
               calls direct
               CSTACK = 00000000 ( 00000014 )
    -------------------------------------------------------------------------
<CODE> 3 (was CODE)
  Relative segment, address: 00014922 - 00014945 (0x24 bytes), align: 1
  Segment part 33.
           ENTRY                   ADDRESS         REF BY
           =====                   =======         ======
           HalLcdWriteValue        00014922        nwk_Status (nwk_globals)
               calls direct
               CSTACK = 00000000 ( 00000020 )
    -------------------------------------------------------------------------
<CODE> 3 (was CODE)
  Relative segment, address: 00014FBC - 00014FD1 (0x16 bytes), align: 1
  Segment part 32.
           ENTRY                   ADDRESS         REF BY
           =====                   =======         ======
           HalLcdWriteScreen       00014FBC        ZDO_ProcessMatchDescReq (ZDObject)
                                                   ZDO_StartDevice (ZDObject)
                                                   nwk_Status (nwk_globals)
               calls direct
               CSTACK = 00000000 ( 00000006 )
    -------------------------------------------------------------------------
<CODE> 3 (was CODE)
  Relative segment, address: 000153C8 - 000153D1 (0xa bytes), align: 1
  Segment part 29.            Intra module refs:   HalLcdWriteStringValue
           LOCAL                   ADDRESS         
           =====                   =======         
           ?Subroutine4            000153C8 
    -------------------------------------------------------------------------
<CODE> 3 (was CODE)
  Relative segment, address: 000153D2 - 000153D7 (0x6 bytes), align: 1
  Segment part 30.            Intra module refs:   ?Subroutine4
    -------------------------------------------------------------------------
<CODE> 3 (was CODE)
  Relative segment, address: 00013C4E - 00013C89 (0x3c bytes), align: 1
  Segment part 31.
           ENTRY                   ADDRESS         REF BY
           =====                   =======         ======
           HalLcdWriteStringValue
                                   00013C4E        nwk_Status (nwk_globals)
               calls direct
               CSTACK = 00000000 ( 0000002A )
    -------------------------------------------------------------------------
<CODE> 3 (was CODE)
  Relative segment, address: 00011F4A - 00011FE1 (0x98 bytes), align: 1
  Segment part 25.            Intra module refs:   HalLcdInit
           ENTRY                   ADDRESS         REF BY
           =====                   =======         ======
           HalLcd_HW_Init          00011F4A 
               calls direct
               CSTACK = 00000000 ( 00000004 )
    -------------------------------------------------------------------------
<CODE> 3 (was CODE)
  Relative segment, address: 00014280 - 00014293 (0x14 bytes), align: 1
  Segment part 21.            Intra module refs:   ?Subroutine2
                                                   HalLcd_HW_Clear
                                                   HalLcd_HW_ClearAllSpecChars
           ENTRY                   ADDRESS         REF BY
           =====                   =======         ======
           HalLcd_HW_Write         00014280 
               CSTACK = 00000000 ( 00000004 )
    -------------------------------------------------------------------------
<CODE> 3 (was CODE)
  Relative segment, address: 00014294 - 00014299 (0x6 bytes), align: 1
  Segment part 22.            Intra module refs:   HalLcd_HW_Control
                                                   HalLcd_HW_Write
           LOCAL                   ADDRESS         
           =====                   =======         
           ?Subroutine0            00014294 
    -------------------------------------------------------------------------
<CODE> 3 (was CODE)
  Relative segment, address: 0001429A - 000142AF (0x16 bytes), align: 1
  Segment part 23.            Intra module refs:   ?Subroutine2
                                                   HalLcd_HW_Clear
                                                   HalLcd_HW_ClearAllSpecChars
                                                   HalLcd_HW_Init
           ENTRY                   ADDRESS         REF BY
           =====                   =======         ======
           HalLcd_HW_Control       0001429A 
               CSTACK = 00000000 ( 00000004 )
    -------------------------------------------------------------------------
<CODE> 3 (was CODE)
  Relative segment, address: 00015408 - 00015417 (0x10 bytes), align: 1
  Segment part 24.            Intra module refs:   HalLcd_HW_Control
                                                   HalLcd_HW_Write
           LOCAL                   ADDRESS         
           =====                   =======         
           ?Subroutine1            00015408 
    -------------------------------------------------------------------------
<CODE> 3 (was CODE)
  Relative segment, address: 000153F8 - 00015407 (0x10 bytes), align: 1
  Segment part 19.            Intra module refs:   HalLcd_HW_Init
           ENTRY                   ADDRESS         REF BY
           =====                   =======         ======
           HalLcd_HW_SetContrast   000153F8 
               calls direct
               CSTACK = 00000000 ( 00000006 )
    -------------------------------------------------------------------------
<CODE> 3 (was CODE)
  Relative segment, address: 0001560A - 00015613 (0xa bytes), align: 1
  Segment part 20.            Intra module refs:   HalLcd_HW_SetContrast
                                                   HalLcd_HW_WriteChar
           LOCAL                   ADDRESS         
           =====                   =======         
           ?Subroutine2            0001560A 
    -------------------------------------------------------------------------
<CODE> 3 (was CODE)
  Relative segment, address: 00014C00 - 00014C1D (0x1e bytes), align: 1
  Segment part 18.            Intra module refs:   HalLcd_HW_Init
           ENTRY                   ADDRESS         REF BY
           =====                   =======         ======
           HalLcd_HW_Clear         00014C00 
               calls direct
               CSTACK = 00000000 ( 00000006 )
    -------------------------------------------------------------------------
<CODE> 3 (was CODE)
  Relative segment, address: 00014DD4 - 00014DEF (0x1c bytes), align: 1
  Segment part 17.            Intra module refs:   HalLcd_HW_Init
           ENTRY                   ADDRESS         REF BY
           =====                   =======         ======
           HalLcd_HW_ClearAllSpecChars
                                   00014DD4 
               calls direct
               CSTACK = 00000000 ( 00000006 )
    -------------------------------------------------------------------------
<CODE> 3 (was CODE)
  Relative segment, address: 00014C3C - 00014C59 (0x1e bytes), align: 1
  Segment part 16.            Intra module refs:   HalLcd_HW_WriteLine
           ENTRY                   ADDRESS         REF BY
           =====                   =======         ======
           HalLcd_HW_WriteChar     00014C3C 
               calls direct
               CSTACK = 00000000 ( 00000006 )
    -------------------------------------------------------------------------
<CODE> 3 (was CODE)
  Relative segment, address: 00013B5A - 00013B97 (0x3e bytes), align: 1
  Segment part 15.            Intra module refs:   HalLcdWriteString
           ENTRY                   ADDRESS         REF BY
           =====                   =======         ======
           HalLcd_HW_WriteLine     00013B5A 
               calls direct
               CSTACK = 00000000 ( 0000000C )
    -------------------------------------------------------------------------
<CODE> 3 (was CODE)
  Relative segment, address: 00015104 - 00015117 (0x14 bytes), align: 1
  Segment part 14.            Intra module refs:   HalLcd_HW_Init
           ENTRY                   ADDRESS         REF BY
           =====                   =======         ======
           HalLcd_HW_Wait          00015104 
               CSTACK = 00000000 ( 00000004 )
    -------------------------------------------------------------------------
DATA16_C
  Relative segment, address: 37B5 - 37C5 (0x11 bytes), align: 0
  Segment part 11.            Intra module refs:   HalLcdWriteString

    *************************************************************************

  FILE NAME : C:\Texas Instruments\ZStack-MSP2618-2.5.1\Projects\zstack\HomeAutomation\SampleSwitch\CC2520DB\EndDevice\Obj\hal_led.r43
  PROGRAM MODULE, NAME : hal_led

  SEGMENTS IN THE MODULE
  ======================
DATA16_Z
  Relative segment, address: 1A45 - 1A45 (0x1 bytes), align: 0
  Segment part 3.             Intra module refs:   HalLedBlink
                                                   HalLedOnOff
                                                   HalLedSet
           LOCAL                   ADDRESS         
           =====                   =======         
           ledState                1A45 
    -------------------------------------------------------------------------
DATA16_Z
  Relative segment, address: 1A46 - 1A46 (0x1 bytes), align: 0
  Segment part 4.             Intra module refs:   HalLedBlink
                                                   HalLedUpdate
           LOCAL                   ADDRESS         
           =====                   =======         
           preBlinkState           1A46 
    -------------------------------------------------------------------------
DATA16_Z
  Relative segment, address: 1490 - 14B7 (0x28 bytes), align: 1
  Segment part 5.             Intra module refs:   HalLedBlink
                                                   HalLedSet
                                                   HalLedUpdate
           LOCAL                   ADDRESS         
           =====                   =======         
           HalLedStatusTable       1490 
    -------------------------------------------------------------------------
<CODE> 3 (was CODE)
  Relative segment, address: 000156A0 - 000156A9 (0xa bytes), align: 1
  Segment part 10.
           ENTRY                   ADDRESS         REF BY
           =====                   =======         ======
           HalLedInit              000156A0        HalDriverInit (hal_drivers)
               calls direct
               CSTACK = 00000000 ( 00000004 )
    -------------------------------------------------------------------------
<CODE> 1 (was CODE)
  Relative segment, address: E188 - E1FD (0x76 bytes), align: 1
  Segment part 9.             Intra module refs:   HalLedBlink
                                                   HalLedInit
                                                   HalLedUpdate
           ENTRY                   ADDRESS         REF BY
           =====                   =======         ======
           HalLedSet               E188            ?Subroutine10 (ZDApp)
                                                   ?Subroutine11 (ZDApp)
                                                   Segment part 17 (zcl_samplesw)
               calls direct
               CSTACK = 00000000 ( 0000000C )
    -------------------------------------------------------------------------
<CODE> 3 (was CODE)
  Relative segment, address: 00012104 - 00012191 (0x8e bytes), align: 1
  Segment part 8.             Intra module refs:   HalLedSet
           ENTRY                   ADDRESS         REF BY
           =====                   =======         ======
           HalLedBlink             00012104        ZDApp_Init (ZDApp)
                                                   zclSampleSw_ProcessIdentifyTimeChange (zcl_samplesw)
               calls direct
               CSTACK = 00000000 ( 00000010 )
    -------------------------------------------------------------------------
<CODE> 3 (was CODE)
  Relative segment, address: 00010AFA - 00010BEB (0xf2 bytes), align: 1
  Segment part 7.
           ENTRY                   ADDRESS         REF BY
           =====                   =======         ======
           HalLedUpdate            00010AFA        Hal_ProcessEvent (hal_drivers)
               calls direct
               CSTACK = 00000000 ( 00000014 )
    -------------------------------------------------------------------------
<CODE> 3 (was CODE)
  Relative segment, address: 00012ED2 - 00012F2F (0x5e bytes), align: 1
  Segment part 6.             Intra module refs:   HalLedSet
                                                   HalLedUpdate
           ENTRY                   ADDRESS         REF BY
           =====                   =======         ======
           HalLedOnOff             00012ED2 
               CSTACK = 00000000 ( 00000004 )

    *************************************************************************

  FILE NAME : C:\Texas Instruments\ZStack-MSP2618-2.5.1\Projects\zstack\HomeAutomation\SampleSwitch\CC2520DB\EndDevice\Obj\hal_mac_cfg.r43
  PROGRAM MODULE, NAME : hal_mac_cfg

  SEGMENTS IN THE MODULE
  ======================
DATA16_AN
  Relative segment, address: 005B - 005B (0x1 bytes), align: 0
  Segment part 1. ROOT.       Intra module refs:   halMacInit
           ENTRY                   ADDRESS         REF BY
           =====                   =======         ======
           CAPD                    005B 
    -------------------------------------------------------------------------
DATA16_AN
  Relative segment, address: 0020 - 0020 (0x1 bytes), align: 0
  Segment part 2. ROOT.       Intra module refs:   dualchipTxSlottedCsmaCca (mac_dualchip_tx)
                                                   halMacFifopIsr
                                                   rxDone (mac_rx)
                                                   rxStartIsr (mac_rx)
           ENTRY                   ADDRESS         REF BY
           =====                   =======         ======
           P1IN                    0020 
    -------------------------------------------------------------------------
DATA16_AN
  Relative segment, address: 0023 - 0023 (0x1 bytes), align: 0
  Segment part 4. ROOT.       Intra module refs:   halMacFifopIsr
                                                   macDualchipTurnOnRadioPower (mac_dualchip)
                                                   macRxOff (mac_rx_onoff)
                                                   macRxRadioPowerUpInit (mac_rx)
                                                   rxHaltCleanupFinalStep (mac_rx)
           ENTRY                   ADDRESS         REF BY
           =====                   =======         ======
           P1IFG                   0023 
    -------------------------------------------------------------------------
DATA16_AN
  Relative segment, address: 0024 - 0024 (0x1 bytes), align: 0
  Segment part 5. ROOT.       Intra module refs:   halMacInit
                                                   macDualchipTurnOnRadioPower (mac_dualchip)
           ENTRY                   ADDRESS         REF BY
           =====                   =======         ======
           P1IES                   0024 
    -------------------------------------------------------------------------
DATA16_AN
  Relative segment, address: 0025 - 0025 (0x1 bytes), align: 0
  Segment part 6. ROOT.       Intra module refs:   halMacFifopIsr
                                                   macDualchipTurnOnRadioPower (mac_dualchip)
                                                   macRxRadioPowerUpInit (mac_rx)
           ENTRY                   ADDRESS         REF BY
           =====                   =======         ======
           P1IE                    0025 
    -------------------------------------------------------------------------
DATA16_AN
  Relative segment, address: 0032 - 0032 (0x1 bytes), align: 0
  Segment part 8. ROOT.       Intra module refs:   halMacInit
           ENTRY                   ADDRESS         REF BY
           =====                   =======         ======
           P5DIR                   0032 
    -------------------------------------------------------------------------
DATA16_AN
  Relative segment, address: 0033 - 0033 (0x1 bytes), align: 0
  Segment part 9. ROOT.       Intra module refs:   halMacInit
           ENTRY                   ADDRESS         REF BY
           =====                   =======         ======
           P5SEL                   0033 
    -------------------------------------------------------------------------
<CODE> 3 (was CODE)
  Relative segment, address: 00012BB6 - 00012C1D (0x68 bytes), align: 1
  Segment part 13.
           ENTRY                   ADDRESS         REF BY
           =====                   =======         ======
           halMacInit              00012BB6        macDualchipSystemInit (mac_dualchip)
               calls direct
               CSTACK = 00000000 ( 00000004 )
    -------------------------------------------------------------------------
ISR_CODE
  Relative segment, address: 3148 - 322B (0xe4 bytes), align: 1
  Segment part 12.            Intra module refs:   halMacFifopIsr::??INTVEC 36
           ENTRY                   ADDRESS         REF BY
           =====                   =======         ======
           halMacFifopIsr          3148 
               interrupt function
               calls direct
               CSTACK = 00000000 ( 00000014 )
    -------------------------------------------------------------------------
INTVEC
  Common segment, address: FFC0 - FFE5 (0x26 bytes), align: 1
  Segment part 10. ROOT.
           ENTRY                   ADDRESS         REF BY
           =====                   =======         ======
           halMacFifopIsr::??INTVEC 36
                                   FFE4 

    *************************************************************************

  FILE NAME : C:\Texas Instruments\ZStack-MSP2618-2.5.1\Projects\zstack\HomeAutomation\SampleSwitch\CC2520DB\EndDevice\Obj\hal_sleep.r43
  PROGRAM MODULE, NAME : hal_sleep

  SEGMENTS IN THE MODULE
  ======================
DATA16_AN
  Relative segment, address: 0160 - 0161 (0x2 bytes), align: 0
  Segment part 1. ROOT.       Intra module refs:   macMcuTimerInit (mac_mcu_timer)
           ENTRY                   ADDRESS         REF BY
           =====                   =======         ======
           TACTL                   0160 
    -------------------------------------------------------------------------
DATA16_AN
  Relative segment, address: 0162 - 0163 (0x2 bytes), align: 0
  Segment part 2. ROOT.       Intra module refs:   macBackoffTimerInit (mac_backoff_timer)
                                                   macBackoffTimerReset (mac_backoff_timer)
                                                   macBackoffTimerSetTrigger (mac_backoff_timer)
                                                   macMcuTimerInit (mac_mcu_timer)
                                                   macSleepWakeUp (mac_sleep)
           ENTRY                   ADDRESS         REF BY
           =====                   =======         ======
           TACCTL0                 0162 
    -------------------------------------------------------------------------
DATA16_AN
  Relative segment, address: 0170 - 0171 (0x2 bytes), align: 0
  Segment part 3. ROOT.       Intra module refs:   dualchipTurnOnRadioPowerVREG (mac_dualchip)
                                                   dualchipTxUnslottedCsmaRxOn (mac_dualchip_tx)
                                                   macDualchipTxGoCsma (mac_dualchip_tx)
                                                   macDualchipTxRequestAckTimeoutCallback (mac_dualchip_tx)
                                                   macMcuTimerConfigureUsecTimer (mac_mcu_timer)
           ENTRY                   ADDRESS         REF BY
           =====                   =======         ======
           TAR                     0170 
    -------------------------------------------------------------------------
DATA16_AN
  Relative segment, address: 0172 - 0173 (0x2 bytes), align: 0
  Segment part 4. ROOT.       Intra module refs:   macMcuTimerInit (mac_mcu_timer)
           ENTRY                   ADDRESS         REF BY
           =====                   =======         ======
           TACCR0                  0172 

    *************************************************************************

  FILE NAME : C:\Texas Instruments\ZStack-MSP2618-2.5.1\Projects\zstack\HomeAutomation\SampleSwitch\CC2520DB\EndDevice\Obj\hal_startup.r43
  PROGRAM MODULE, NAME : hal_startup

  SEGMENTS IN THE MODULE
  ======================
<CODE> 3 (was CODE)
  Relative segment, address: 000155CE - 000155D7 (0xa bytes), align: 1
  Segment part 3. ROOT.
           ENTRY                   ADDRESS         REF BY
           =====                   =======         ======
           __low_level_init        000155CE        ?cstart_call_low_level_init (?cstart)
               CSTACK = 00000000 ( 00000004 )

    *************************************************************************

  FILE NAME : C:\Texas Instruments\ZStack-MSP2618-2.5.1\Projects\zstack\HomeAutomation\SampleSwitch\CC2520DB\EndDevice\Obj\hal_timer.r43
  PROGRAM MODULE, NAME : hal_timer

  SEGMENTS IN THE MODULE
  ======================
DATA16_AN
  Relative segment, address: 0180 - 0181 (0x2 bytes), align: 0
  Segment part 1. ROOT.
           ENTRY                   ADDRESS         REF BY
           =====                   =======         ======
           TBCTL                   0180 
    -------------------------------------------------------------------------
DATA16_AN
  Relative segment, address: 0182 - 0183 (0x2 bytes), align: 0
  Segment part 2. ROOT.
           ENTRY                   ADDRESS         REF BY
           =====                   =======         ======
           TBCCTL0                 0182 
    -------------------------------------------------------------------------
DATA16_AN
  Relative segment, address: 0190 - 0191 (0x2 bytes), align: 0
  Segment part 3. ROOT.
           ENTRY                   ADDRESS         REF BY
           =====                   =======         ======
           TBR                     0190 
    -------------------------------------------------------------------------
DATA16_AN
  Relative segment, address: 0192 - 0193 (0x2 bytes), align: 0
  Segment part 4. ROOT.
           ENTRY                   ADDRESS         REF BY
           =====                   =======         ======
           TBCCR0                  0192 
    -------------------------------------------------------------------------
ISR_CODE
  Relative segment, address: 322C - 322D (0x2 bytes), align: 1
  Segment part 10.            Intra module refs:   haBoardTimerB0Isr::??INTVEC 58
           ENTRY                   ADDRESS         REF BY
           =====                   =======         ======
           haBoardTimerB0Isr       322C 
               interrupt function
               CSTACK = 00000000 ( 00000004 )
    -------------------------------------------------------------------------
ISR_CODE
  Relative segment, address: 322E - 322F (0x2 bytes), align: 1
  Segment part 9.             Intra module refs:   haBoardTimerB1Isr::??INTVEC 56
           ENTRY                   ADDRESS         REF BY
           =====                   =======         ======
           haBoardTimerB1Isr       322E 
               interrupt function
               CSTACK = 00000000 ( 00000004 )
    -------------------------------------------------------------------------
INTVEC
  Common segment, address: FFC0 - FFF9 (0x3a bytes), align: 1
  Segment part 5. ROOT.
           ENTRY                   ADDRESS         REF BY
           =====                   =======         ======
           haBoardTimerB1Isr::??INTVEC 56
                                   FFF8 
    -------------------------------------------------------------------------
INTVEC
  Common segment, address: FFC0 - FFFB (0x3c bytes), align: 1
  Segment part 6. ROOT.
           ENTRY                   ADDRESS         REF BY
           =====                   =======         ======
           haBoardTimerB0Isr::??INTVEC 58
                                   FFFA 

    *************************************************************************

  FILE NAME : C:\Texas Instruments\ZStack-MSP2618-2.5.1\Projects\zstack\HomeAutomation\SampleSwitch\CC2520DB\EndDevice\Obj\hal_uart.r43
  PROGRAM MODULE, NAME : hal_uart

  SEGMENTS IN THE MODULE
  ======================
DATA16_AN
  Relative segment, address: 0001 - 0001 (0x1 bytes), align: 0
  Segment part 1. ROOT.       Intra module refs:   HalUARTOpen
                                                   HalUARTWrite
                                                   Hal_UART_TxProcessEvent
           ENTRY                   ADDRESS         REF BY
           =====                   =======         ======
           IE2                     0001 
    -------------------------------------------------------------------------
DATA16_AN
  Relative segment, address: 0029 - 0029 (0x1 bytes), align: 0
  Segment part 3. ROOT.       Intra module refs:   Hal_UART_FlowControlSet
           ENTRY                   ADDRESS         REF BY
           =====                   =======         ======
           P2OUT                   0029 
    -------------------------------------------------------------------------
DATA16_AN
  Relative segment, address: 0060 - 0060 (0x1 bytes), align: 0
  Segment part 6. ROOT.       Intra module refs:   HalUARTOpen
           ENTRY                   ADDRESS         REF BY
           =====                   =======         ======
           UCA0CTL0                0060 
    -------------------------------------------------------------------------
DATA16_AN
  Relative segment, address: 0061 - 0061 (0x1 bytes), align: 0
  Segment part 7. ROOT.       Intra module refs:   HalUARTOpen
           ENTRY                   ADDRESS         REF BY
           =====                   =======         ======
           UCA0CTL1                0061 
    -------------------------------------------------------------------------
DATA16_AN
  Relative segment, address: 0062 - 0062 (0x1 bytes), align: 0
  Segment part 8. ROOT.       Intra module refs:   HalUARTOpen
           ENTRY                   ADDRESS         REF BY
           =====                   =======         ======
           UCA0BR0                 0062 
    -------------------------------------------------------------------------
DATA16_AN
  Relative segment, address: 0063 - 0063 (0x1 bytes), align: 0
  Segment part 9. ROOT.       Intra module refs:   HalUARTOpen
           ENTRY                   ADDRESS         REF BY
           =====                   =======         ======
           UCA0BR1                 0063 
    -------------------------------------------------------------------------
DATA16_AN
  Relative segment, address: 0066 - 0066 (0x1 bytes), align: 0
  Segment part 10. ROOT.      Intra module refs:   Hal_UART_RxProcessEvent
           ENTRY                   ADDRESS         REF BY
           =====                   =======         ======
           UCA0RXBUF               0066 
    -------------------------------------------------------------------------
DATA16_AN
  Relative segment, address: 0067 - 0067 (0x1 bytes), align: 0
  Segment part 11. ROOT.      Intra module refs:   HalUARTWrite
                                                   Hal_UART_TxProcessEvent
           ENTRY                   ADDRESS         REF BY
           =====                   =======         ======
           UCA0TXBUF               0067 
    -------------------------------------------------------------------------
DATA16_Z
  Relative segment, address: 14B8 - 14D9 (0x22 bytes), align: 1
  Segment part 15.            Intra module refs:   HalUARTOpen
                                                   HalUARTPoll
                                                   HalUARTRead
                                                   HalUARTWrite
                                                   Hal_UART_BufferInit
                                                   Hal_UART_RxBufLen
                                                   Hal_UART_RxProcessEvent
                                                   Hal_UART_SendCallBack
                                                   Hal_UART_TxProcessEvent
           ENTRY                   ADDRESS         REF BY
           =====                   =======         ======
           uartRecord              14B8 
    -------------------------------------------------------------------------
DATA16_I
  Relative segment, address: 1194 - 119D (0xa bytes), align: 1
  Segment part 16.            Intra module refs:   HalUARTOpen
           ENTRY                   ADDRESS         REF BY
           =====                   =======         ======
           UBRRTable               1194 
    -------------------------------------------------------------------------
<CODE> 3 (was CODE)
  Relative segment, address: 000157C8 - 000157CB (0x4 bytes), align: 1
  Segment part 33.
           ENTRY                   ADDRESS         REF BY
           =====                   =======         ======
           HalUARTInit             000157C8        HalDriverInit (hal_drivers)
               calls direct
               CSTACK = 00000000 ( 00000004 )
    -------------------------------------------------------------------------
<CODE> 3 (was CODE)
  Relative segment, address: 00014550 - 00014579 (0x2a bytes), align: 1
  Segment part 32.            Intra module refs:   HalUARTInit
           LOCAL                   ADDRESS         
           =====                   =======         
           Hal_UART_BufferInit     00014550 
               CSTACK = 00000000 ( 00000004 )
    -------------------------------------------------------------------------
<CODE> 3 (was CODE)
  Relative segment, address: 00010906 - 000109FF (0xfa bytes), align: 1
  Segment part 31.
           ENTRY                   ADDRESS         REF BY
           =====                   =======         ======
           HalUARTOpen             00010906        MT_UartInit (MT_UART)
               calls direct
               CSTACK = 00000000 ( 00000006 )
    -------------------------------------------------------------------------
<CODE> 3 (was CODE)
  Relative segment, address: 00011846 - 000118EF (0xaa bytes), align: 1
  Segment part 29.
           ENTRY                   ADDRESS         REF BY
           =====                   =======         ======
           HalUARTPoll             00011846        Hal_ProcessPoll (hal_drivers)
               calls direct
               CSTACK = 00000000 ( 00000004 )
    -------------------------------------------------------------------------
<CODE> 3 (was CODE)
  Relative segment, address: 0001576C - 00015771 (0x6 bytes), align: 1
  Segment part 30.            Intra module refs:   HalUARTPoll
                                                   HalUARTRead
           LOCAL                   ADDRESS         
           =====                   =======         
           ?Subroutine0            0001576C 
    -------------------------------------------------------------------------
<CODE> 3 (was CODE)
  Relative segment, address: 000138C8 - 0001390D (0x46 bytes), align: 1
  Segment part 27.
           ENTRY                   ADDRESS         REF BY
           =====                   =======         ======
           HalUARTRead             000138C8        MT_UartProcessZToolData (MT_UART)
               calls direct
               CSTACK = 00000000 ( 00000008 )
    -------------------------------------------------------------------------
<CODE> 3 (was CODE)
  Relative segment, address: 0001232E - 000123B5 (0x88 bytes), align: 1
  Segment part 26.
           ENTRY                   ADDRESS         REF BY
           =====                   =======         ======
           HalUARTWrite            0001232E        MT_ProcessIncomingCommand (MT_TASK)
                                                   MT_TransportSend (MT_TASK)
               CSTACK = 00000000 ( 00000008 )
    -------------------------------------------------------------------------
<CODE> 3 (was CODE)
  Relative segment, address: 00015304 - 00015315 (0x12 bytes), align: 1
  Segment part 25.            Intra module refs:   ?Subroutine0
           ENTRY                   ADDRESS         REF BY
           =====                   =======         ======
           Hal_UART_RxBufLen       00015304        MT_UartProcessZToolData (MT_UART)
               CSTACK = 00000000 ( 00000004 )
    -------------------------------------------------------------------------
<CODE> 3 (was CODE)
  Relative segment, address: 00015154 - 00015165 (0x12 bytes), align: 1
  Segment part 23.            Intra module refs:   HalUARTPoll
           LOCAL                   ADDRESS         
           =====                   =======         
           Hal_UART_SendCallBack   00015154 
               calls indirect
               CSTACK = 00000000 ( 00000004 )
    -------------------------------------------------------------------------
<CODE> 3 (was CODE)
  Relative segment, address: 0001411E - 00014151 (0x34 bytes), align: 1
  Segment part 22.            Intra module refs:   HalUARTPoll
                                                   halBoardUart1RxReadyIsr
           LOCAL                   ADDRESS         
           =====                   =======         
           Hal_UART_RxProcessEvent
                                   0001411E 
               calls direct
               CSTACK = 00000000 ( 00000004 )
    -------------------------------------------------------------------------
<CODE> 3 (was CODE)
  Relative segment, address: 00013FA6 - 00013FDB (0x36 bytes), align: 1
  Segment part 21.            Intra module refs:   HalUARTPoll
                                                   halBoardUart1TxReadyIsr
           LOCAL                   ADDRESS         
           =====                   =======         
           Hal_UART_TxProcessEvent
                                   00013FA6 
               CSTACK = 00000000 ( 00000004 )
    -------------------------------------------------------------------------
<CODE> 3 (was CODE)
  Relative segment, address: 000150C8 - 000150DB (0x14 bytes), align: 1
  Segment part 20.            Intra module refs:   HalUARTOpen
                                                   HalUARTPoll
           ENTRY                   ADDRESS         REF BY
           =====                   =======         ======
           Hal_UART_FlowControlSet
                                   000150C8 
               CSTACK = 00000000 ( 00000004 )
    -------------------------------------------------------------------------
ISR_CODE
  Relative segment, address: 3230 - 3239 (0xa bytes), align: 1
  Segment part 19.            Intra module refs:   halBoardUart1RxReadyIsr::??INTVEC 46
           ENTRY                   ADDRESS         REF BY
           =====                   =======         ======
           halBoardUart1RxReadyIsr
                                   3230 
               interrupt function
               calls direct
               CSTACK = 00000000 ( 0000000C )
    -------------------------------------------------------------------------
ISR_CODE
  Relative segment, address: 323A - 3243 (0xa bytes), align: 1
  Segment part 18.            Intra module refs:   halBoardUart1TxReadyIsr::??INTVEC 44
           ENTRY                   ADDRESS         REF BY
           =====                   =======         ======
           halBoardUart1TxReadyIsr
                                   323A 
               interrupt function
               calls direct
               CSTACK = 00000000 ( 0000000C )
    -------------------------------------------------------------------------
INTVEC
  Common segment, address: FFC0 - FFED (0x2e bytes), align: 1
  Segment part 12. ROOT.
           ENTRY                   ADDRESS         REF BY
           =====                   =======         ======
           halBoardUart1TxReadyIsr::??INTVEC 44
                                   FFEC 
    -------------------------------------------------------------------------
INTVEC
  Common segment, address: FFC0 - FFEF (0x30 bytes), align: 1
  Segment part 13. ROOT.
           ENTRY                   ADDRESS         REF BY
           =====                   =======         ======
           halBoardUart1RxReadyIsr::??INTVEC 46
                                   FFEE 
    -------------------------------------------------------------------------
DATA16_ID
  Relative segment, address: 39AC - 39B5 (0xa bytes), align: 1
  Segment part 17.            Intra module refs:   UBRRTable

    *************************************************************************

  FILE NAME : C:\Texas Instruments\ZStack-MSP2618-2.5.1\Projects\zstack\HomeAutomation\SampleSwitch\CC2520DB\EndDevice\Obj\mac_autopend.r43
  PROGRAM MODULE, NAME : mac_autopend

  SEGMENTS IN THE MODULE
  ======================
DATA16_Z
  Relative segment, address: 1A47 - 1A47 (0x1 bytes), align: 0
  Segment part 2.             Intra module refs:   MAC_SrcMatchEnable
           ENTRY                   ADDRESS         REF BY
           =====                   =======         ======
           macSrcMatchIsEnabled    1A47            rxFcsIsr (mac_rx)
                                                   rxStartIsr (mac_rx)
    -------------------------------------------------------------------------
DATA16_Z
  Relative segment, address: 1A48 - 1A48 (0x1 bytes), align: 0
  Segment part 3.             Intra module refs:   MAC_SrcMatchAddEntry
                                                   MAC_SrcMatchEnable
                                                   macSrcMatchCheckSrcAddr
                                                   macSrcMatchFindEmptyEntry
           ENTRY                   ADDRESS         REF BY
           =====                   =======         ======
           macSrcMatchMaxNumEntries
                                   1A48 
    -------------------------------------------------------------------------
DATA16_I
  Relative segment, address: 120E - 120E (0x1 bytes), align: 0
  Segment part 4.             Intra module refs:   MAC_SrcMatchAddEntry
                                                   MAC_SrcMatchDeleteEntry
                                                   MAC_SrcMatchEnable
                                                   macSrcMatchCheckSrcAddr
                                                   macSrcMatchFindEmptyEntry
                                                   macSrcMatchGetEnableBit
                                                   macSrcMatchSetEnableBit
                                                   macSrcMatchSetPendEnBit
           ENTRY                   ADDRESS         REF BY
           =====                   =======         ======
           macSrcMatchAddrMode     120E 
    -------------------------------------------------------------------------
DATA16_Z
  Relative segment, address: 1A49 - 1A49 (0x1 bytes), align: 0
  Segment part 6.             Intra module refs:   MAC_SrcMatchAckAllPending
                                                   MAC_SrcMatchCheckAllPending
                                                   MAC_SrcMatchCheckResult
           ENTRY                   ADDRESS         REF BY
           =====                   =======         ======
           macSrcMatchIsAckAllPending
                                   1A49 
    -------------------------------------------------------------------------
<CODE> 3 (was CODE)
  Relative segment, address: 00012F30 - 00012F8B (0x5c bytes), align: 1
  Segment part 18.
           ENTRY                   ADDRESS         REF BY
           =====                   =======         ======
           MAC_SrcMatchEnable      00012F30        ZMacSrcMatchEnable (zmac)
               calls direct
               CSTACK = 00000000 ( 0000000C )
    -------------------------------------------------------------------------
<CODE> 3 (was CODE)
  Relative segment, address: 000155B0 - 000155B9 (0xa bytes), align: 1
  Segment part 19.            Intra module refs:   MAC_SrcMatchEnable
           LOCAL                   ADDRESS         
           =====                   =======         
           ?Subroutine1            000155B0 
    -------------------------------------------------------------------------
<CODE> 3 (was CODE)
  Relative segment, address: 000123B6 - 0001243B (0x86 bytes), align: 1
  Segment part 17.
           ENTRY                   ADDRESS         REF BY
           =====                   =======         ======
           MAC_SrcMatchAddEntry    000123B6        nwkDB_AddIndirectEntry (APS)
               calls direct
               CSTACK = 00000000 ( 00000010 )
    -------------------------------------------------------------------------
<CODE> 3 (was CODE)
  Relative segment, address: 000148B6 - 000148D9 (0x24 bytes), align: 1
  Segment part 16.
           ENTRY                   ADDRESS         REF BY
           =====                   =======         ======
           MAC_SrcMatchDeleteEntry
                                   000148B6        ZMacSrcMatchDeleteEntry (zmac)
               calls direct
               CSTACK = 00000000 ( 00000004 )
    -------------------------------------------------------------------------
<CODE> 3 (was CODE)
  Relative segment, address: 00014E0C - 00014E27 (0x1c bytes), align: 1
  Segment part 15.
           ENTRY                   ADDRESS         REF BY
           =====                   =======         ======
           MAC_SrcMatchAckAllPending
                                   00014E0C        ZMacSrcMatchAckAllPending (zmac)
               calls direct
               CSTACK = 00000000 ( 00000004 )
    -------------------------------------------------------------------------
<CODE> 3 (was CODE)
  Relative segment, address: 00015368 - 00015377 (0x10 bytes), align: 1
  Segment part 14.
           ENTRY                   ADDRESS         REF BY
           =====                   =======         ======
           MAC_SrcMatchCheckAllPending
                                   00015368        rxStartIsr (mac_rx)
               CSTACK = 00000000 ( 00000004 )
    -------------------------------------------------------------------------
<CODE> 3 (was CODE)
  Relative segment, address: 0001486E - 00014891 (0x24 bytes), align: 1
  Segment part 13.
           ENTRY                   ADDRESS         REF BY
           =====                   =======         ======
           MAC_SrcMatchCheckResult
                                   0001486E        rxFcsIsr (mac_rx)
               calls direct
               CSTACK = 00000000 ( 00000006 )
    -------------------------------------------------------------------------
<CODE> 3 (was CODE)
  Relative segment, address: 00013760 - 000137A7 (0x48 bytes), align: 1
  Segment part 12.            Intra module refs:   MAC_SrcMatchAddEntry
           LOCAL                   ADDRESS         
           =====                   =======         
           macSrcMatchFindEmptyEntry
                                   00013760 
               calls direct
               CSTACK = 00000000 ( 00000008 )
    -------------------------------------------------------------------------
<CODE> 3 (was CODE)
  Relative segment, address: 00011FE2 - 00012075 (0x94 bytes), align: 1
  Segment part 11.            Intra module refs:   MAC_SrcMatchAddEntry
                                                   MAC_SrcMatchDeleteEntry
           LOCAL                   ADDRESS         
           =====                   =======         
           macSrcMatchCheckSrcAddr
                                   00011FE2 
               calls direct
               CSTACK = 00000000 ( 0000001A )
    -------------------------------------------------------------------------
<CODE> 3 (was CODE)
  Relative segment, address: 00012F8C - 00012FE7 (0x5c bytes), align: 1
  Segment part 9.             Intra module refs:   MAC_SrcMatchAddEntry
           LOCAL                   ADDRESS         
           =====                   =======         
           macSrcMatchSetPendEnBit
                                   00012F8C 
               calls direct
               CSTACK = 00000000 ( 00000016 )
    -------------------------------------------------------------------------
<CODE> 3 (was CODE)
  Relative segment, address: 00014E76 - 00014E8F (0x1a bytes), align: 1
  Segment part 10.            Intra module refs:   macSrcMatchSetPendEnBit
           LOCAL                   ADDRESS         
           =====                   =======         
           ?Subroutine0            00014E76 
    -------------------------------------------------------------------------
<CODE> 3 (was CODE)
  Relative segment, address: 0001243C - 000124C1 (0x86 bytes), align: 1
  Segment part 8.             Intra module refs:   MAC_SrcMatchAddEntry
                                                   MAC_SrcMatchDeleteEntry
           LOCAL                   ADDRESS         
           =====                   =======         
           macSrcMatchSetEnableBit
                                   0001243C 
               calls direct
               CSTACK = 00000000 ( 00000010 )
    -------------------------------------------------------------------------
<CODE> 3 (was CODE)
  Relative segment, address: 000132B0 - 00013305 (0x56 bytes), align: 1
  Segment part 7.             Intra module refs:   macSrcMatchCheckSrcAddr
                                                   macSrcMatchFindEmptyEntry
                                                   macSrcMatchSetEnableBit
           LOCAL                   ADDRESS         
           =====                   =======         
           macSrcMatchGetEnableBit
                                   000132B0 
               calls direct
               CSTACK = 00000000 ( 00000008 )
    -------------------------------------------------------------------------
DATA16_ID
  Relative segment, address: 3A26 - 3A26 (0x1 bytes), align: 0
  Segment part 5.             Intra module refs:   macSrcMatchAddrMode

    *************************************************************************

  FILE NAME : C:\Texas Instruments\ZStack-MSP2618-2.5.1\Projects\zstack\HomeAutomation\SampleSwitch\CC2520DB\EndDevice\Obj\mac_backoff_timer.r43
  PROGRAM MODULE, NAME : mac_backoff_timer

  SEGMENTS IN THE MODULE
  ======================
DATA16_Z
  Relative segment, address: 14DA - 14DD (0x4 bytes), align: 1
  Segment part 3.             Intra module refs:   ?Subroutine1
                                                   macBackoffTimerSetRollover
           LOCAL                   ADDRESS         
           =====                   =======         
           backoffTimerRollover    14DA 
    -------------------------------------------------------------------------
DATA16_Z
  Relative segment, address: 14DE - 14E1 (0x4 bytes), align: 1
  Segment part 4.             Intra module refs:   macBackoffTimerSetTrigger
           LOCAL                   ADDRESS         
           =====                   =======         
           backoffTimerTrigger     14DE 
    -------------------------------------------------------------------------
<CODE> 3 (was CODE)
  Relative segment, address: 00014C78 - 00014C95 (0x1e bytes), align: 1
  Segment part 19.            Intra module refs:   macBackoffTimerReset
           ENTRY                   ADDRESS         REF BY
           =====                   =======         ======
           macBackoffTimerInit     00014C78        macLowLevelInit (mac_low_level)
               calls direct
               CSTACK = 00000000 ( 00000004 )
    -------------------------------------------------------------------------
<CODE> 3 (was CODE)
  Relative segment, address: 00015650 - 00015659 (0xa bytes), align: 1
  Segment part 18.
           ENTRY                   ADDRESS         REF BY
           =====                   =======         ======
           macBackoffTimerReset    00015650        macLowLevelReset (mac_low_level)
               calls direct
               CSTACK = 00000000 ( 00000004 )
    -------------------------------------------------------------------------
<CODE> 3 (was CODE)
  Relative segment, address: 00013594 - 00013599 (0x6 bytes), align: 1
  Segment part 15.            Intra module refs:   macBackoffTimerSetRollover
           LOCAL                   ADDRESS         
           =====                   =======         
           ?Subroutine0            00013594 
    -------------------------------------------------------------------------
<CODE> 3 (was CODE)
  Relative segment, address: 0001359A - 000135B1 (0x18 bytes), align: 1
  Segment part 16.            Intra module refs:   macBackoffTimerSetTrigger
           LOCAL                   ADDRESS         
           =====                   =======         
           ?Subroutine1            0001359A 
    -------------------------------------------------------------------------
<CODE> 3 (was CODE)
  Relative segment, address: 000135B2 - 000135E1 (0x30 bytes), align: 1
  Segment part 17.            Intra module refs:   macBackoffTimerInit
           ENTRY                   ADDRESS         REF BY
           =====                   =======         ======
           macBackoffTimerSetRollover
                                   000135B2        macBackoffTimerRolloverCallback (mac_beacon)
               calls direct
               CSTACK = 00000000 ( 00000008 )
    -------------------------------------------------------------------------
<CODE> 3 (was CODE)
  Relative segment, address: 000152E0 - 000152F1 (0x12 bytes), align: 1
  Segment part 13.
           ENTRY                   ADDRESS         REF BY
           =====                   =======         ======
           macBackoffTimerCount    000152E0        Segment part 91 (mac_beacon)
                                                   macBackoffTimerTriggerCallback (mac_beacon)
                                                   macTimerUpdateBackoffTimer (mac_beacon)
               CSTACK = 00000000 ( 00000004 )
    -------------------------------------------------------------------------
<CODE> 3 (was CODE)
  Relative segment, address: 00013C8A - 00013CC3 (0x3a bytes), align: 1
  Segment part 10.
           ENTRY                   ADDRESS         REF BY
           =====                   =======         ======
           macBackoffTimerSetTrigger
                                   00013C8A        macTimerUpdateBackoffTimer (mac_beacon)
               calls direct
               CSTACK = 00000000 ( 00000008 )
    -------------------------------------------------------------------------
<CODE> 3 (was CODE)
  Relative segment, address: 000157E8 - 000157E9 (0x2 bytes), align: 1
  Segment part 9.
           ENTRY                   ADDRESS         REF BY
           =====                   =======         ======
           macBackoffTimerCancelTrigger
                                   000157E8        macTimerUpdateBackoffTimer (mac_beacon)
               CSTACK = 00000000 ( 00000004 )
    -------------------------------------------------------------------------
<CODE> 3 (was CODE)
  Relative segment, address: 000157B4 - 000157B7 (0x4 bytes), align: 1
  Segment part 7.
           ENTRY                   ADDRESS         REF BY
           =====                   =======         ======
           macBackoffTimerCompareIsr
                                   000157B4        macTimerRolloverIsr (mac_mcu_timer)
               calls direct
               CSTACK = 00000000 ( 00000004 )
    -------------------------------------------------------------------------
<CODE> 3 (was CODE)
  Relative segment, address: 0001574A - 00015751 (0x8 bytes), align: 1
  Segment part 6.
           ENTRY                   ADDRESS         REF BY
           =====                   =======         ======
           macBackoffTimerPeriodIsr
                                   0001574A        macTimerRolloverIsr (mac_mcu_timer)
               calls direct
               CSTACK = 00000000 ( 00000004 )

    *************************************************************************

  FILE NAME : C:\Texas Instruments\ZStack-MSP2618-2.5.1\Projects\zstack\HomeAutomation\SampleSwitch\CC2520DB\EndDevice\Obj\mac_cfg.r43
  PROGRAM MODULE, NAME : mac_cfg

  SEGMENTS IN THE MODULE
  ======================
DATA16_C
  Relative segment, address: 37C6 - 37CA (0x5 bytes), align: 0
  Segment part 2.
           ENTRY                   ADDRESS         REF BY
           =====                   =======         ======
           macCfg                  37C6            MAC_McpsDataReq (mac_beacon)
                                                   macDataRxMemAlloc (mac_beacon)
                                                   macDataTxEnqueue (mac_beacon)

    *************************************************************************

  FILE NAME : C:\Texas Instruments\ZStack-MSP2618-2.5.1\Projects\zstack\HomeAutomation\SampleSwitch\CC2520DB\EndDevice\Obj\mac_dualchip.r43
  PROGRAM MODULE, NAME : mac_dualchip

  SEGMENTS IN THE MODULE
  ======================
DATA16_AN
  Relative segment, address: 0021 - 0021 (0x1 bytes), align: 0
  Segment part 1. ROOT.       Intra module refs:   dualchipTurnOnRadioPowerVREG
                                                   macDualchipTurnOffRadioPower
           ENTRY                   ADDRESS         REF BY
           =====                   =======         ======
           P1OUT                   0021 
    -------------------------------------------------------------------------
DATA16_AN
  Relative segment, address: 0030 - 0030 (0x1 bytes), align: 0
  Segment part 7. ROOT.       Intra module refs:   dualchipTurnOnRadioPowerVREG
                                                   macDualchipTurnOnRadioOscillator
           ENTRY                   ADDRESS         REF BY
           =====                   =======         ======
           P5IN                    0030 
    -------------------------------------------------------------------------
DATA16_AN
  Relative segment, address: 0031 - 0031 (0x1 bytes), align: 0
  Segment part 8. ROOT.       Intra module refs:   dualchipTurnOnRadioPowerVREG
                                                   macDualchipTurnOffRadioPower
                                                   macDualchipTurnOnRadioOscillator
                                                   macSpiInit (mac_spi)
                                                   macSpiReadRam (mac_spi)
                                                   spiFifoAccess (mac_spi)
                                                   spiSendBytes (mac_spi)
           ENTRY                   ADDRESS         REF BY
           =====                   =======         ======
           P5OUT                   0031 
    -------------------------------------------------------------------------
DATA16_Z
  Relative segment, address: 1A4A - 1A4A (0x1 bytes), align: 0
  Segment part 11.            Intra module refs:   macDualchipSystemInit
           ENTRY                   ADDRESS         REF BY
           =====                   =======         ======
           macChipVersion          1A4A            macDualchipTxGoSlotted (mac_dualchip_tx)
                                                   rxStartIsr (mac_rx)
    -------------------------------------------------------------------------
DATA16_Z
  Relative segment, address: 14E2 - 14E3 (0x2 bytes), align: 1
  Segment part 12.            Intra module refs:   ?Subroutine2
                                                   macDualchipSystemInit
           LOCAL                   ADDRESS         
           =====                   =======         
           random                  14E2 
    -------------------------------------------------------------------------
DATA16_I
  Relative segment, address: 120F - 120F (0x1 bytes), align: 0
  Segment part 13.            Intra module refs:   ?Subroutine1
                                                   macDualchipAndFRMFILT0
                                                   macDualchipOrFRMFILT0
           LOCAL                   ADDRESS         
           =====                   =======         
           frmfilt0                120F 
    -------------------------------------------------------------------------
DATA16_Z
  Relative segment, address: 1A4B - 1A4B (0x1 bytes), align: 0
  Segment part 15.            Intra module refs:   macDualchipRecordMaxRssiIsr
                                                   macDualchipRecordMaxRssiStart
                                                   macDualchipRecordMaxRssiStop
           LOCAL                   ADDRESS         
           =====                   =======         
           maxRssi                 1A4B 
    -------------------------------------------------------------------------
DATA16_Z
  Relative segment, address: 14E4 - 14E7 (0x4 bytes), align: 1
  Segment part 16.            Intra module refs:   MAC_SetRandomSeedCB
                                                   macDualchipSystemInit
           LOCAL                   ADDRESS         
           =====                   =======         
           pRandomSeedCB           14E4 
    -------------------------------------------------------------------------
<CODE> 3 (was CODE)
  Relative segment, address: 00015664 - 0001566D (0xa bytes), align: 1
  Segment part 35.
           ENTRY                   ADDRESS         REF BY
           =====                   =======         ======
           MAC_SetRandomSeedCB     00015664        ZMacInit (zmac)
               CSTACK = 00000000 ( 00000004 )
    -------------------------------------------------------------------------
<CODE> 3 (was CODE)
  Relative segment, address: 0001163E - 000116EF (0xb2 bytes), align: 1
  Segment part 34.
           ENTRY                   ADDRESS         REF BY
           =====                   =======         ======
           macDualchipSystemInit   0001163E        macLowLevelInit (mac_low_level)
               calls direct and indirect
               CSTACK = 00000000 ( 00000016 )
    -------------------------------------------------------------------------
<CODE> 3 (was CODE)
  Relative segment, address: 0001573A - 00015741 (0x8 bytes), align: 1
  Segment part 32.
           ENTRY                   ADDRESS         REF BY
           =====                   =======         ======
           macDualchipRandomByte   0001573A        macRadioRandomByte (mac_radio)
               CSTACK = 00000000 ( 00000004 )
    -------------------------------------------------------------------------
<CODE> 3 (was CODE)
  Relative segment, address: 00014CF0 - 00014D0D (0x1e bytes), align: 1
  Segment part 33.            Intra module refs:   macDualchipRandomByte
                                                   macDualchipRandomWord
           LOCAL                   ADDRESS         
           =====                   =======         
           ?Subroutine2            00014CF0 
    -------------------------------------------------------------------------
<CODE> 3 (was CODE)
  Relative segment, address: 00015702 - 00015709 (0x8 bytes), align: 1
  Segment part 31.
           ENTRY                   ADDRESS         REF BY
           =====                   =======         ======
           macDualchipRandomWord   00015702        Onboard_rand (OnBoard)
               CSTACK = 00000000 ( 00000004 )
    -------------------------------------------------------------------------
<CODE> 3 (was CODE)
  Relative segment, address: 000150F0 - 000150F3 (0x4 bytes), align: 1
  Segment part 28.
           ENTRY                   ADDRESS         REF BY
           =====                   =======         ======
           macDualchipAndFRMFILT0
                                   000150F0        macRadioSetPanCoordinator (mac_radio)
                                                   macRxPromiscuousMode (mac_rx)
               calls direct
               CSTACK = 00000000 ( 00000004 )
    -------------------------------------------------------------------------
<CODE> 3 (was CODE)
  Relative segment, address: 000150F4 - 000150FD (0xa bytes), align: 1
  Segment part 29.            Intra module refs:   macDualchipAndFRMFILT0
                                                   macDualchipOrFRMFILT0
           LOCAL                   ADDRESS         
           =====                   =======         
           ?Subroutine1            000150F4 
    -------------------------------------------------------------------------
<CODE> 3 (was CODE)
  Relative segment, address: 000150FE - 00015103 (0x6 bytes), align: 1
  Segment part 30.            Intra module refs:   macDualchipTurnOnRadioPower
           ENTRY                   ADDRESS         REF BY
           =====                   =======         ======
           macDualchipOrFRMFILT0   000150FE        MAC_SrcMatchEnable (mac_autopend)
                                                   macRadioSetPanCoordinator (mac_radio)
                                                   macRxPromiscuousMode (mac_rx)
               calls direct
               CSTACK = 00000000 ( 00000004 )
    -------------------------------------------------------------------------
<CODE> 2 (was CODE)
  Relative segment, address: FE30 - FF7B (0x14c bytes), align: 1
  Segment part 27.
           ENTRY                   ADDRESS         REF BY
           =====                   =======         ======
           macDualchipTurnOnRadioPower
                                   FE30            macSleepWakeUp (mac_sleep)
               calls direct
               CSTACK = 00000000 ( 00000004 )
    -------------------------------------------------------------------------
<CODE> 3 (was CODE)
  Relative segment, address: 00012C84 - 00012C93 (0x10 bytes), align: 1
  Segment part 22.
           ENTRY                   ADDRESS         REF BY
           =====                   =======         ======
           macDualchipTurnOnRadioOscillator
                                   00012C84        macSleepWakeUp (mac_sleep)
               calls direct
               CSTACK = 00000000 ( 00000004 )
    -------------------------------------------------------------------------
<CODE> 3 (was CODE)
  Relative segment, address: 00012C94 - 00012CA3 (0x10 bytes), align: 1
  Segment part 23.            Intra module refs:   dualchipTurnOnRadioPowerVREG
                                                   macDualchipTurnOnRadioOscillator
           LOCAL                   ADDRESS         
           =====                   =======         
           ?Subroutine0            00012C94 
    -------------------------------------------------------------------------
<CODE> 3 (was CODE)
  Relative segment, address: 00012CA4 - 00012CC1 (0x1e bytes), align: 1
  Segment part 24.            Intra module refs:   macDualchipSystemInit
           ENTRY                   ADDRESS         REF BY
           =====                   =======         ======
           macDualchipTurnOffRadioPower
                                   00012CA4 
               calls direct
               CSTACK = 00000000 ( 00000004 )
    -------------------------------------------------------------------------
<CODE> 3 (was CODE)
  Relative segment, address: 00012CC2 - 00012CE9 (0x28 bytes), align: 1
  Segment part 25.            Intra module refs:   macDualchipSystemInit
                                                   macDualchipTurnOnRadioPower
           LOCAL                   ADDRESS         
           =====                   =======         
           dualchipTurnOnRadioPowerVREG
                                   00012CC2 
               calls direct
               CSTACK = 00000000 ( 00000004 )
    -------------------------------------------------------------------------
<CODE> 3 (was CODE)
  Relative segment, address: 0001547E - 0001548B (0xe bytes), align: 1
  Segment part 26.            Intra module refs:   dualchipTurnOnRadioPowerVREG
                                                   macDualchipTurnOnRadioOscillator
           LOCAL                   ADDRESS         
           =====                   =======         
           ?Subroutine4            0001547E 
    -------------------------------------------------------------------------
<CODE> 3 (was CODE)
  Relative segment, address: 00015554 - 0001555F (0xc bytes), align: 1
  Segment part 20.
           ENTRY                   ADDRESS         REF BY
           =====                   =======         ======
           macDualchipRecordMaxRssiStart
                                   00015554        macRadioEnergyDetectStart (mac_radio)
               CSTACK = 00000000 ( 00000004 )
    -------------------------------------------------------------------------
<CODE> 3 (was CODE)
  Relative segment, address: 0001561E - 00015627 (0xa bytes), align: 1
  Segment part 19.
           ENTRY                   ADDRESS         REF BY
           =====                   =======         ======
           macDualchipRecordMaxRssiStop
                                   0001561E        macRadioEnergyDetectStop (mac_radio)
               CSTACK = 00000000 ( 00000004 )
    -------------------------------------------------------------------------
<CODE> 3 (was CODE)
  Relative segment, address: 000147D6 - 000147FB (0x26 bytes), align: 1
  Segment part 17.
           ENTRY                   ADDRESS         REF BY
           =====                   =======         ======
           macDualchipRecordMaxRssiIsr
                                   000147D6        macTimerRolloverIsr (mac_mcu_timer)
               calls direct
               CSTACK = 00000000 ( 00000008 )
    -------------------------------------------------------------------------
<CODE> 3 (was CODE)
  Relative segment, address: 000156F2 - 000156F9 (0x8 bytes), align: 1
  Segment part 18.            Intra module refs:   macDualchipRecordMaxRssiIsr
           LOCAL                   ADDRESS         
           =====                   =======         
           ?Subroutine3            000156F2 
    -------------------------------------------------------------------------
DATA16_ID
  Relative segment, address: 3A27 - 3A27 (0x1 bytes), align: 0
  Segment part 14.            Intra module refs:   frmfilt0

    *************************************************************************

  FILE NAME : C:\Texas Instruments\ZStack-MSP2618-2.5.1\Projects\zstack\HomeAutomation\SampleSwitch\CC2520DB\EndDevice\Obj\mac_dualchip_tx.r43
  PROGRAM MODULE, NAME : mac_dualchip_tx

  SEGMENTS IN THE MODULE
  ======================
DATA16_AN
  Relative segment, address: 0166 - 0167 (0x2 bytes), align: 0
  Segment part 4. ROOT.       Intra module refs:   dualchipTxSlotted
                                                   dualchipTxSlottedCollisionDetection
                                                   dualchipTxSlottedCsma
                                                   dualchipTxSlottedCsmaCca
                                                   macDualchipTxCancelAckTimeoutCallback
                                                   macMcuTimerCompare (mac_mcu_timer)
                                                   macMcuTimerConfigureUsecTimer (mac_mcu_timer)
                                                   macMcuTimerInit (mac_mcu_timer)
                                                   macMcuTimerSlottedBackoffs (mac_mcu_timer)
                                                   macMcuTimerUnslottedBackoffs (mac_mcu_timer)
                                                   macMcuTimerUsecs (mac_mcu_timer)
                                                   macMcuTimerWaitUsecs (mac_mcu_timer)
           ENTRY                   ADDRESS         REF BY
           =====                   =======         ======
           TACCTL2                 0166 
    -------------------------------------------------------------------------
<CODE> 1 (was CODE)
  Relative segment, address: DE1E, align: 1
  Segment part 15.
           ENTRY                   ADDRESS         REF BY
           =====                   =======         ======
           macDualchipTxCancelAckTimeoutCallback
                                   DE1E            ?Subroutine0 (mac_tx)
               CSTACK = 00000000 ( 00000004 )
    -------------------------------------------------------------------------
<CODE> 1 (was CODE)
  Relative segment, address: DE1E - DE25 (0x8 bytes), align: 1
  Segment part 16.            Intra module refs:   macDualchipTxCancelAckTimeoutCallback
           LOCAL                   ADDRESS         
           =====                   =======         
           ?Subroutine0            DE1E 
    -------------------------------------------------------------------------
<CODE> 1 (was CODE)
  Relative segment, address: DE26 - DE41 (0x1c bytes), align: 1
  Segment part 17.
           ENTRY                   ADDRESS         REF BY
           =====                   =======         ======
           macDualchipTxRequestAckTimeoutCallback
                                   DE26            macTxDoneCallback (mac_tx)
               calls direct
               CSTACK = 00000000 ( 00000004 )
    -------------------------------------------------------------------------
<CODE> 1 (was CODE)
  Relative segment, address: DE42 - DE6D (0x2c bytes), align: 1
  Segment part 18.
           ENTRY                   ADDRESS         REF BY
           =====                   =======         ======
           macDualchipTxGoSlottedCsma
                                   DE42            txCsmaGo (mac_tx)
               calls direct
               CSTACK = 00000000 ( 00000004 )
    -------------------------------------------------------------------------
<CODE> 1 (was CODE)
  Relative segment, address: DE6E - DE91 (0x24 bytes), align: 1
  Segment part 19.
           ENTRY                   ADDRESS         REF BY
           =====                   =======         ======
           macDualchipTxGoSlotted
                                   DE6E            txGo (mac_tx)
               calls direct
               CSTACK = 00000000 ( 00000004 )
    -------------------------------------------------------------------------
<CODE> 1 (was CODE)
  Relative segment, address: DE92 - DEA5 (0x14 bytes), align: 1
  Segment part 20.
           ENTRY                   ADDRESS         REF BY
           =====                   =======         ======
           macDualchipTxPrepSlotted
                                   DE92            macTxFrame (mac_tx)
               calls direct
               CSTACK = 00000000 ( 00000004 )
    -------------------------------------------------------------------------
<CODE> 1 (was CODE)
  Relative segment, address: DEA6 - DEAD (0x8 bytes), align: 1
  Segment part 21.
           ENTRY                   ADDRESS         REF BY
           =====                   =======         ======
           macDualchipTxPrepCsmaSlotted
                                   DEA6            txCsmaPrep (mac_tx)
               calls direct
               CSTACK = 00000000 ( 00000004 )
    -------------------------------------------------------------------------
<CODE> 1 (was CODE)
  Relative segment, address: DEAE - DEC3 (0x16 bytes), align: 1
  Segment part 22.            Intra module refs:   macDualchipTxPrepCsmaSlotted
                                                   macDualchipTxPrepSlotted
           LOCAL                   ADDRESS         
           =====                   =======         
           ?Subroutine1            DEAE 
    -------------------------------------------------------------------------
<CODE> 1 (was CODE)
  Relative segment, address: DEC4 - DEF1 (0x2e bytes), align: 1
  Segment part 23.            Intra module refs:   dualchipTxUnslottedCsmaRxOn
           LOCAL                   ADDRESS         
           =====                   =======         
           dualchipTxUnslottedCsmaCca
                                   DEC4 
               calls direct
               CSTACK = 00000000 ( 00000006 )
    -------------------------------------------------------------------------
<CODE> 1 (was CODE)
  Relative segment, address: DEF2 - DF0D (0x1c bytes), align: 1
  Segment part 24.            Intra module refs:   macDualchipTxGoCsma
           LOCAL                   ADDRESS         
           =====                   =======         
           dualchipTxUnslottedCsmaRxOn
                                   DEF2 
               calls direct
               CSTACK = 00000000 ( 00000004 )
    -------------------------------------------------------------------------
<CODE> 1 (was CODE)
  Relative segment, address: DF0E - DF51 (0x44 bytes), align: 1
  Segment part 25.
           ENTRY                   ADDRESS         REF BY
           =====                   =======         ======
           macDualchipTxGoCsma     DF0E            txCsmaGo (mac_tx)
               calls direct
               CSTACK = 00000000 ( 00000004 )
    -------------------------------------------------------------------------
<CODE> 1 (was CODE)
  Relative segment, address: DF52 - DF69 (0x18 bytes), align: 1
  Segment part 7.             Intra module refs:   dualchipTxSlottedCsmaCca
           LOCAL                   ADDRESS         
           =====                   =======         
           dualchipTxSlottedCsma   DF52 
               calls direct
               CSTACK = 00000000 ( 00000004 )
    -------------------------------------------------------------------------
<CODE> 1 (was CODE)
  Relative segment, address: DF6A - DFA7 (0x3e bytes), align: 1
  Segment part 8.             Intra module refs:   macDualchipTxGoSlottedCsma
           LOCAL                   ADDRESS         
           =====                   =======         
           dualchipTxSlottedCsmaCca
                                   DF6A 
               calls direct
               CSTACK = 00000000 ( 00000006 )
    -------------------------------------------------------------------------
<CODE> 1 (was CODE)
  Relative segment, address: DFA8 - DFAD (0x6 bytes), align: 1
  Segment part 9.             Intra module refs:   dualchipTxSlotted
           LOCAL                   ADDRESS         
           =====                   =======         
           dualchipTxSlottedCollisionDetection
                                   DFA8 
               CSTACK = 00000000 ( 00000004 )
    -------------------------------------------------------------------------
<CODE> 1 (was CODE)
  Relative segment, address: DFAE - DFC9 (0x1c bytes), align: 1
  Segment part 10.            Intra module refs:   macDualchipTxGoSlotted
           LOCAL                   ADDRESS         
           =====                   =======         
           dualchipTxSlotted       DFAE 
               calls direct
               CSTACK = 00000000 ( 00000004 )
    -------------------------------------------------------------------------
<CODE> 1 (was CODE)
  Relative segment, address: DFCA - DFD3 (0xa bytes), align: 1
  Segment part 11.            Intra module refs:   dualchipTxSlotted
                                                   dualchipTxSlottedCsma
                                                   dualchipTxUnslottedCsmaCca
           LOCAL                   ADDRESS         
           =====                   =======         
           ?Subroutine2            DFCA 
    -------------------------------------------------------------------------
<CODE> 3 (was CODE)
  Relative segment, address: 000157A8 - 000157AB (0x4 bytes), align: 1
  Segment part 13.
           ENTRY                   ADDRESS         REF BY
           =====                   =======         ======
           macDualchipTxAckDoneIsr
                                   000157A8        halMacFifopIsr (hal_mac_cfg)
               calls direct
               CSTACK = 00000000 ( 00000004 )
    -------------------------------------------------------------------------
<CODE> 3 (was CODE)
  Relative segment, address: 000157A4 - 000157A7 (0x4 bytes), align: 1
  Segment part 12.
           ENTRY                   ADDRESS         REF BY
           =====                   =======         ======
           macDualchipTxFrmDoneIsr
                                   000157A4        halMacFifopIsr (hal_mac_cfg)
               calls direct
               CSTACK = 00000000 ( 00000004 )

    *************************************************************************

  FILE NAME : C:\Texas Instruments\ZStack-MSP2618-2.5.1\Projects\zstack\HomeAutomation\SampleSwitch\CC2520DB\EndDevice\Obj\mac_low_level.r43
  PROGRAM MODULE, NAME : mac_low_level

  SEGMENTS IN THE MODULE
  ======================
DATA16_C
  Relative segment, address: 3406 - 3425 (0x20 bytes), align: 1
  Segment part 2.             Intra module refs:   macLowLevelInit
           ENTRY                   ADDRESS         REF BY
           =====                   =======         ======
           macBeaconMarginDCO      3406 
    -------------------------------------------------------------------------
<CODE> 3 (was CODE)
  Relative segment, address: 000144A4 - 000144CF (0x2c bytes), align: 1
  Segment part 4.
           ENTRY                   ADDRESS         REF BY
           =====                   =======         ======
           macLowLevelInit         000144A4        MAC_Init (mac_beacon)
               calls direct
               CSTACK = 00000000 ( 00000004 )
    -------------------------------------------------------------------------
<CODE> 3 (was CODE)
  Relative segment, address: 00014BC2 - 00014BE1 (0x20 bytes), align: 1
  Segment part 3.
           ENTRY                   ADDRESS         REF BY
           =====                   =======         ======
           macLowLevelReset        00014BC2        MAC_MlmeResetReq (mac_beacon)
               calls direct
               CSTACK = 00000000 ( 00000004 )

    *************************************************************************

  FILE NAME : C:\Texas Instruments\ZStack-MSP2618-2.5.1\Projects\zstack\HomeAutomation\SampleSwitch\CC2520DB\EndDevice\Obj\mac_mcu_timer.r43
  PROGRAM MODULE, NAME : mac_mcu_timer

  SEGMENTS IN THE MODULE
  ======================
DATA16_AN
  Relative segment, address: 012E - 012F (0x2 bytes), align: 0
  Segment part 1. ROOT.       Intra module refs:   halMacTimerCaptureCompareIsr
           ENTRY                   ADDRESS         REF BY
           =====                   =======         ======
           TAIV                    012E 
    -------------------------------------------------------------------------
DATA16_AN
  Relative segment, address: 0164 - 0165 (0x2 bytes), align: 0
  Segment part 4. ROOT.       Intra module refs:   halMacTimerCaptureCompareIsr
                                                   macMcuTimerInit
           ENTRY                   ADDRESS         REF BY
           =====                   =======         ======
           TACCTL1                 0164 
    -------------------------------------------------------------------------
DATA16_AN
  Relative segment, address: 0174 - 0175 (0x2 bytes), align: 0
  Segment part 8. ROOT.       Intra module refs:   halMacTimerCaptureCompareIsr
                                                   macMcuTimerCapture
           ENTRY                   ADDRESS         REF BY
           =====                   =======         ======
           TACCR1                  0174 
    -------------------------------------------------------------------------
DATA16_AN
  Relative segment, address: 0176 - 0177 (0x2 bytes), align: 0
  Segment part 9. ROOT.       Intra module refs:   macMcuTimerConfigureUsecTimer
                                                   macMcuTimerSlottedBackoffs
                                                   macMcuTimerUnslottedBackoffs
           ENTRY                   ADDRESS         REF BY
           =====                   =======         ======
           TACCR2                  0176 
    -------------------------------------------------------------------------
DATA16_Z
  Relative segment, address: 14E8 - 14EB (0x4 bytes), align: 1
  Segment part 13.            Intra module refs:   macMcuTimerCapture
                                                   macTimerRolloverIsr
           ENTRY                   ADDRESS         REF BY
           =====                   =======         ======
           macMcuTimerBackoffCount
                                   14E8            macBackoffTimerCount (mac_backoff_timer)
                                                   macBackoffTimerInit (mac_backoff_timer)
                                                   macBackoffTimerSetRollover (mac_backoff_timer)
                                                   macBackoffTimerSetTrigger (mac_backoff_timer)
    -------------------------------------------------------------------------
DATA16_Z
  Relative segment, address: 14EC - 14EF (0x4 bytes), align: 1
  Segment part 14.            Intra module refs:   macTimerRolloverIsr
           ENTRY                   ADDRESS         REF BY
           =====                   =======         ======
           macMcuTimerBackoffCompare
                                   14EC            macBackoffTimerSetTrigger (mac_backoff_timer)
    -------------------------------------------------------------------------
DATA16_Z
  Relative segment, address: 14F0 - 14F3 (0x4 bytes), align: 1
  Segment part 15.            Intra module refs:   macTimerRolloverIsr
           ENTRY                   ADDRESS         REF BY
           =====                   =======         ======
           macMcuTimerBackoffRollover
                                   14F0            macBackoffTimerSetRollover (mac_backoff_timer)
    -------------------------------------------------------------------------
DATA16_Z
  Relative segment, address: 1A4C - 1A4C (0x1 bytes), align: 0
  Segment part 16.            Intra module refs:   macMcuTimerInit
                                                   macTimerRolloverIsr
           ENTRY                   ADDRESS         REF BY
           =====                   =======         ======
           macMcuTimerRecordMaxRssiFlag
                                   1A4C            macDualchipRecordMaxRssiStart (mac_dualchip)
                                                   macDualchipRecordMaxRssiStop (mac_dualchip)
    -------------------------------------------------------------------------
DATA16_Z
  Relative segment, address: 1A4D - 1A4D (0x1 bytes), align: 0
  Segment part 17.            Intra module refs:   ?Subroutine1
                                                   macMcuTimerCompare
                                                   macMcuTimerConfigureUsecTimer
                                                   macMcuTimerWaitUsecs
           ENTRY                   ADDRESS         REF BY
           =====                   =======         ======
           macMcuTimerBackoffs     1A4D 
    -------------------------------------------------------------------------
DATA16_Z
  Relative segment, address: 14F4 - 14F5 (0x2 bytes), align: 1
  Segment part 18.            Intra module refs:   macMcuTimerConfigureUsecTimer
                                                   macMcuTimerUnslottedBackoffs
           ENTRY                   ADDRESS         REF BY
           =====                   =======         ======
           macMcuTimerCount        14F4            dualchipTurnOnRadioPowerVREG (mac_dualchip)
                                                   dualchipTxUnslottedCsmaRxOn (mac_dualchip_tx)
                                                   macDualchipTxGoCsma (mac_dualchip_tx)
                                                   macDualchipTxRequestAckTimeoutCallback (mac_dualchip_tx)
    -------------------------------------------------------------------------
DATA16_Z
  Relative segment, address: 14F6 - 14F9 (0x4 bytes), align: 1
  Segment part 19.            Intra module refs:   macMcuTimerBackoffCapture
                                                   macMcuTimerCapture
           ENTRY                   ADDRESS         REF BY
           =====                   =======         ======
           macMcuTimerBackoffCountCapture
                                   14F6 
    -------------------------------------------------------------------------
DATA16_Z
  Relative segment, address: 14FA - 14FB (0x2 bytes), align: 1
  Segment part 20.            Intra module refs:   macMcuTimerCapture
                                                   macMcuTimerTickCapture
           ENTRY                   ADDRESS         REF BY
           =====                   =======         ======
           macMcuTimerTickCountCapture
                                   14FA 
    -------------------------------------------------------------------------
DATA16_Z
  Relative segment, address: 1A4E - 1A4E (0x1 bytes), align: 0
  Segment part 21.            Intra module refs:   halMacTimerCaptureCompareIsr
           ENTRY                   ADDRESS         REF BY
           =====                   =======         ======
           macMcuTimerProcessFallingEdgeSFDSync
                                   1A4E            ?Subroutine2 (mac_dualchip_tx)
    -------------------------------------------------------------------------
DATA16_Z
  Relative segment, address: 14FC - 14FF (0x4 bytes), align: 1
  Segment part 22.            Intra module refs:   macMcuPrecisionCount
                                                   macTimerRolloverIsr
           ENTRY                   ADDRESS         REF BY
           =====                   =======         ======
           mcuPrecisionCount       14FC 
    -------------------------------------------------------------------------
DATA16_Z
  Relative segment, address: 1500 - 1503 (0x4 bytes), align: 1
  Segment part 23.            Intra module refs:   macMcuTimerCompare
           ENTRY                   ADDRESS         REF BY
           =====                   =======         ======
           pFuncMacMcuTimerCallback
                                   1500            dualchipTxSlotted (mac_dualchip_tx)
                                                   dualchipTxSlottedCsmaCca (mac_dualchip_tx)
                                                   dualchipTxUnslottedCsmaRxOn (mac_dualchip_tx)
                                                   macDualchipTxGoCsma (mac_dualchip_tx)
                                                   macDualchipTxGoSlotted (mac_dualchip_tx)
                                                   macDualchipTxGoSlottedCsma (mac_dualchip_tx)
                                                   macDualchipTxRequestAckTimeoutCallback (mac_dualchip_tx)
    -------------------------------------------------------------------------
<CODE> 3 (was CODE)
  Relative segment, address: 00014648 - 0001466F (0x28 bytes), align: 1
  Segment part 41.
           ENTRY                   ADDRESS         REF BY
           =====                   =======         ======
           macMcuTimerInit         00014648        macDualchipSystemInit (mac_dualchip)
               CSTACK = 00000000 ( 00000004 )
    -------------------------------------------------------------------------
<CODE> 3 (was CODE)
  Relative segment, address: 00014526 - 0001454F (0x2a bytes), align: 1
  Segment part 38.
           ENTRY                   ADDRESS         REF BY
           =====                   =======         ======
           macMcuTimerWaitUsecs    00014526        dualchipTurnOnRadioPowerVREG (mac_dualchip)
               calls direct
               CSTACK = 00000000 ( 00000006 )
    -------------------------------------------------------------------------
<CODE> 3 (was CODE)
  Relative segment, address: 000153E8 - 000153E9 (0x2 bytes), align: 1
  Segment part 39.            Intra module refs:   macMcuTimerUsecs
                                                   macMcuTimerWaitUsecs
           LOCAL                   ADDRESS         
           =====                   =======         
           ?Subroutine2            000153E8 
    -------------------------------------------------------------------------
<CODE> 3 (was CODE)
  Relative segment, address: 000153EA - 000153F7 (0xe bytes), align: 1
  Segment part 40.            Intra module refs:   ?Subroutine1
                                                   ?Subroutine2
           LOCAL                   ADDRESS         
           =====                   =======         
           ?Subroutine3            000153EA 
    -------------------------------------------------------------------------
<CODE> 3 (was CODE)
  Relative segment, address: 0001179C - 000117A7 (0xc bytes), align: 1
  Segment part 31.
           ENTRY                   ADDRESS         REF BY
           =====                   =======         ======
           macMcuTimerSlottedBackoffs
                                   0001179C        dualchipTxSlotted (mac_dualchip_tx)
                                                   dualchipTxSlottedCsmaCca (mac_dualchip_tx)
                                                   macDualchipTxGoSlotted (mac_dualchip_tx)
                                                   macDualchipTxGoSlottedCsma (mac_dualchip_tx)
               calls direct
               CSTACK = 00000000 ( 00000006 )
    -------------------------------------------------------------------------
<CODE> 3 (was CODE)
  Relative segment, address: 000117A8 - 000117AB (0x4 bytes), align: 1
  Segment part 32.            Intra module refs:   macMcuTimerSlottedBackoffs
                                                   macMcuTimerUnslottedBackoffs
           LOCAL                   ADDRESS         
           =====                   =======         
           ?Subroutine0            000117A8 
    -------------------------------------------------------------------------
<CODE> 3 (was CODE)
  Relative segment, address: 000117AC - 000117B5 (0xa bytes), align: 1
  Segment part 33.            Intra module refs:   ?Subroutine0
                                                   macMcuTimerUsecs
    -------------------------------------------------------------------------
<CODE> 3 (was CODE)
  Relative segment, address: 000117B6 - 000117C3 (0xe bytes), align: 1
  Segment part 34.
           ENTRY                   ADDRESS         REF BY
           =====                   =======         ======
           macMcuTimerUnslottedBackoffs
                                   000117B6        dualchipTxUnslottedCsmaRxOn (mac_dualchip_tx)
                                                   macDualchipTxGoCsma (mac_dualchip_tx)
               calls direct
               CSTACK = 00000000 ( 00000006 )
    -------------------------------------------------------------------------
<CODE> 3 (was CODE)
  Relative segment, address: 000117C4 - 000117D7 (0x14 bytes), align: 1
  Segment part 35.            Intra module refs:   macMcuTimerSlottedBackoffs
                                                   macMcuTimerUnslottedBackoffs
           LOCAL                   ADDRESS         
           =====                   =======         
           ?Subroutine1            000117C4 
    -------------------------------------------------------------------------
<CODE> 3 (was CODE)
  Relative segment, address: 000117D8 - 0001182D (0x56 bytes), align: 1
  Segment part 36.            Intra module refs:   macMcuTimerUsecs
                                                   macMcuTimerWaitUsecs
           ENTRY                   ADDRESS         REF BY
           =====                   =======         ======
           macMcuTimerConfigureUsecTimer
                                   000117D8 
               CSTACK = 00000000 ( 00000008 )
    -------------------------------------------------------------------------
<CODE> 3 (was CODE)
  Relative segment, address: 0001182E - 00011845 (0x18 bytes), align: 1
  Segment part 37.
           ENTRY                   ADDRESS         REF BY
           =====                   =======         ======
           macMcuTimerUsecs        0001182E        macDualchipTxRequestAckTimeoutCallback (mac_dualchip_tx)
               calls direct
               CSTACK = 00000000 ( 00000006 )
    -------------------------------------------------------------------------
ISR_CODE
  Relative segment, address: 3244 - 327B (0x38 bytes), align: 1
  Segment part 43.            Intra module refs:   halMacTimerCaptureCompareIsr::??INTVEC 48
           ENTRY                   ADDRESS         REF BY
           =====                   =======         ======
           halMacTimerCaptureCompareIsr
                                   3244 
               interrupt function
               calls direct
               CSTACK = 00000000 ( 0000000C )
    -------------------------------------------------------------------------
<CODE> 3 (was CODE)
  Relative segment, address: 00014D80 - 00014D9B (0x1c bytes), align: 1
  Segment part 30.            Intra module refs:   halMacTimerCaptureCompareIsr
           ENTRY                   ADDRESS         REF BY
           =====                   =======         ======
           macMcuTimerCapture      00014D80 
               CSTACK = 00000000 ( 00000004 )
    -------------------------------------------------------------------------
<CODE> 3 (was CODE)
  Relative segment, address: 00015682 - 0001568B (0xa bytes), align: 1
  Segment part 29.
           ENTRY                   ADDRESS         REF BY
           =====                   =======         ======
           macMcuTimerBackoffCapture
                                   00015682        rxStartIsr (mac_rx)
               CSTACK = 00000000 ( 00000004 )
    -------------------------------------------------------------------------
<CODE> 3 (was CODE)
  Relative segment, address: 0001575A - 0001575F (0x6 bytes), align: 1
  Segment part 28.
           ENTRY                   ADDRESS         REF BY
           =====                   =======         ======
           macMcuTimerTickCapture
                                   0001575A        rxStartIsr (mac_rx)
               CSTACK = 00000000 ( 00000004 )
    -------------------------------------------------------------------------
<CODE> 3 (was CODE)
  Relative segment, address: 00015262 - 00015273 (0x12 bytes), align: 1
  Segment part 27.            Intra module refs:   halMacTimerCaptureCompareIsr
           ENTRY                   ADDRESS         REF BY
           =====                   =======         ======
           macMcuTimerCompare      00015262 
               calls indirect
               CSTACK = 00000000 ( 00000004 )
    -------------------------------------------------------------------------
ISR_CODE
  Relative segment, address: 327C - 32D3 (0x58 bytes), align: 1
  Segment part 42.            Intra module refs:   macTimerRolloverIsr::??INTVEC 50
           ENTRY                   ADDRESS         REF BY
           =====                   =======         ======
           macTimerRolloverIsr     327C 
               interrupt function
               calls direct
               CSTACK = 00000000 ( 00000010 )
    -------------------------------------------------------------------------
<CODE> 3 (was CODE)
  Relative segment, address: 000156BE - 000156C7 (0xa bytes), align: 1
  Segment part 25.
           ENTRY                   ADDRESS         REF BY
           =====                   =======         ======
           macMcuPrecisionCount    000156BE        osalTimeUpdate (OSAL_Clock)
               CSTACK = 00000000 ( 00000004 )
    -------------------------------------------------------------------------
<CODE> 3 (was CODE)
  Relative segment, address: 000157E0 - 000157E1 (0x2 bytes), align: 1
  Segment part 24.
           ENTRY                   ADDRESS         REF BY
           =====                   =======         ======
           macMcuAccumulatedOverFlow
                                   000157E0        macBackoffTimerPeriodIsr (mac_backoff_timer)
               CSTACK = 00000000 ( 00000004 )
    -------------------------------------------------------------------------
INTVEC
  Common segment, address: FFC0 - FFF1 (0x32 bytes), align: 1
  Segment part 10. ROOT.
           ENTRY                   ADDRESS         REF BY
           =====                   =======         ======
           halMacTimerCaptureCompareIsr::??INTVEC 48
                                   FFF0 
    -------------------------------------------------------------------------
INTVEC
  Common segment, address: FFC0 - FFF3 (0x34 bytes), align: 1
  Segment part 11. ROOT.
           ENTRY                   ADDRESS         REF BY
           =====                   =======         ======
           macTimerRolloverIsr::??INTVEC 50
                                   FFF2 

    *************************************************************************

  FILE NAME : C:\Texas Instruments\ZStack-MSP2618-2.5.1\Projects\zstack\HomeAutomation\SampleSwitch\CC2520DB\EndDevice\Obj\mac_pib.r43
  PROGRAM MODULE, NAME : mac_pib

  SEGMENTS IN THE MODULE
  ======================
DATA16_C
  Relative segment, address: 3426 - 3467 (0x42 bytes), align: 1
  Segment part 2.             Intra module refs:   macPibReset
           LOCAL                   ADDRESS         
           =====                   =======         
           macPibDefaults          3426 
    -------------------------------------------------------------------------
DATA16_C
  Relative segment, address: 37CB - 385A (0x90 bytes), align: 0
  Segment part 3.             Intra module refs:   MAC_MlmeGetReq
                                                   MAC_MlmeSetReq
           LOCAL                   ADDRESS         
           =====                   =======         
           macPibTbl               37CB 
    -------------------------------------------------------------------------
DATA16_Z
  Relative segment, address: 1504 - 1545 (0x42 bytes), align: 1
  Segment part 4.             Intra module refs:   MAC_MlmeGetReq
                                                   MAC_MlmeSetReq
                                                   macPibReset
           ENTRY                   ADDRESS         REF BY
           =====                   =======         ======
           macPib                  1504            MAC_MlmeResetReq (mac_beacon)
                                                   Segment part 241 (mac_beacon)
                                                   Segment part 250 (mac_beacon)
                                                   Segment part 299 (mac_beacon)
                                                   Segment part 300 (mac_beacon)
                                                   macApiAssociateReq (mac_beacon)
                                                   macApiDisassociateReq (mac_beacon)
                                                   macApiScanReq (mac_beacon)
                                                   macAssocDataReq (mac_beacon)
                                                   macBuildHeader (mac_beacon)
                                                   macCbackForEvent (mac_beacon)
                                                   macCommStatusInd (mac_beacon)
                                                   macCoordAddrCmp (mac_beacon)
                                                   macDisassocComplete (mac_beacon)
                                                   macDualchipTurnOnRadioPower (mac_dualchip)
                                                   macDualchipTxRequestAckTimeoutCallback (mac_dualchip_tx)
                                                   macGetCoordAddress (mac_beacon)
                                                   macGetMyAddrMode (mac_beacon)
                                                   macRadioStopScan (mac_radio)
                                                   macRxBeacon (mac_beacon)
                                                   macRxCompleteCallback (mac_beacon)
                                                   macRxCoordRealign (mac_beacon)
                                                   macRxDisassoc (mac_beacon)
                                                   macScanRxBeacon (mac_beacon)
                                                   macSleepWakeUp (mac_sleep)
                                                   macTxChannelBusyCallback (mac_tx)
                                                   macTxFrame (mac_tx)
    -------------------------------------------------------------------------
<CODE> 3 (was CODE)
  Relative segment, address: 00014AC0 - 00014AE1 (0x22 bytes), align: 1
  Segment part 8.
           ENTRY                   ADDRESS         REF BY
           =====                   =======         ======
           macPibReset             00014AC0        MAC_MlmeResetReq (mac_beacon)
               calls direct
               CSTACK = 00000000 ( 00000004 )
    -------------------------------------------------------------------------
<CODE> 3 (was CODE)
  Relative segment, address: 000146E8 - 0001470F (0x28 bytes), align: 1
  Segment part 7.             Intra module refs:   MAC_MlmeGetReq
                                                   MAC_MlmeSetReq
           LOCAL                   ADDRESS         
           =====                   =======         
           macPibIndex             000146E8 
               CSTACK = 00000000 ( 00000004 )
    -------------------------------------------------------------------------
<CODE> 3 (was CODE)
  Relative segment, address: 00013EC6 - 00013EFD (0x38 bytes), align: 1
  Segment part 6.
           ENTRY                   ADDRESS         REF BY
           =====                   =======         ======
           MAC_MlmeGetReq          00013EC6        MAC_CbackEvent (zmac_cb)
                                                   ZMacGetReq (zmac)
               calls direct
               CSTACK = 00000000 ( 00000008 )
    -------------------------------------------------------------------------
<CODE> 3 (was CODE)
  Relative segment, address: 00010A00 - 00010AF9 (0xfa bytes), align: 1
  Segment part 5.
           ENTRY                   ADDRESS         REF BY
           =====                   =======         ======
           MAC_MlmeSetReq          00010A00        MAC_MlmeResetReq (mac_beacon)
                                                   MT_SysSetTxPower (MT_SYS)
                                                   Segment part 174 (mac_beacon)
                                                   Segment part 235 (mac_beacon)
                                                   Segment part 236 (mac_beacon)
                                                   ZMacReset (zmac)
                                                   ZMacSetReq (zmac)
                                                   macRxAssocRsp (mac_beacon)
                                                   macScanRxCoordRealign (mac_beacon)
               calls direct
               CSTACK = 00000000 ( 0000000C )

    *************************************************************************

  FILE NAME : C:\Texas Instruments\ZStack-MSP2618-2.5.1\Projects\zstack\HomeAutomation\SampleSwitch\CC2520DB\EndDevice\Obj\mac_radio.r43
  PROGRAM MODULE, NAME : mac_radio

  SEGMENTS IN THE MODULE
  ======================
DATA16_Z
  Relative segment, address: 1A4F - 1A4F (0x1 bytes), align: 0
  Segment part 2.             Intra module refs:   macRadioInit
                                                   macRadioUpdateTxPower
           ENTRY                   ADDRESS         REF BY
           =====                   =======         ======
           macPhyTxPower           1A4F 
    -------------------------------------------------------------------------
DATA16_Z
  Relative segment, address: 1A50 - 1A50 (0x1 bytes), align: 0
  Segment part 3.             Intra module refs:   macRadioInit
                                                   macRadioUpdateChannel
           ENTRY                   ADDRESS         REF BY
           =====                   =======         ======
           macPhyChannel           1A50 
    -------------------------------------------------------------------------
DATA16_Z
  Relative segment, address: 1A51 - 1A51 (0x1 bytes), align: 0
  Segment part 4.             Intra module refs:   macRadioInit
                                                   macRadioSetChannel
                                                   macRadioUpdateChannel
           LOCAL                   ADDRESS         
           =====                   =======         
           reqChannel              1A51 
    -------------------------------------------------------------------------
DATA16_Z
  Relative segment, address: 1A52 - 1A52 (0x1 bytes), align: 0
  Segment part 5.             Intra module refs:   macRadioInit
                                                   macRadioSetTxPower
                                                   macRadioUpdateTxPower
           LOCAL                   ADDRESS         
           =====                   =======         
           reqTxPower              1A52 
    -------------------------------------------------------------------------
<CODE> 3 (was CODE)
  Relative segment, address: 00015028 - 0001503B (0x14 bytes), align: 1
  Segment part 23.
           ENTRY                   ADDRESS         REF BY
           =====                   =======         ======
           macRadioInit            00015028        macDualchipTurnOffRadioPower (mac_dualchip)
                                                   macLowLevelInit (mac_low_level)
               CSTACK = 00000000 ( 00000004 )
    -------------------------------------------------------------------------
<CODE> 3 (was CODE)
  Relative segment, address: 000156D2 - 000156D9 (0x8 bytes), align: 1
  Segment part 22.
           ENTRY                   ADDRESS         REF BY
           =====                   =======         ======
           macRadioReset           000156D2        macLowLevelReset (mac_low_level)
               calls direct
               CSTACK = 00000000 ( 00000004 )
    -------------------------------------------------------------------------
<CODE> 3 (was CODE)
  Relative segment, address: 0001578C - 0001578F (0x4 bytes), align: 1
  Segment part 21.
           ENTRY                   ADDRESS         REF BY
           =====                   =======         ======
           macRadioRandomByte      0001578C        macPibReset (mac_pib)
                                                   txCsmaPrep (mac_tx)
               calls direct
               CSTACK = 00000000 ( 00000004 )
    -------------------------------------------------------------------------
<CODE> 3 (was CODE)
  Relative segment, address: 00015316 - 00015327 (0x12 bytes), align: 1
  Segment part 20.
           ENTRY                   ADDRESS         REF BY
           =====                   =======         ======
           macRadioSetPanCoordinator
                                   00015316        MAC_MlmeResetReq (mac_beacon)
                                                   macDualchipTurnOnRadioPower (mac_dualchip)
               calls direct
               CSTACK = 00000000 ( 00000004 )
    -------------------------------------------------------------------------
<CODE> 2 (was CODE)
  Relative segment, address: FCE0 - FCE7 (0x8 bytes), align: 1
  Segment part 10.            Intra module refs:   macRadioReset
           ENTRY                   ADDRESS         REF BY
           =====                   =======         ======
           macRadioStopScan        FCE0            macScanComplete (mac_beacon)
               calls direct
               CSTACK = 00000000 ( 00000004 )
    -------------------------------------------------------------------------
<CODE> 2 (was CODE)
  Relative segment, address: FCE8 - FCEF (0x8 bytes), align: 1
  Segment part 11.            Intra module refs:   macRadioSetPanID
                                                   macRadioStopScan
           LOCAL                   ADDRESS         
           =====                   =======         
           ?Subroutine0            FCE8 
    -------------------------------------------------------------------------
<CODE> 2 (was CODE)
  Relative segment, address: FCF0 - FD3D (0x4e bytes), align: 1
  Segment part 12.
           ENTRY                   ADDRESS         REF BY
           =====                   =======         ======
           macRadioStartScan       FCF0            macApiScanReq (mac_beacon)
               calls direct
               CSTACK = 00000000 ( 00000006 )
    -------------------------------------------------------------------------
<CODE> 2 (was CODE)
  Relative segment, address: FD3E - FD81 (0x44 bytes), align: 1
  Segment part 13.            Intra module refs:   macRadioSetChannel
           ENTRY                   ADDRESS         REF BY
           =====                   =======         ======
           macRadioUpdateChannel   FD3E            txComplete (mac_tx)
               calls direct
               CSTACK = 00000000 ( 00000004 )
    -------------------------------------------------------------------------
<CODE> 2 (was CODE)
  Relative segment, address: FD82 - FDAF (0x2e bytes), align: 1
  Segment part 14.
           ENTRY                   ADDRESS         REF BY
           =====                   =======         ======
           macRadioSetChannel      FD82            MAC_MlmeSetReq (mac_pib)
                                                   Segment part 250 (mac_beacon)
                                                   macDataTxSend (mac_beacon)
                                                   macDualchipTurnOnRadioPower (mac_dualchip)
               calls direct
               CSTACK = 00000000 ( 00000008 )
    -------------------------------------------------------------------------
<CODE> 2 (was CODE)
  Relative segment, address: FDB0 - FDDF (0x30 bytes), align: 1
  Segment part 15.            Intra module refs:   macRadioSetTxPower
           ENTRY                   ADDRESS         REF BY
           =====                   =======         ======
           macRadioUpdateTxPower   FDB0            rxPostRxUpdates (mac_rx)
                                                   txComplete (mac_tx)
               calls direct
               CSTACK = 00000000 ( 00000006 )
    -------------------------------------------------------------------------
<CODE> 2 (was CODE)
  Relative segment, address: FDE0 - FE15 (0x36 bytes), align: 1
  Segment part 16.
           ENTRY                   ADDRESS         REF BY
           =====                   =======         ======
           macRadioSetTxPower      FDE0            MAC_MlmeSetReq (mac_pib)
                                                   MT_SysSetTxPower (MT_SYS)
                                                   Segment part 250 (mac_beacon)
                                                   macDataTxSend (mac_beacon)
                                                   macDualchipTurnOnRadioPower (mac_dualchip)
               calls direct
               CSTACK = 00000000 ( 00000006 )
    -------------------------------------------------------------------------
<CODE> 2 (was CODE)
  Relative segment, address: FE16 - FE21 (0xc bytes), align: 1
  Segment part 17.
           ENTRY                   ADDRESS         REF BY
           =====                   =======         ======
           macRadioSetIEEEAddr     FE16            MAC_MlmeResetReq (mac_beacon)
                                                   MAC_MlmeSetReq (mac_pib)
                                                   macDualchipTurnOnRadioPower (mac_dualchip)
               calls direct
               CSTACK = 00000000 ( 00000004 )
    -------------------------------------------------------------------------
<CODE> 2 (was CODE)
  Relative segment, address: FE22 - FE2B (0xa bytes), align: 1
  Segment part 18.
           ENTRY                   ADDRESS         REF BY
           =====                   =======         ======
           macRadioSetShortAddr    FE22            MAC_MlmeResetReq (mac_beacon)
                                                   MAC_MlmeSetReq (mac_pib)
                                                   macDualchipTurnOnRadioPower (mac_dualchip)
               calls direct
               CSTACK = 00000000 ( 00000004 )
    -------------------------------------------------------------------------
<CODE> 2 (was CODE)
  Relative segment, address: FE2C - FE2F (0x4 bytes), align: 1
  Segment part 19.
           ENTRY                   ADDRESS         REF BY
           =====                   =======         ======
           macRadioSetPanID        FE2C            MAC_MlmeResetReq (mac_beacon)
                                                   MAC_MlmeSetReq (mac_pib)
                                                   macDualchipTurnOnRadioPower (mac_dualchip)
               calls direct
               CSTACK = 00000000 ( 00000004 )
    -------------------------------------------------------------------------
<CODE> 3 (was CODE)
  Relative segment, address: 00015784 - 00015787 (0x4 bytes), align: 1
  Segment part 9.
           ENTRY                   ADDRESS         REF BY
           =====                   =======         ======
           macRadioEnergyDetectStart
                                   00015784        macScanStartTimer (mac_beacon)
               calls direct
               CSTACK = 00000000 ( 00000004 )
    -------------------------------------------------------------------------
<CODE> 3 (was CODE)
  Relative segment, address: 00015530 - 0001553B (0xc bytes), align: 1
  Segment part 8.             Intra module refs:   macRadioReset
           ENTRY                   ADDRESS         REF BY
           =====                   =======         ======
           macRadioEnergyDetectStop
                                   00015530        macScanNextChan (mac_beacon)
               calls direct
               CSTACK = 00000000 ( 00000004 )
    -------------------------------------------------------------------------
<CODE> 3 (was CODE)
  Relative segment, address: 00013D38 - 00013D71 (0x3a bytes), align: 1
  Segment part 7.             Intra module refs:   macRadioComputeLQI
                                                   macRadioEnergyDetectStop
           LOCAL                   ADDRESS         
           =====                   =======         
           radioComputeED          00013D38 
               CSTACK = 00000000 ( 00000006 )
    -------------------------------------------------------------------------
<CODE> 3 (was CODE)
  Relative segment, address: 0001579C - 0001579F (0x4 bytes), align: 1
  Segment part 6.
           ENTRY                   ADDRESS         REF BY
           =====                   =======         ======
           macRadioComputeLQI      0001579C        rxFcsIsr (mac_rx)
                                                   rxStartIsr (mac_rx)
               calls direct
               CSTACK = 00000000 ( 00000004 )

    *************************************************************************

  FILE NAME : C:\Texas Instruments\ZStack-MSP2618-2.5.1\Projects\zstack\HomeAutomation\SampleSwitch\CC2520DB\EndDevice\Obj\mac_radio_defs.r43
  PROGRAM MODULE, NAME : mac_radio_defs

  SEGMENTS IN THE MODULE
  ======================
DATA16_C
  Relative segment, address: 385B - 3870 (0x16 bytes), align: 0
  Segment part 2.
           ENTRY                   ADDRESS         REF BY
           =====                   =======         ======
           macRadioDefsTxPwrBare   385B            macRadioSetTxPower (mac_radio)

    *************************************************************************

  FILE NAME : C:\Texas Instruments\ZStack-MSP2618-2.5.1\Projects\zstack\HomeAutomation\SampleSwitch\CC2520DB\EndDevice\Obj\mac_rx.r43
  PROGRAM MODULE, NAME : mac_rx

  SEGMENTS IN THE MODULE
  ======================
DATA16_Z
  Relative segment, address: 1A53 - 1A53 (0x1 bytes), align: 0
  Segment part 5.             Intra module refs:   macRxAckTxDoneCallback
                                                   macRxInit
                                                   rxDone
                                                   rxFcsIsr
                                                   rxHaltCleanupFinalStep
                                                   rxStartIsr
           ENTRY                   ADDRESS         REF BY
           =====                   =======         ======
           macRxActive             1A53            halAssertHazardLights (hal_assert)
                                                   halMacFifopIsr (hal_mac_cfg)
                                                   macRxOffRequest (mac_rx_onoff)
                                                   macTxFrame (mac_tx)
                                                   macTxStartQueuedFrame (mac_tx)
    -------------------------------------------------------------------------
DATA16_Z
  Relative segment, address: 1A54 - 1A54 (0x1 bytes), align: 0
  Segment part 6.             Intra module refs:   macRxInit
                                                   macRxTxReset
                                                   rxStartIsr
           ENTRY                   ADDRESS         REF BY
           =====                   =======         ======
           macRxFilter             1A54            macRadioStartScan (mac_radio)
                                                   macRadioStopScan (mac_radio)
    -------------------------------------------------------------------------
DATA16_Z
  Relative segment, address: 1A55 - 1A55 (0x1 bytes), align: 0
  Segment part 7.             Intra module refs:   macRxAckTxDoneCallback
                                                   macRxInit
                                                   rxDone
                                                   rxFcsIsr
                                                   rxHaltCleanupFinalStep
                                                   rxStartIsr
           ENTRY                   ADDRESS         REF BY
           =====                   =======         ======
           macRxOutgoingAckFlag    1A55            macRadioUpdateTxPower (mac_radio)
                                                   macRxOffRequest (mac_rx_onoff)
                                                   macTxFrame (mac_tx)
                                                   macTxStartQueuedFrame (mac_tx)
                                                   txGo (mac_tx)
    -------------------------------------------------------------------------
DATA16_C
  Relative segment, address: 3871 - 3874 (0x4 bytes), align: 0
  Segment part 8.             Intra module refs:   rxStartIsr
           LOCAL                   ADDRESS         
           =====                   =======         
           macRxAddrLen            3871 
    -------------------------------------------------------------------------
DATA16_Z
  Relative segment, address: 1546 - 1549 (0x4 bytes), align: 1
  Segment part 9.             Intra module refs:   ?Subroutine6
                                                   ?Subroutine8
                                                   macRxThresholdIsr
                                                   rxDiscardFrame
                                                   rxPrepPayload
                                                   rxStartIsr
           LOCAL                   ADDRESS         
           =====                   =======         
           pFuncRxState            1546 
    -------------------------------------------------------------------------
DATA16_Z
  Relative segment, address: 154A - 154B (0x2 bytes), align: 1
  Segment part 10.            Intra module refs:   macRxInit
                                                   rxAddrIsr
                                                   rxFcsIsr
                                                   rxHaltCleanupFinalStep
                                                   rxPayloadIsr
                                                   rxStartIsr
           LOCAL                   ADDRESS         
           =====                   =======         
           pRxBuf                  154A 
    -------------------------------------------------------------------------
DATA16_Z
  Relative segment, address: 1A56 - 1A59 (0x4 bytes), align: 0
  Segment part 11.            Intra module refs:   rxAddrIsr
                                                   rxFcsIsr
                                                   rxStartIsr
           LOCAL                   ADDRESS         
           =====                   =======         
           rxBuf                   1A56 
    -------------------------------------------------------------------------
DATA16_Z
  Relative segment, address: 1A5A - 1A5A (0x1 bytes), align: 0
  Segment part 12.            Intra module refs:   rxDiscardFrame
                                                   rxDiscardIsr
                                                   rxStartIsr
           LOCAL                   ADDRESS         
           =====                   =======         
           rxUnreadLen             1A5A 
    -------------------------------------------------------------------------
DATA16_Z
  Relative segment, address: 1A5B - 1A5B (0x1 bytes), align: 0
  Segment part 13.            Intra module refs:   ?Subroutine4
                                                   rxAddrIsr
                                                   rxDiscardIsr
                                                   rxPayloadIsr
                                                   rxStartIsr
           LOCAL                   ADDRESS         
           =====                   =======         
           rxNextLen               1A5B 
    -------------------------------------------------------------------------
DATA16_Z
  Relative segment, address: 1A5C - 1A5C (0x1 bytes), align: 0
  Segment part 14.            Intra module refs:   rxPayloadIsr
                                                   rxPrepPayload
                                                   rxStartIsr
           LOCAL                   ADDRESS         
           =====                   =======         
           rxPayloadLen            1A5C 
    -------------------------------------------------------------------------
DATA16_Z
  Relative segment, address: 1A5D - 1A5D (0x1 bytes), align: 0
  Segment part 15.            Intra module refs:   rxStartIsr
           LOCAL                   ADDRESS         
           =====                   =======         
           rxFilter                1A5D 
    -------------------------------------------------------------------------
DATA16_Z
  Relative segment, address: 1A5E - 1A5E (0x1 bytes), align: 0
  Segment part 16.            Intra module refs:   macRxInit
                                                   macRxPromiscuousMode
                                                   rxFcsIsr
                                                   rxStartIsr
           LOCAL                   ADDRESS         
           =====                   =======         
           rxPromiscuousMode       1A5E 
    -------------------------------------------------------------------------
DATA16_Z
  Relative segment, address: 1A5F - 1A5F (0x1 bytes), align: 0
  Segment part 17.            Intra module refs:   macRxHaltCleanup
                                                   macRxInit
                                                   macRxThresholdIsr
           LOCAL                   ADDRESS         
           =====                   =======         
           rxIsrActiveFlag         1A5F 
    -------------------------------------------------------------------------
DATA16_Z
  Relative segment, address: 1A60 - 1A60 (0x1 bytes), align: 0
  Segment part 18.            Intra module refs:   macRxHaltCleanup
                                                   macRxInit
                                                   macRxThresholdIsr
           LOCAL                   ADDRESS         
           =====                   =======         
           rxResetFlag             1A60 
    -------------------------------------------------------------------------
DATA16_Z
  Relative segment, address: 1A61 - 1A61 (0x1 bytes), align: 0
  Segment part 19.            Intra module refs:   macRxFifoOverflowIsr
                                                   macRxInit
           LOCAL                   ADDRESS         
           =====                   =======         
           rxFifoOverflowCount     1A61 
    -------------------------------------------------------------------------
<CODE> 3 (was CODE)
  Relative segment, address: 00014822 - 00014847 (0x26 bytes), align: 1
  Segment part 45.
           ENTRY                   ADDRESS         REF BY
           =====                   =======         ======
           macRxInit               00014822        macLowLevelInit (mac_low_level)
               CSTACK = 00000000 ( 00000004 )
    -------------------------------------------------------------------------
<CODE> 3 (was CODE)
  Relative segment, address: 000154B6 - 000154C3 (0xe bytes), align: 1
  Segment part 46.            Intra module refs:   ?Subroutine1
                                                   macRxInit
                                                   rxHaltCleanupFinalStep
           LOCAL                   ADDRESS         
           =====                   =======         
           ?Subroutine8            000154B6 
    -------------------------------------------------------------------------
<CODE> 3 (was CODE)
  Relative segment, address: 0001556C - 0001556F (0x4 bytes), align: 1
  Segment part 38.            Intra module refs:   macRxRadioPowerUpInit
                                                   rxHaltCleanupFinalStep
           LOCAL                   ADDRESS         
           =====                   =======         
           ?Subroutine2            0001556C 
    -------------------------------------------------------------------------
<CODE> 3 (was CODE)
  Relative segment, address: 00015570 - 00015577 (0x8 bytes), align: 1
  Segment part 39.            Intra module refs:   ?Subroutine2
                                                   rxDiscardFrame
                                                   rxDiscardIsr
                                                   rxPrepPayload
                                                   rxStartIsr
    -------------------------------------------------------------------------
<CODE> 3 (was CODE)
  Relative segment, address: 00015250 - 00015261 (0x12 bytes), align: 1
  Segment part 44.
           ENTRY                   ADDRESS         REF BY
           =====                   =======         ======
           macRxRadioPowerUpInit   00015250        macSleepWakeUp (mac_sleep)
               calls direct
               CSTACK = 00000000 ( 00000004 )
    -------------------------------------------------------------------------
<CODE> 3 (was CODE)
  Relative segment, address: 0001548C - 00015499 (0xe bytes), align: 1
  Segment part 43.
           ENTRY                   ADDRESS         REF BY
           =====                   =======         ======
           macRxTxReset            0001548C        macLowLevelReset (mac_low_level)
               calls direct
               CSTACK = 00000000 ( 00000004 )
    -------------------------------------------------------------------------
<CODE> 3 (was CODE)
  Relative segment, address: 000150B4 - 000150C7 (0x14 bytes), align: 1
  Segment part 42.            Intra module refs:   macRxFifoOverflowIsr
           ENTRY                   ADDRESS         REF BY
           =====                   =======         ======
           macRxHaltCleanup        000150B4        macRadioUpdateChannel (mac_radio)
                                                   macRxHardDisable (mac_rx_onoff)
               calls direct
               CSTACK = 00000000 ( 00000004 )
    -------------------------------------------------------------------------
<CODE> 3 (was CODE)
  Relative segment, address: 000153D8 - 000153E7 (0x10 bytes), align: 1
  Segment part 37.            Intra module refs:   rxDone
                                                   rxHaltCleanupFinalStep
                                                   rxStartIsr
           LOCAL                   ADDRESS         
           =====                   =======         
           ?Subroutine3            000153D8 
    -------------------------------------------------------------------------
<CODE> 3 (was CODE)
  Relative segment, address: 00013D72 - 00013DAB (0x3a bytes), align: 1
  Segment part 41.            Intra module refs:   macRxHaltCleanup
                                                   macRxThresholdIsr
           LOCAL                   ADDRESS         
           =====                   =======         
           rxHaltCleanupFinalStep
                                   00013D72 
               calls direct
               CSTACK = 00000000 ( 00000004 )
    -------------------------------------------------------------------------
<CODE> 3 (was CODE)
  Relative segment, address: 0001498E - 000149AF (0x22 bytes), align: 1
  Segment part 40.
           ENTRY                   ADDRESS         REF BY
           =====                   =======         ======
           macRxThresholdIsr       0001498E        halMacFifopIsr (hal_mac_cfg)
               calls direct and indirect
               CSTACK = 00000000 ( 00000004 )
    -------------------------------------------------------------------------
<CODE> 1 (was CODE)
  Relative segment, address: CB60 - CE37 (0x2d8 bytes), align: 1
  Segment part 35.            Intra module refs:   ?Subroutine8
                                                   rxDiscardFrame
           LOCAL                   ADDRESS         
           =====                   =======         
           rxStartIsr              CB60 
               calls direct
               CSTACK = 00000000 ( 00000016 )
    -------------------------------------------------------------------------
<CODE> 3 (was CODE)
  Relative segment, address: 00015418 - 00015427 (0x10 bytes), align: 1
  Segment part 36.            Intra module refs:   rxAddrIsr
                                                   rxStartIsr
           LOCAL                   ADDRESS         
           =====                   =======         
           ?Subroutine6            00015418 
    -------------------------------------------------------------------------
<CODE> 3 (was CODE)
  Relative segment, address: 0001140C - 000114C9 (0xbe bytes), align: 1
  Segment part 33.            Intra module refs:   rxStartIsr
           LOCAL                   ADDRESS         
           =====                   =======         
           rxAddrIsr               0001140C 
               calls direct
               CSTACK = 00000000 ( 0000001A )
    -------------------------------------------------------------------------
<CODE> 3 (was CODE)
  Relative segment, address: 00015438 - 00015445 (0xe bytes), align: 1
  Segment part 34.            Intra module refs:   rxAddrIsr
           LOCAL                   ADDRESS         
           =====                   =======         
           ?Subroutine7            00015438 
    -------------------------------------------------------------------------
<CODE> 3 (was CODE)
  Relative segment, address: 00014760 - 00014787 (0x28 bytes), align: 1
  Segment part 31.            Intra module refs:   ?Subroutine6
                                                   rxPayloadIsr
           LOCAL                   ADDRESS         
           =====                   =======         
           rxPrepPayload           00014760 
               calls direct
               CSTACK = 00000000 ( 00000004 )
    -------------------------------------------------------------------------
<CODE> 3 (was CODE)
  Relative segment, address: 00015140 - 00015153 (0x14 bytes), align: 1
  Segment part 32.            Intra module refs:   rxDiscardFrame
                                                   rxPrepPayload
           LOCAL                   ADDRESS         
           =====                   =======         
           ?Subroutine4            00015140 
    -------------------------------------------------------------------------
<CODE> 3 (was CODE)
  Relative segment, address: 000147FC - 00014821 (0x26 bytes), align: 1
  Segment part 30.            Intra module refs:   ?Subroutine6
           LOCAL                   ADDRESS         
           =====                   =======         
           rxPayloadIsr            000147FC 
               calls direct
               CSTACK = 00000000 ( 00000004 )
    -------------------------------------------------------------------------
<CODE> 3 (was CODE)
  Relative segment, address: 00011C32 - 00011CD5 (0xa4 bytes), align: 1
  Segment part 28.            Intra module refs:   rxPrepPayload
           LOCAL                   ADDRESS         
           =====                   =======         
           rxFcsIsr                00011C32 
               calls direct
               CSTACK = 00000000 ( 00000010 )
    -------------------------------------------------------------------------
<CODE> 3 (was CODE)
  Relative segment, address: 0001512C - 0001513F (0x14 bytes), align: 1
  Segment part 29.            Intra module refs:   rxDiscardIsr
                                                   rxFcsIsr
           LOCAL                   ADDRESS         
           =====                   =======         
           ?Subroutine1            0001512C 
    -------------------------------------------------------------------------
<CODE> 3 (was CODE)
  Relative segment, address: 00014340 - 00014347 (0x8 bytes), align: 1
  Segment part 25.
           ENTRY                   ADDRESS         REF BY
           =====                   =======         ======
           macRxAckTxDoneCallback
                                   00014340        macDualchipTxAckDoneIsr (mac_dualchip_tx)
               calls direct
               CSTACK = 00000000 ( 00000004 )
    -------------------------------------------------------------------------
<CODE> 3 (was CODE)
  Relative segment, address: 00014348 - 0001434F (0x8 bytes), align: 1
  Segment part 26.            Intra module refs:   macRxAckTxDoneCallback
                                                   rxDone
           LOCAL                   ADDRESS         
           =====                   =======         
           ?Subroutine0            00014348 
    -------------------------------------------------------------------------
<CODE> 3 (was CODE)
  Relative segment, address: 00014350 - 0001436D (0x1e bytes), align: 1
  Segment part 27.            Intra module refs:   ?Subroutine1
                                                   rxDiscardFrame
                                                   rxStartIsr
           LOCAL                   ADDRESS         
           =====                   =======         
           rxDone                  00014350 
               calls direct
               CSTACK = 00000000 ( 00000004 )
    -------------------------------------------------------------------------
<CODE> 3 (was CODE)
  Relative segment, address: 00015578 - 00015583 (0xc bytes), align: 1
  Segment part 24.            Intra module refs:   ?Subroutine0
                                                   rxHaltCleanupFinalStep
                                                   rxStartIsr
           LOCAL                   ADDRESS         
           =====                   =======         
           rxPostRxUpdates         00015578 
               calls direct
               CSTACK = 00000000 ( 00000004 )
    -------------------------------------------------------------------------
<CODE> 3 (was CODE)
  Relative segment, address: 0001407E - 000140B3 (0x36 bytes), align: 1
  Segment part 23.            Intra module refs:   rxStartIsr
           LOCAL                   ADDRESS         
           =====                   =======         
           rxDiscardFrame          0001407E 
               calls direct
               CSTACK = 00000000 ( 00000004 )
    -------------------------------------------------------------------------
<CODE> 3 (was CODE)
  Relative segment, address: 00013F6E - 00013FA5 (0x38 bytes), align: 1
  Segment part 22.            Intra module refs:   rxDiscardFrame
           LOCAL                   ADDRESS         
           =====                   =======         
           rxDiscardIsr            00013F6E 
               calls direct
               CSTACK = 00000000 ( 00000014 )
    -------------------------------------------------------------------------
<CODE> 3 (was CODE)
  Relative segment, address: 0001570A - 00015711 (0x8 bytes), align: 1
  Segment part 21.
           ENTRY                   ADDRESS         REF BY
           =====                   =======         ======
           macRxFifoOverflowIsr    0001570A        halMacFifopIsr (hal_mac_cfg)
               calls direct
               CSTACK = 00000000 ( 00000004 )
    -------------------------------------------------------------------------
<CODE> 3 (was CODE)
  Relative segment, address: 000148FE - 00014921 (0x24 bytes), align: 1
  Segment part 20.            Intra module refs:   macRxTxReset
           ENTRY                   ADDRESS         REF BY
           =====                   =======         ======
           macRxPromiscuousMode    000148FE 
               calls direct
               CSTACK = 00000000 ( 00000004 )

    *************************************************************************

  FILE NAME : C:\Texas Instruments\ZStack-MSP2618-2.5.1\Projects\zstack\HomeAutomation\SampleSwitch\CC2520DB\EndDevice\Obj\mac_rx_onoff.r43
  PROGRAM MODULE, NAME : mac_rx_onoff

  SEGMENTS IN THE MODULE
  ======================
DATA16_Z
  Relative segment, address: 1A62 - 1A62 (0x1 bytes), align: 0
  Segment part 3.             Intra module refs:   ?Subroutine1
                                                   macRxOff
                                                   macRxOn
                                                   macRxOnOffInit
           ENTRY                   ADDRESS         REF BY
           =====                   =======         ======
           macRxOnFlag             1A62            ?Subroutine2 (mac_dualchip_tx)
                                                   rxStartIsr (mac_rx)
    -------------------------------------------------------------------------
DATA16_Z
  Relative segment, address: 1A63 - 1A63 (0x1 bytes), align: 0
  Segment part 4.             Intra module refs:   macRxDisable
                                                   macRxEnable
                                                   macRxHardDisable
                                                   macRxOffRequest
                                                   macRxOnOffInit
                                                   macRxOnRequest
                                                   macRxSoftEnable
           ENTRY                   ADDRESS         REF BY
           =====                   =======         ======
           macRxEnableFlags        1A63            macDualchipTxGoCsma (mac_dualchip_tx)
    -------------------------------------------------------------------------
<CODE> 3 (was CODE)
  Relative segment, address: 0001563C - 00015645 (0xa bytes), align: 1
  Segment part 16.
           ENTRY                   ADDRESS         REF BY
           =====                   =======         ======
           macRxOnOffInit          0001563C        macLowLevelInit (mac_low_level)
               CSTACK = 00000000 ( 00000004 )
    -------------------------------------------------------------------------
<CODE> 3 (was CODE)
  Relative segment, address: 00014B82 - 00014BA1 (0x20 bytes), align: 1
  Segment part 15.
           ENTRY                   ADDRESS         REF BY
           =====                   =======         ======
           macRxEnable             00014B82        MAC_MlmeSetReq (mac_pib)
                                                   macApiScanReq (mac_beacon)
               calls direct
               CSTACK = 00000000 ( 00000008 )
    -------------------------------------------------------------------------
<CODE> 3 (was CODE)
  Relative segment, address: 00015078 - 0001508B (0x14 bytes), align: 1
  Segment part 13.
           ENTRY                   ADDRESS         REF BY
           =====                   =======         ======
           macRxSoftEnable         00015078        Segment part 306 (mac_beacon)
               calls direct
               CSTACK = 00000000 ( 00000006 )
    -------------------------------------------------------------------------
<CODE> 3 (was CODE)
  Relative segment, address: 0001550A - 00015517 (0xe bytes), align: 1
  Segment part 14.            Intra module refs:   macRxDisable
                                                   macRxSoftEnable
           LOCAL                   ADDRESS         
           =====                   =======         
           ?Subroutine2            0001550A 
    -------------------------------------------------------------------------
<CODE> 3 (was CODE)
  Relative segment, address: 00014E42 - 00014E5B (0x1a bytes), align: 1
  Segment part 12.
           ENTRY                   ADDRESS         REF BY
           =====                   =======         ======
           macRxDisable            00014E42        MAC_MlmeSetReq (mac_pib)
                                                   Segment part 213 (mac_beacon)
                                                   macScanComplete (mac_beacon)
               calls direct
               CSTACK = 00000000 ( 00000006 )
    -------------------------------------------------------------------------
<CODE> 3 (was CODE)
  Relative segment, address: 00014EDE - 00014EF7 (0x1a bytes), align: 1
  Segment part 10.
           ENTRY                   ADDRESS         REF BY
           =====                   =======         ======
           macRxHardDisable        00014EDE        macDualchipTxGoSlotted (mac_dualchip_tx)
                                                   macRxTxReset (mac_rx)
               calls direct
               CSTACK = 00000000 ( 00000006 )
    -------------------------------------------------------------------------
<CODE> 3 (was CODE)
  Relative segment, address: 00014D9C - 00014DB7 (0x1c bytes), align: 1
  Segment part 11.            Intra module refs:   macRxHardDisable
                                                   macRxOff
           LOCAL                   ADDRESS         
           =====                   =======         
           ?Subroutine1            00014D9C 
    -------------------------------------------------------------------------
<CODE> 3 (was CODE)
  Relative segment, address: 000125BA - 000125D3 (0x1a bytes), align: 1
  Segment part 5.             Intra module refs:   macRxOffRequest
           ENTRY                   ADDRESS         REF BY
           =====                   =======         ======
           macRxOff                000125BA        macDualchipTxGoCsma (mac_dualchip_tx)
                                                   macRadioUpdateChannel (mac_radio)
               calls direct
               CSTACK = 00000000 ( 00000006 )
    -------------------------------------------------------------------------
<CODE> 3 (was CODE)
  Relative segment, address: 000125D4 - 000125EF (0x1c bytes), align: 1
  Segment part 6.             Intra module refs:   macRxEnable
                                                   macRxOnRequest
           ENTRY                   ADDRESS         REF BY
           =====                   =======         ======
           macRxOn                 000125D4        dualchipTxUnslottedCsmaRxOn (mac_dualchip_tx)
                                                   macDualchipTxGoSlotted (mac_dualchip_tx)
                                                   macDualchipTxGoSlottedCsma (mac_dualchip_tx)
               calls direct
               CSTACK = 00000000 ( 00000006 )
    -------------------------------------------------------------------------
<CODE> 3 (was CODE)
  Relative segment, address: 000125F0 - 00012613 (0x24 bytes), align: 1
  Segment part 7.             Intra module refs:   macRxDisable
           ENTRY                   ADDRESS         REF BY
           =====                   =======         ======
           macRxOffRequest         000125F0        macTxChannelBusyCallback (mac_tx)
                                                   rxFcsIsr (mac_rx)
                                                   rxPostRxUpdates (mac_rx)
                                                   txComplete (mac_tx)
               calls direct
               CSTACK = 00000000 ( 00000006 )
    -------------------------------------------------------------------------
<CODE> 3 (was CODE)
  Relative segment, address: 00012614 - 00012619 (0x6 bytes), align: 1
  Segment part 8.             Intra module refs:   macRxOff
                                                   macRxOffRequest
                                                   macRxOn
                                                   macRxOnRequest
           LOCAL                   ADDRESS         
           =====                   =======         
           ?Subroutine0            00012614 
    -------------------------------------------------------------------------
<CODE> 3 (was CODE)
  Relative segment, address: 0001261A - 0001262D (0x14 bytes), align: 1
  Segment part 9.
           ENTRY                   ADDRESS         REF BY
           =====                   =======         ======
           macRxOnRequest          0001261A        macRadioUpdateChannel (mac_radio)
                                                   macSleepWakeUp (mac_sleep)
               calls direct
               CSTACK = 00000000 ( 00000006 )

    *************************************************************************

  FILE NAME : C:\Texas Instruments\ZStack-MSP2618-2.5.1\Projects\zstack\HomeAutomation\SampleSwitch\CC2520DB\EndDevice\Obj\mac_sleep.r43
  PROGRAM MODULE, NAME : mac_sleep

  SEGMENTS IN THE MODULE
  ======================
DATA16_I
  Relative segment, address: 1210 - 1210 (0x1 bytes), align: 0
  Segment part 3.             Intra module refs:   macSleepWakeUp
           ENTRY                   ADDRESS         REF BY
           =====                   =======         ======
           macSleepState           1210            macLowLevelReset (mac_low_level)
                                                   macRadioStartScan (mac_radio)
                                                   macTxFrame (mac_tx)
    -------------------------------------------------------------------------
<CODE> 3 (was CODE)
  Relative segment, address: 00013CFE - 00013D37 (0x3a bytes), align: 1
  Segment part 6.
           ENTRY                   ADDRESS         REF BY
           =====                   =======         ======
           macSleepWakeUp          00013CFE        macLowLevelReset (mac_low_level)
               calls direct
               CSTACK = 00000000 ( 00000004 )
    -------------------------------------------------------------------------
DATA16_ID
  Relative segment, address: 3A28 - 3A28 (0x1 bytes), align: 0
  Segment part 4.             Intra module refs:   macSleepState

    *************************************************************************

  FILE NAME : C:\Texas Instruments\ZStack-MSP2618-2.5.1\Projects\zstack\HomeAutomation\SampleSwitch\CC2520DB\EndDevice\Obj\mac_spi.r43
  PROGRAM MODULE, NAME : mac_spi

  SEGMENTS IN THE MODULE
  ======================
DATA16_AN
  Relative segment, address: 0007 - 0007 (0x1 bytes), align: 0
  Segment part 1. ROOT.       Intra module refs:   macSpiReadRam
                                                   spiFifoAccess
                                                   spiSendBytes
           ENTRY                   ADDRESS         REF BY
           =====                   =======         ======
           UC1IFG                  0007 
    -------------------------------------------------------------------------
DATA16_AN
  Relative segment, address: 00D8 - 00D8 (0x1 bytes), align: 0
  Segment part 3. ROOT.       Intra module refs:   macSpiInit
           ENTRY                   ADDRESS         REF BY
           =====                   =======         ======
           UCB1CTL0                00D8 
    -------------------------------------------------------------------------
DATA16_AN
  Relative segment, address: 00D9 - 00D9 (0x1 bytes), align: 0
  Segment part 4. ROOT.       Intra module refs:   macSpiInit
           ENTRY                   ADDRESS         REF BY
           =====                   =======         ======
           UCB1CTL1                00D9 
    -------------------------------------------------------------------------
DATA16_AN
  Relative segment, address: 00DA - 00DA (0x1 bytes), align: 0
  Segment part 5. ROOT.       Intra module refs:   macSpiInit
           ENTRY                   ADDRESS         REF BY
           =====                   =======         ======
           UCB1BR0                 00DA 
    -------------------------------------------------------------------------
DATA16_AN
  Relative segment, address: 00DB - 00DB (0x1 bytes), align: 0
  Segment part 6. ROOT.       Intra module refs:   macSpiInit
           ENTRY                   ADDRESS         REF BY
           =====                   =======         ======
           UCB1BR1                 00DB 
    -------------------------------------------------------------------------
DATA16_AN
  Relative segment, address: 00DE - 00DE (0x1 bytes), align: 0
  Segment part 7. ROOT.       Intra module refs:   macSpiReadRam
                                                   spiFifoAccess
                                                   spiSendBytes
           ENTRY                   ADDRESS         REF BY
           =====                   =======         ======
           UCB1RXBUF               00DE 
    -------------------------------------------------------------------------
DATA16_AN
  Relative segment, address: 00DF - 00DF (0x1 bytes), align: 0
  Segment part 8. ROOT.       Intra module refs:   macSpiReadRam
                                                   spiFifoAccess
                                                   spiSendBytes
           ENTRY                   ADDRESS         REF BY
           =====                   =======         ======
           UCB1TXBUF               00DF 
    -------------------------------------------------------------------------
DATA16_Z
  Relative segment, address: 1A64 - 1A64 (0x1 bytes), align: 0
  Segment part 10.            Intra module refs:   macSpiReadRam
                                                   spiFifoAccess
                                                   spiSendBytes
           ENTRY                   ADDRESS         REF BY
           =====                   =======         ======
           macSpiRadioPower        1A64            ?Subroutine4 (mac_dualchip)
                                                   dualchipTurnOnRadioPowerVREG (mac_dualchip)
                                                   macDualchipTurnOffRadioPower (mac_dualchip)
                                                   macDualchipTurnOnRadioOscillator (mac_dualchip)
    -------------------------------------------------------------------------
<CODE> 3 (was CODE)
  Relative segment, address: 00014D0E - 00014D2B (0x1e bytes), align: 1
  Segment part 28.
           ENTRY                   ADDRESS         REF BY
           =====                   =======         ======
           macSpiInit              00014D0E        macDualchipSystemInit (mac_dualchip)
               CSTACK = 00000000 ( 00000004 )
    -------------------------------------------------------------------------
<CODE> 1 (was CODE)
  Relative segment, address: D5DC - D5E9 (0xe bytes), align: 1
  Segment part 12.
           ENTRY                   ADDRESS         REF BY
           =====                   =======         ======
           macSpiRandomByte        D5DC            macDualchipSystemInit (mac_dualchip)
               calls direct
               CSTACK = 00000000 ( 00000008 )
    -------------------------------------------------------------------------
<CODE> 1 (was CODE)
  Relative segment, address: D5EA - D667 (0x7e bytes), align: 1
  Segment part 13.            Intra module refs:   macSpiReadRxFifo
                                                   macSpiWriteTxFifo
           LOCAL                   ADDRESS         
           =====                   =======         
           spiFifoAccess           D5EA 
               calls direct
               CSTACK = 00000000 ( 0000000C )
    -------------------------------------------------------------------------
<CODE> 1 (was CODE)
  Relative segment, address: D668 - D66D (0x6 bytes), align: 1
  Segment part 14.
           ENTRY                   ADDRESS         REF BY
           =====                   =======         ======
           macSpiReadRxFifo        D668            rxAddrIsr (mac_rx)
                                                   rxDiscardIsr (mac_rx)
                                                   rxFcsIsr (mac_rx)
                                                   rxPayloadIsr (mac_rx)
                                                   rxStartIsr (mac_rx)
               calls direct
               CSTACK = 00000000 ( 00000004 )
    -------------------------------------------------------------------------
<CODE> 1 (was CODE)
  Relative segment, address: D66E - D673 (0x6 bytes), align: 1
  Segment part 15.
           ENTRY                   ADDRESS         REF BY
           =====                   =======         ======
           macSpiWriteTxFifo       D66E            macTxFrame (mac_tx)
               calls direct
               CSTACK = 00000000 ( 00000004 )
    -------------------------------------------------------------------------
<CODE> 1 (was CODE)
  Relative segment, address: D674 - D6EB (0x78 bytes), align: 1
  Segment part 16.
           ENTRY                   ADDRESS         REF BY
           =====                   =======         ======
           macSpiReadRam           D674            MAC_SrcMatchCheckResult (mac_autopend)
                                                   macSrcMatchCheckSrcAddr (mac_autopend)
                                                   macSrcMatchSetPendEnBit (mac_autopend)
               calls direct
               CSTACK = 00000000 ( 0000000C )
    -------------------------------------------------------------------------
<CODE> 1 (was CODE)
  Relative segment, address: D6EC - D6F3 (0x8 bytes), align: 1
  Segment part 17.            Intra module refs:   macSpiReadRam
                                                   spiFifoAccess
           LOCAL                   ADDRESS         
           =====                   =======         
           ?Subroutine3            D6EC 
    -------------------------------------------------------------------------
<CODE> 1 (was CODE)
  Relative segment, address: D6F4 - D6FD (0xa bytes), align: 1
  Segment part 18.            Intra module refs:   macSpiReadRam
                                                   spiFifoAccess
                                                   spiSendBytes
           LOCAL                   ADDRESS         
           =====                   =======         
           ?Subroutine2            D6F4 
    -------------------------------------------------------------------------
<CODE> 1 (was CODE)
  Relative segment, address: D6FE - D733 (0x36 bytes), align: 1
  Segment part 19.            Intra module refs:   macSpiWriteRam
                                                   macSpiWriteRamUint16
           LOCAL                   ADDRESS         
           =====                   =======         
           spiWriteRamByte         D6FE 
               calls direct
               CSTACK = 00000000 ( 0000000C )
    -------------------------------------------------------------------------
<CODE> 1 (was CODE)
  Relative segment, address: D734 - D73B (0x8 bytes), align: 1
  Segment part 20.            Intra module refs:   ?Subroutine0
                                                   spiWriteRamByte
           LOCAL                   ADDRESS         
           =====                   =======         
           ?Subroutine1            D734 
    -------------------------------------------------------------------------
<CODE> 1 (was CODE)
  Relative segment, address: D73C - D759 (0x1e bytes), align: 1
  Segment part 21.
           ENTRY                   ADDRESS         REF BY
           =====                   =======         ======
           macSpiWriteRam          D73C            MAC_SrcMatchAddEntry (mac_autopend)
                                                   macRadioSetIEEEAddr (mac_radio)
                                                   macSrcMatchSetPendEnBit (mac_autopend)
               calls direct
               CSTACK = 00000000 ( 0000000C )
    -------------------------------------------------------------------------
<CODE> 1 (was CODE)
  Relative segment, address: D75A - D775 (0x1c bytes), align: 1
  Segment part 22.
           ENTRY                   ADDRESS         REF BY
           =====                   =======         ======
           macSpiWriteRamUint16    D75A            ?Subroutine0 (mac_radio)
                                                   macRadioSetShortAddr (mac_radio)
                                                   macRadioStartScan (mac_radio)
               calls direct
               CSTACK = 00000000 ( 00000008 )
    -------------------------------------------------------------------------
<CODE> 1 (was CODE)
  Relative segment, address: D776 - D7B3 (0x3e bytes), align: 1
  Segment part 23.            Intra module refs:   ?Subroutine1
           LOCAL                   ADDRESS         
           =====                   =======         
           spiSendBytes            D776 
               calls direct
               CSTACK = 00000000 ( 00000008 )
    -------------------------------------------------------------------------
<CODE> 1 (was CODE)
  Relative segment, address: D7B4 - D7DF (0x2c bytes), align: 1
  Segment part 24.
           ENTRY                   ADDRESS         REF BY
           =====                   =======         ======
           macSpiWriteReg          D7B4            ?Subroutine1 (mac_autopend)
                                                   ?Subroutine1 (mac_dualchip)
                                                   ?Subroutine1 (mac_rx)
                                                   MAC_SrcMatchAckAllPending (mac_autopend)
                                                   MAC_SrcMatchEnable (mac_autopend)
                                                   Segment part 39 (mac_rx)
                                                   dualchipTxSlottedCsmaCca (mac_dualchip_tx)
                                                   halMacFifopIsr (hal_mac_cfg)
                                                   macDualchipSystemInit (mac_dualchip)
                                                   macDualchipTurnOnRadioPower (mac_dualchip)
                                                   macDualchipTxPrepCsmaSlotted (mac_dualchip_tx)
                                                   macDualchipTxPrepSlotted (mac_dualchip_tx)
                                                   macRadioUpdateChannel (mac_radio)
                                                   macRadioUpdateTxPower (mac_radio)
                                                   macSrcMatchSetEnableBit (mac_autopend)
                                                   rxPrepPayload (mac_rx)
                                                   rxStartIsr (mac_rx)
               calls direct
               CSTACK = 00000000 ( 00000008 )
    -------------------------------------------------------------------------
<CODE> 1 (was CODE)
  Relative segment, address: D7E0 - D801 (0x22 bytes), align: 1
  Segment part 25.
           ENTRY                   ADDRESS         REF BY
           =====                   =======         ======
           macSpiReadReg           D7E0            ?Subroutine3 (mac_dualchip)
                                                   dualchipTxSlottedCsma (mac_dualchip_tx)
                                                   dualchipTxUnslottedCsmaCca (mac_dualchip_tx)
                                                   halMacFifopIsr (hal_mac_cfg)
                                                   macDualchipSystemInit (mac_dualchip)
                                                   macSrcMatchGetEnableBit (mac_autopend)
               calls direct
               CSTACK = 00000000 ( 00000008 )
    -------------------------------------------------------------------------
<CODE> 1 (was CODE)
  Relative segment, address: D802 - D809 (0x8 bytes), align: 1
  Segment part 26.            Intra module refs:   macSpiCmdStrobe
                                                   macSpiRandomByte
                                                   macSpiReadReg
                                                   macSpiWriteReg
           LOCAL                   ADDRESS         
           =====                   =======         
           ?Subroutine0            D802 
    -------------------------------------------------------------------------
<CODE> 1 (was CODE)
  Relative segment, address: D80A - D813 (0xa bytes), align: 1
  Segment part 27.
           ENTRY                   ADDRESS         REF BY
           =====                   =======         ======
           macSpiCmdStrobe         D80A            ?Subroutine1 (mac_rx_onoff)
                                                   ?Subroutine3 (mac_rx)
                                                   dualchipTxUnslottedCsmaCca (mac_dualchip_tx)
                                                   macDualchipSystemInit (mac_dualchip)
                                                   macDualchipTurnOnRadioOscillator (mac_dualchip)
                                                   macRxOn (mac_rx_onoff)
                                                   macTxFrame (mac_tx)
                                                   rxStartIsr (mac_rx)
               calls direct
               CSTACK = 00000000 ( 00000008 )

    *************************************************************************

  FILE NAME : C:\Texas Instruments\ZStack-MSP2618-2.5.1\Projects\zstack\HomeAutomation\SampleSwitch\CC2520DB\EndDevice\Obj\mac_tx.r43
  PROGRAM MODULE, NAME : mac_tx

  SEGMENTS IN THE MODULE
  ======================
DATA16_C
  Relative segment, address: 3875 - 3875 (0x1 bytes), align: 0
  Segment part 2.
           ENTRY                   ADDRESS         REF BY
           =====                   =======         ======
           macTxSlottedDelay       3875            macDualchipTxGoSlotted (mac_dualchip_tx)
    -------------------------------------------------------------------------
DATA16_Z
  Relative segment, address: 1A65 - 1A65 (0x1 bytes), align: 0
  Segment part 3.             Intra module refs:   ?Subroutine0
                                                   macTxAckNotReceivedCallback
                                                   macTxAckReceivedCallback
                                                   macTxChannelBusyCallback
                                                   macTxDoneCallback
                                                   macTxFrame
                                                   macTxInit
                                                   macTxStartQueuedFrame
                                                   txComplete
           ENTRY                   ADDRESS         REF BY
           =====                   =======         ======
           macTxActive             1A65            halAssertHazardLights (hal_assert)
                                                   macRadioSetChannel (mac_radio)
                                                   macRadioUpdateChannel (mac_radio)
                                                   macRadioUpdateTxPower (mac_radio)
                                                   macRxOffRequest (mac_rx_onoff)
                                                   rxStartIsr (mac_rx)
    -------------------------------------------------------------------------
DATA16_Z
  Relative segment, address: 1A66 - 1A66 (0x1 bytes), align: 0
  Segment part 4.             Intra module refs:   macTxChannelBusyCallback
                                                   macTxFrame
                                                   macTxFrameRetransmit
                                                   txCsmaGo
                                                   txCsmaPrep
                                                   txGo
           ENTRY                   ADDRESS         REF BY
           =====                   =======         ======
           macTxType               1A66            macDualchipTxGoCsma (mac_dualchip_tx)
                                                   macDualchipTxGoSlottedCsma (mac_dualchip_tx)
    -------------------------------------------------------------------------
DATA16_Z
  Relative segment, address: 1A67 - 1A67 (0x1 bytes), align: 0
  Segment part 5.             Intra module refs:   macTxChannelBusyCallback
                                                   macTxFrame
                                                   txCsmaPrep
           ENTRY                   ADDRESS         REF BY
           =====                   =======         ======
           macTxBe                 1A67 
    -------------------------------------------------------------------------
DATA16_Z
  Relative segment, address: 1A68 - 1A68 (0x1 bytes), align: 0
  Segment part 6.             Intra module refs:   txCsmaGo
                                                   txCsmaPrep
           ENTRY                   ADDRESS         REF BY
           =====                   =======         ======
           macTxCsmaBackoffDelay   1A68            macDualchipTxGoCsma (mac_dualchip_tx)
                                                   macDualchipTxGoSlottedCsma (mac_dualchip_tx)
    -------------------------------------------------------------------------
DATA16_Z
  Relative segment, address: 1A69 - 1A69 (0x1 bytes), align: 0
  Segment part 7.             Intra module refs:   macTxChannelBusyCallback
                                                   macTxFrame
           LOCAL                   ADDRESS         
           =====                   =======         
           nb                      1A69 
    -------------------------------------------------------------------------
DATA16_Z
  Relative segment, address: 1A6A - 1A6A (0x1 bytes), align: 0
  Segment part 8.             Intra module refs:   macTxAckReceivedCallback
                                                   macTxFrame
           LOCAL                   ADDRESS         
           =====                   =======         
           txSeqn                  1A6A 
    -------------------------------------------------------------------------
DATA16_Z
  Relative segment, address: 1A6B - 1A6B (0x1 bytes), align: 0
  Segment part 9.             Intra module refs:   macTxDoneCallback
                                                   macTxFrame
           LOCAL                   ADDRESS         
           =====                   =======         
           txAckReq                1A6B 
    -------------------------------------------------------------------------
DATA16_Z
  Relative segment, address: 1A6C - 1A6C (0x1 bytes), align: 0
  Segment part 10.            Intra module refs:   macTxFrame
                                                   macTxFrameRetransmit
                                                   macTxInit
                                                   txComplete
           LOCAL                   ADDRESS         
           =====                   =======         
           txRetransmitFlag        1A6C 
    -------------------------------------------------------------------------
<CODE> 3 (was CODE)
  Relative segment, address: 000155EC - 000155F5 (0xa bytes), align: 1
  Segment part 26.
           ENTRY                   ADDRESS         REF BY
           =====                   =======         ======
           macTxInit               000155EC        macLowLevelInit (mac_low_level)
               CSTACK = 00000000 ( 00000004 )
    -------------------------------------------------------------------------
<CODE> 3 (was CODE)
  Relative segment, address: 00010BEC - 00010CD7 (0xec bytes), align: 1
  Segment part 24.            Intra module refs:   macTxFrameRetransmit
           ENTRY                   ADDRESS         REF BY
           =====                   =======         ======
           macTxFrame              00010BEC        macDataTxSend (mac_beacon)
               calls direct
               CSTACK = 00000000 ( 00000008 )
    -------------------------------------------------------------------------
<CODE> 3 (was CODE)
  Relative segment, address: 00014848 - 0001486D (0x26 bytes), align: 1
  Segment part 23.            Intra module refs:   macTxChannelBusyCallback
                                                   macTxFrame
           LOCAL                   ADDRESS         
           =====                   =======         
           txCsmaPrep              00014848 
               calls direct
               CSTACK = 00000000 ( 00000004 )
    -------------------------------------------------------------------------
<CODE> 3 (was CODE)
  Relative segment, address: 0001523E - 0001524F (0x12 bytes), align: 1
  Segment part 22.            Intra module refs:   macTxFrame
                                                   macTxStartQueuedFrame
           LOCAL                   ADDRESS         
           =====                   =======         
           txGo                    0001523E 
               calls direct
               CSTACK = 00000000 ( 00000004 )
    -------------------------------------------------------------------------
<CODE> 3 (was CODE)
  Relative segment, address: 00014B22 - 00014B41 (0x20 bytes), align: 1
  Segment part 21.            Intra module refs:   macTxChannelBusyCallback
                                                   txGo
           LOCAL                   ADDRESS         
           =====                   =======         
           txCsmaGo                00014B22 
               calls direct
               CSTACK = 00000000 ( 00000004 )
    -------------------------------------------------------------------------
<CODE> 3 (was CODE)
  Relative segment, address: 00015590 - 0001559B (0xc bytes), align: 1
  Segment part 20.
           ENTRY                   ADDRESS         REF BY
           =====                   =======         ======
           macTxFrameRetransmit    00015590        macTxCompleteCallback (mac_beacon)
               calls direct
               CSTACK = 00000000 ( 00000004 )
    -------------------------------------------------------------------------
<CODE> 3 (was CODE)
  Relative segment, address: 000143C8 - 000143F3 (0x2c bytes), align: 1
  Segment part 19.
           ENTRY                   ADDRESS         REF BY
           =====                   =======         ======
           macTxStartQueuedFrame   000143C8        rxPostRxUpdates (mac_rx)
               calls direct
               CSTACK = 00000000 ( 00000004 )
    -------------------------------------------------------------------------
<CODE> 3 (was CODE)
  Relative segment, address: 00013404 - 00013455 (0x52 bytes), align: 1
  Segment part 18.
           ENTRY                   ADDRESS         REF BY
           =====                   =======         ======
           macTxChannelBusyCallback
                                   00013404        dualchipTxSlottedCsma (mac_dualchip_tx)
                                                   dualchipTxSlottedCsmaCca (mac_dualchip_tx)
                                                   dualchipTxUnslottedCsmaCca (mac_dualchip_tx)
               calls direct
               CSTACK = 00000000 ( 00000004 )
    -------------------------------------------------------------------------
<CODE> 3 (was CODE)
  Relative segment, address: 00014012 - 00014047 (0x36 bytes), align: 1
  Segment part 17.
           ENTRY                   ADDRESS         REF BY
           =====                   =======         ======
           macTxDoneCallback       00014012        macDualchipTxFrmDoneIsr (mac_dualchip_tx)
               calls direct
               CSTACK = 00000000 ( 00000006 )
    -------------------------------------------------------------------------
<CODE> 3 (was CODE)
  Relative segment, address: 00013B98 - 00013BD5 (0x3e bytes), align: 1
  Segment part 15.
           ENTRY                   ADDRESS         REF BY
           =====                   =======         ======
           macTxAckReceivedCallback
                                   00013B98        rxStartIsr (mac_rx)
               calls direct
               CSTACK = 00000000 ( 0000000C )
    -------------------------------------------------------------------------
<CODE> 3 (was CODE)
  Relative segment, address: 000155D8 - 000155E1 (0xa bytes), align: 1
  Segment part 16.            Intra module refs:   macTxAckNotReceivedCallback
                                                   macTxAckReceivedCallback
           LOCAL                   ADDRESS         
           =====                   =======         
           ?Subroutine0            000155D8 
    -------------------------------------------------------------------------
<CODE> 3 (was CODE)
  Relative segment, address: 000147B0 - 000147D5 (0x26 bytes), align: 1
  Segment part 14.
           ENTRY                   ADDRESS         REF BY
           =====                   =======         ======
           macTxAckNotReceivedCallback
                                   000147B0        macDualchipTxRequestAckTimeoutCallback (mac_dualchip_tx)
                                                   rxStartIsr (mac_rx)
               calls direct
               CSTACK = 00000000 ( 00000006 )
    -------------------------------------------------------------------------
<CODE> 3 (was CODE)
  Relative segment, address: 000149B0 - 000149D1 (0x22 bytes), align: 1
  Segment part 13.            Intra module refs:   macTxAckNotReceivedCallback
                                                   macTxAckReceivedCallback
                                                   macTxChannelBusyCallback
                                                   macTxDoneCallback
                                                   macTxFrame
                                                   txCsmaGo
           LOCAL                   ADDRESS         
           =====                   =======         
           txComplete              000149B0 
               calls direct
               CSTACK = 00000000 ( 00000006 )

    *************************************************************************

  FILE NAME : C:\Texas Instruments\ZStack-MSP2618-2.5.1\Projects\zstack\HomeAutomation\SampleSwitch\CC2520DB\EndDevice\Obj\nwk_globals.r43
  PROGRAM MODULE, NAME : nwk_globals

  SEGMENTS IN THE MODULE
  ======================
DATA16_C
  Relative segment, address: 3468 - 3469 (0x2 bytes), align: 1
  Segment part 2.
           ENTRY                   ADDRESS         REF BY
           =====                   =======         ======
           gNWK_MAX_DEVICE_LIST    3468            AssocGetWithAddress (APS)
                                                   nwkNeighborFindRandom (APS)
    -------------------------------------------------------------------------
DATA16_C
  Relative segment, address: 3876 - 3876 (0x1 bytes), align: 0
  Segment part 3.
           ENTRY                   ADDRESS         REF BY
           =====                   =======         ======
           gNWK_MAX_SLEEPING_END_DEVICES
                                   3876            nwk_init (APS)
    -------------------------------------------------------------------------
DATA16_C
  Relative segment, address: 3877 - 3877 (0x1 bytes), align: 0
  Segment part 4.
           ENTRY                   ADDRESS         REF BY
           =====                   =======         ======
           gNWK_MAX_DATABUFS_WAITING
                                   3877            nwkDB_Add (APS)
    -------------------------------------------------------------------------
DATA16_C
  Relative segment, address: 3878 - 3878 (0x1 bytes), align: 0
  Segment part 5.
           ENTRY                   ADDRESS         REF BY
           =====                   =======         ======
           gNWK_MAX_DATABUFS_SCHEDULED
                                   3878            nwkDB_Add (APS)
                                                   nwk_MacDataBuffersFull (APS)
    -------------------------------------------------------------------------
DATA16_C
  Relative segment, address: 3879 - 3879 (0x1 bytes), align: 0
  Segment part 7.
           ENTRY                   ADDRESS         REF BY
           =====                   =======         ======
           gNWK_MAX_DATABUFS_TOTAL
                                   3879            nwk_MacDataBuffersFull (APS)
    -------------------------------------------------------------------------
DATA16_I
  Relative segment, address: 1211 - 1211 (0x1 bytes), align: 0
  Segment part 14.
           ENTRY                   ADDRESS         REF BY
           =====                   =======         ======
           gMIN_TREE_LINK_COST     1211            ZDO_beaconNotifyIndCB (ZDApp)
                                                   nwk_ScanJoiningOrphan (APS)
    -------------------------------------------------------------------------
DATA16_Z
  Relative segment, address: 154C - 16C5 (0x17a bytes), align: 1
  Segment part 16.
           ENTRY                   ADDRESS         REF BY
           =====                   =======         ======
           AssociatedDevList       154C            AssocGetWithAddress (APS)
                                                   nwkNeighborFindRandom (APS)
    -------------------------------------------------------------------------
DATA16_C
  Relative segment, address: 346A - 346B (0x2 bytes), align: 1
  Segment part 19.
           ENTRY                   ADDRESS         REF BY
           =====                   =======         ======
           gMAX_RTG_ENTRIES        346A            RTG_AddRtgEntry (APS)
                                                   RTG_GetRtgEntry (APS)
                                                   RTG_nextHopIsBad (APS)
    -------------------------------------------------------------------------
DATA16_C
  Relative segment, address: 387A - 387A (0x1 bytes), align: 0
  Segment part 21.
           ENTRY                   ADDRESS         REF BY
           =====                   =======         ======
           gMAX_RREQ_ENTRIES       387A            RTG_GetRtDiscEntry (APS)
                                                   Segment part 268 (APS)
    -------------------------------------------------------------------------
DATA16_C
  Relative segment, address: 387B - 387B (0x1 bytes), align: 0
  Segment part 22.
           ENTRY                   ADDRESS         REF BY
           =====                   =======         ======
           gMAX_NEIGHBOR_ENTRIES   387B            RTG_AddRtgEntry (APS)
                                                   nwkNeighborChangePANID (APS)
                                                   nwkNeighborCheckAddr (APS)
                                                   nwkNeighborFind (APS)
                                                   nwkNeighborFindEmptySlot (APS)
                                                   nwkNeighborFindRandom (APS)
                                                   nwkNeighborInitTable (APS)
                                                   nwkNeighborKeepPANID (APS)
                                                   nwkNeighborRemoveStranded (APS)
                                                   nwkNeighborUpdateNwkAddr (APS)
    -------------------------------------------------------------------------
DATA16_Z
  Relative segment, address: 16C6 - 1725 (0x60 bytes), align: 1
  Segment part 23.
           ENTRY                   ADDRESS         REF BY
           =====                   =======         ======
           neighborTable           16C6            RTG_AddRtgEntry (APS)
                                                   Segment part 375 (APS)
                                                   Segment part 643 (APS)
                                                   nwkNeighborChangePANID (APS)
                                                   nwkNeighborCheckAddr (APS)
                                                   nwkNeighborFind (APS)
                                                   nwkNeighborFindEmptySlot (APS)
                                                   nwkNeighborFindRandom (APS)
                                                   nwkNeighborKeepPANID (APS)
                                                   nwkNeighborRemoveStranded (APS)
                                                   nwkNeighborUpdateNwkAddr (APS)
    -------------------------------------------------------------------------
DATA16_C
  Relative segment, address: 387C - 387C (0x1 bytes), align: 0
  Segment part 24.
           ENTRY                   ADDRESS         REF BY
           =====                   =======         ======
           gMAX_SOURCE_ROUTE       387C            NLDE_ParseMsg (APS)
                                                   RTG_ValidateSrcRtg (APS)
    -------------------------------------------------------------------------
DATA16_C
  Relative segment, address: 387D - 387D (0x1 bytes), align: 0
  Segment part 25.
           ENTRY                   ADDRESS         REF BY
           =====                   =======         ======
           gMAX_BROADCAST_QUEUED   387D            nwk_broadcastSend (APS)
    -------------------------------------------------------------------------
DATA16_C
  Relative segment, address: 387E - 387E (0x1 bytes), align: 0
  Segment part 26.
           ENTRY                   ADDRESS         REF BY
           =====                   =======         ======
           gLINK_DOWN_TRIGGER      387E            RTG_CheckRtStatus (APS)
                                                   Segment part 383 (APS)
    -------------------------------------------------------------------------
DATA16_Z
  Relative segment, address: 1726 - 1865 (0x140 bytes), align: 1
  Segment part 28.
           ENTRY                   ADDRESS         REF BY
           =====                   =======         ======
           rtgTable                1726            RTG_AddRtgEntry (APS)
                                                   RTG_GetRtgEntry (APS)
                                                   RTG_nextHopIsBad (APS)
    -------------------------------------------------------------------------
DATA16_Z
  Relative segment, address: 1866 - 187D (0x18 bytes), align: 1
  Segment part 30.
           ENTRY                   ADDRESS         REF BY
           =====                   =======         ======
           rtgSrcRelayList         1866            NLDE_ParseMsg (APS)
    -------------------------------------------------------------------------
DATA16_Z
  Relative segment, address: 187E - 18CD (0x50 bytes), align: 1
  Segment part 31.
           ENTRY                   ADDRESS         REF BY
           =====                   =======         ======
           rtDiscTable             187E            RTG_GetRtDiscEntry (APS)
                                                   RTG_UpdateRtDiscEntry (APS)
    -------------------------------------------------------------------------
DATA16_Z
  Relative segment, address: 1A6D - 1A75 (0x9 bytes), align: 0
  Segment part 33.
           ENTRY                   ADDRESS         REF BY
           =====                   =======         ======
           bcastHoldHandle         1A6D            RTG_BcastDel (APS)
    -------------------------------------------------------------------------
DATA16_C
  Relative segment, address: 387F - 387F (0x1 bytes), align: 0
  Segment part 35.
           ENTRY                   ADDRESS         REF BY
           =====                   =======         ======
           gMAX_BCAST              387F            RTG_BcastDel (APS)
    -------------------------------------------------------------------------
DATA16_C
  Relative segment, address: 346C - 346D (0x2 bytes), align: 1
  Segment part 38.
           ENTRY                   ADDRESS         REF BY
           =====                   =======         ======
           gMTO_RREQ_LIMIT_TIME    346C            RTG_MTORouteReq (APS)
    -------------------------------------------------------------------------
DATA16_C
  Relative segment, address: 3880 - 3880 (0x1 bytes), align: 0
  Segment part 39.
           ENTRY                   ADDRESS         REF BY
           =====                   =======         ======
           gMTO_ROUTE_EXPIRY_TIME
                                   3880            RTG_AddRtgEntry (APS)
    -------------------------------------------------------------------------
DATA16_C
  Relative segment, address: 3881 - 3881 (0x1 bytes), align: 0
  Segment part 40.
           ENTRY                   ADDRESS         REF BY
           =====                   =======         ======
           gDEFAULT_ROUTE_REQUEST_RADIUS
                                   3881            NLME_RouteDiscoveryIndication (APS)
    -------------------------------------------------------------------------
DATA16_C
  Relative segment, address: 3882 - 3882 (0x1 bytes), align: 0
  Segment part 41.
           ENTRY                   ADDRESS         REF BY
           =====                   =======         ======
           gDEF_NWK_RADIUS         3882            NLDE_DataReqSend (APS)
                                                   NLME_RouteDiscoveryRequest (APS)
    -------------------------------------------------------------------------
DATA16_C
  Relative segment, address: 346E - 346F (0x2 bytes), align: 1
  Segment part 42.
           ENTRY                   ADDRESS         REF BY
           =====                   =======         ======
           gNWK_MAX_BINDING_ENTRIES
                                   346E            ?Subroutine5 (BindingTable)
                                                   APS_GetBind (APS)
                                                   BindRestoreFromNV (BindingTable)
                                                   BindWriteNV (BindingTable)
                                                   GetBindingTableEntry (BindingTable)
                                                   bindAddEntry (BindingTable)
                                                   bindFind (BindingTable)
                                                   bindFindEmpty (BindingTable)
                                                   bindFindExisting (BindingTable)
                                                   bindNumOfEntries (BindingTable)
                                                   bindNumReflections (BindingTable)
                                                   bindRemoveDev (BindingTable)
    -------------------------------------------------------------------------
DATA16_C
  Relative segment, address: 3883 - 3883 (0x1 bytes), align: 0
  Segment part 43.
           ENTRY                   ADDRESS         REF BY
           =====                   =======         ======
           gMAX_BINDING_CLUSTER_IDS
                                   3883            bindAddClusterIdToList (BindingTable)
                                                   bindAddEntry (BindingTable)
    -------------------------------------------------------------------------
DATA16_C
  Relative segment, address: 3470 - 3471 (0x2 bytes), align: 1
  Segment part 44.
           ENTRY                   ADDRESS         REF BY
           =====                   =======         ======
           gBIND_REC_SIZE          3470            ?Subroutine5 (BindingTable)
                                                   BindInitNV (BindingTable)
                                                   BindRestoreFromNV (BindingTable)
                                                   BindWriteNV (BindingTable)
                                                   bindRemoveEntry (BindingTable)
    -------------------------------------------------------------------------
DATA16_Z
  Relative segment, address: 18CE - 1905 (0x38 bytes), align: 1
  Segment part 45.
           ENTRY                   ADDRESS         REF BY
           =====                   =======         ======
           BindingTable            18CE            BindRestoreFromNV (BindingTable)
                                                   BindWriteNV (BindingTable)
                                                   GetBindingTableEntry (BindingTable)
                                                   InitBindingTable (BindingTable)
                                                   bindAddEntry (BindingTable)
                                                   bindFind (BindingTable)
                                                   bindFindEmpty (BindingTable)
                                                   bindFindExisting (BindingTable)
                                                   bindNumOfEntries (BindingTable)
                                                   bindNumReflections (BindingTable)
                                                   bindRemoveDev (BindingTable)
    -------------------------------------------------------------------------
DATA16_Z
  Relative segment, address: 1906 - 1971 (0x6c bytes), align: 1
  Segment part 47.
           ENTRY                   ADDRESS         REF BY
           =====                   =======         ======
           apsEndDeviceBroadcastTable
                                   1906            APS_EndDeviceBroadcastCheck (APS)
                                                   APS_EndDeviceBroadcastTimer (APS)
                                                   APS_InitEndDeviceBroadcastTable (APS)
    -------------------------------------------------------------------------
DATA16_I
  Relative segment, address: 1212 - 1212 (0x1 bytes), align: 0
  Segment part 48.
           ENTRY                   ADDRESS         REF BY
           =====                   =======         ======
           gAPS_MAX_ENDDEVICE_BROADCAST_ENTRIES
                                   1212            APS_EndDeviceBroadcastCheck (APS)
                                                   APS_EndDeviceBroadcastTimer (APS)
                                                   APS_InitEndDeviceBroadcastTable (APS)
    -------------------------------------------------------------------------
DATA16_C
  Relative segment, address: 3884 - 388D (0xa bytes), align: 0
  Segment part 53.            Intra module refs:   nwk_Status
           ENTRY                   ADDRESS         REF BY
           =====                   =======         ======
           AssocCnfStr             3884 
    -------------------------------------------------------------------------
DATA16_C
  Relative segment, address: 388E - 3895 (0x8 bytes), align: 0
  Segment part 54.            Intra module refs:   nwk_Status
           ENTRY                   ADDRESS         REF BY
           =====                   =======         ======
           SuccessStr              388E 
    -------------------------------------------------------------------------
DATA16_C
  Relative segment, address: 3896 - 38A0 (0xb bytes), align: 0
  Segment part 55.            Intra module refs:   nwk_Status
           ENTRY                   ADDRESS         REF BY
           =====                   =======         ======
           EndDeviceStr            3896 
    -------------------------------------------------------------------------
DATA16_C
  Relative segment, address: 38A1 - 38A8 (0x8 bytes), align: 0
  Segment part 56.            Intra module refs:   nwk_Status
           ENTRY                   ADDRESS         REF BY
           =====                   =======         ======
           ParentStr               38A1 
    -------------------------------------------------------------------------
DATA16_C
  Relative segment, address: 38A9 - 38B7 (0xf bytes), align: 0
  Segment part 65.            Intra module refs:   nwk_Status
           ENTRY                   ADDRESS         REF BY
           =====                   =======         ======
           AssocCnfFailStr         38A9 
    -------------------------------------------------------------------------
DATA16_C
  Relative segment, address: 38B8 - 38C4 (0xd bytes), align: 0
  Segment part 66.            Intra module refs:   nwk_Status
           ENTRY                   ADDRESS         REF BY
           =====                   =======         ======
           EnergyLevelStr          38B8 
    -------------------------------------------------------------------------
DATA16_C
  Relative segment, address: 38C5 - 38D0 (0xc bytes), align: 0
  Segment part 67.            Intra module refs:   nwk_Status
           ENTRY                   ADDRESS         REF BY
           =====                   =======         ======
           ScanFailedStr           38C5 
    -------------------------------------------------------------------------
<CODE> 3 (was CODE)
  Relative segment, address: 000156FA - 00015701 (0x8 bytes), align: 1
  Segment part 71.
           ENTRY                   ADDRESS         REF BY
           =====                   =======         ======
           nwk_globals_init        000156FA        nwk_init (APS)
               calls direct
               CSTACK = 00000000 ( 00000004 )
    -------------------------------------------------------------------------
<CODE> 3 (was CODE)
  Relative segment, address: 00011036 - 00011101 (0xcc bytes), align: 1
  Segment part 70.
           ENTRY                   ADDRESS         REF BY
           =====                   =======         ======
           NIB_init                00011036        nwk_init (APS)
               calls direct
               CSTACK = 00000000 ( 00000004 )
    -------------------------------------------------------------------------
<CODE> 3 (was CODE)
  Relative segment, address: 00012938 - 000129A3 (0x6c bytes), align: 1
  Segment part 69.
           ENTRY                   ADDRESS         REF BY
           =====                   =======         ======
           nwk_Status              00012938        nwk_associate_cnf_processing (APS)
               calls direct
               CSTACK = 00000000 ( 00000006 )
    -------------------------------------------------------------------------
<CODE> 3 (was CODE)
  Relative segment, address: 000157E2 - 000157E3 (0x2 bytes), align: 1
  Segment part 68.
           ENTRY                   ADDRESS         REF BY
           =====                   =======         ======
           nwk_UpdateStatistics    000157E2        APSME_CmdPkt (APS)
                                                   NLDE_DataIndication (APS)
                                                   Segment part 415 (APS)
                                                   nwk_data_ind_processing (APS)
               CSTACK = 00000000 ( 00000004 )
    -------------------------------------------------------------------------
DATA16_ID
  Relative segment, address: 3A29 - 3A29 (0x1 bytes), align: 0
  Segment part 15.            Intra module refs:   gMIN_TREE_LINK_COST
    -------------------------------------------------------------------------
DATA16_ID
  Relative segment, address: 3A2A - 3A2A (0x1 bytes), align: 0
  Segment part 49.            Intra module refs:   gAPS_MAX_ENDDEVICE_BROADCAST_ENTRIES

    *************************************************************************

  FILE NAME : C:\Texas Instruments\ZStack-MSP2618-2.5.1\Projects\zstack\HomeAutomation\SampleSwitch\CC2520DB\EndDevice\Obj\saddr.r43
  PROGRAM MODULE, NAME : saddr

  SEGMENTS IN THE MODULE
  ======================
<CODE> 3 (was CODE)
  Relative segment, address: 0001436E - 0001439B (0x2e bytes), align: 1
  Segment part 6.
           ENTRY                   ADDRESS         REF BY
           =====                   =======         ======
           sAddrCmp                0001436E        macCoordAddrCmp (mac_beacon)
                                                   macRxCoordRealign (mac_beacon)
                                                   macScanRxBeacon (mac_beacon)
               calls direct
               CSTACK = 00000000 ( 00000004 )
    -------------------------------------------------------------------------
<CODE> 3 (was CODE)
  Relative segment, address: 00014FA4 - 00014FBB (0x18 bytes), align: 1
  Segment part 4.
           ENTRY                   ADDRESS         REF BY
           =====                   =======         ======
           sAddrCpy                00014FA4        macBuildAssociateReq (mac_beacon)
                                                   macBuildBeaconNotifyInd (mac_beacon)
                                                   macDisassocComplete (mac_beacon)
                                                   macGetCoordAddress (mac_beacon)
               calls direct
               CSTACK = 00000000 ( 00000004 )
    -------------------------------------------------------------------------
<CODE> 3 (was CODE)
  Relative segment, address: 0001503C - 0001504F (0x14 bytes), align: 1
  Segment part 3.             Intra module refs:   sAddrCmp
           ENTRY                   ADDRESS         REF BY
           =====                   =======         ======
           sAddrExtCmp             0001503C        Segment part 465 (APS)
                                                   Segment part 607 (APS)
                                                   ZDApp_NwkDescListProcessing (ZDApp)
                                                   ZDO_LeaveCnf (ZDApp)
                                                   ZDO_ProcessBindUnbindReq (ZDObject)
                                                   ZDP_NwkAddrReq (ZDProfile)
                                                   zdpProcessAddrReq (ZDProfile)
               CSTACK = 00000000 ( 00000004 )
    -------------------------------------------------------------------------
<CODE> 3 (was CODE)
  Relative segment, address: 00015766 - 0001576B (0x6 bytes), align: 1
  Segment part 2.             Intra module refs:   sAddrCpy
           ENTRY                   ADDRESS         REF BY
           =====                   =======         ======
           sAddrExtCpy             00015766        ?Subroutine15 (ZDApp)
                                                   ?Subroutine9 (MT_ZDO)
                                                   AF_DataRequest (AF)
                                                   APS_GetBind (APS)
                                                   APS_Init (APS)
                                                   AddrMgrExtAddrSet (APS)
                                                   NIB_init (nwk_globals)
                                                   NLDE_BuildMsg (APS)
                                                   NLME_JoinRequest (APS)
                                                   NLME_NetworkReportCB (APS)
                                                   NLME_SendNetworkReport (APS)
                                                   Segment part 215 (APS)
                                                   Segment part 31 (ZDProfile)
                                                   Segment part 472 (APS)
                                                   Segment part 664 (APS)
                                                   Segment part 742 (APS)
                                                   Segment part 782 (APS)
                                                   ZDO_Init (ZDObject)
                                                   ZDO_ParseAddrRsp (ZDObject)
                                                   ZDO_ParseBindUnbindReq (ZDObject)
                                                   ZDO_ProcessBindUnbindReq (ZDObject)
                                                   ZDO_beaconNotifyIndCB (ZDApp)
                                                   ZDP_BindUnbindReq (ZDProfile)
                                                   ZDP_EndDeviceBindReq (ZDProfile)
                                                   ZDP_NwkAddrReq (ZDProfile)
                                                   ZMacGetReq (zmac)
                                                   ZMacSetReq (zmac)
                                                   afCopyAddress (AF)
                                                   bindingAddrMgsHelperConvert (BindingTable)
                                                   macApiAssociateReq (mac_beacon)
                                                   macBuildHeader (mac_beacon)
                                                   macCommStatusInd (mac_beacon)
                                                   macRxDisassoc (mac_beacon)
                                                   nwk_associate_cnf_processing (APS)
                                                   rxAddrIsr (mac_rx)
                                                   zdpProcessAddrReq (ZDProfile)
               calls direct
               CSTACK = 00000000 ( 00000004 )

    *************************************************************************

  FILE NAME : C:\Texas Instruments\ZStack-MSP2618-2.5.1\Projects\zstack\HomeAutomation\SampleSwitch\CC2520DB\EndDevice\Obj\stub_aps.r43
    *************************************************************************

  FILE NAME : C:\Texas Instruments\ZStack-MSP2618-2.5.1\Projects\zstack\HomeAutomation\SampleSwitch\CC2520DB\EndDevice\Obj\zcl.r43
  PROGRAM MODULE, NAME : zcl

  SEGMENTS IN THE MODULE
  ======================
DATA16_Z
  Relative segment, address: 1A76 - 1A76 (0x1 bytes), align: 0
  Segment part 2.             Intra module refs:   zcl_Init
                                                   zcl_event_loop
           ENTRY                   ADDRESS         REF BY
           =====                   =======         ======
           zcl_TaskID              1A76            zclHA_Init (zcl_ha)
    -------------------------------------------------------------------------
DATA16_I
  Relative segment, address: 1213 - 1213 (0x1 bytes), align: 0
  Segment part 3.             Intra module refs:   ?Subroutine5
                                                   zclSendMsg
                                                   zcl_event_loop
                                                   zcl_registerForMsg
           ENTRY                   ADDRESS         REF BY
           =====                   =======         ======
           zcl_RegisteredMsgTaskID
                                   1213 
    -------------------------------------------------------------------------
DATA16_Z
  Relative segment, address: 1972 - 1975 (0x4 bytes), align: 1
  Segment part 5.             Intra module refs:   zclWriteAttrData
           ENTRY                   ADDRESS         REF BY
           =====                   =======         ======
           zcl_ValidateAttrDataCB
                                   1972 
    -------------------------------------------------------------------------
DATA16_Z
  Relative segment, address: 1976 - 1977 (0x2 bytes), align: 1
  Segment part 7.             Intra module refs:   zclProcessMessageMSG
                                                   zcl_Init
                                                   zcl_registerPlugin
           LOCAL                   ADDRESS         
           =====                   =======         
           plugins                 1976 
    -------------------------------------------------------------------------
DATA16_Z
  Relative segment, address: 1978 - 1979 (0x2 bytes), align: 1
  Segment part 8.             Intra module refs:   zclFindAttrRecsList
                                                   zcl_Init
                                                   zcl_registerAttrList
           LOCAL                   ADDRESS         
           =====                   =======         
           attrList                1978 
    -------------------------------------------------------------------------
DATA16_Z
  Relative segment, address: 197A - 197B (0x2 bytes), align: 1
  Segment part 9.             Intra module refs:   zclFindClusterOption
                                                   zcl_Init
           LOCAL                   ADDRESS         
           =====                   =======         
           clusterOptionList       197A 
    -------------------------------------------------------------------------
DATA16_Z
  Relative segment, address: 1A77 - 1A77 (0x1 bytes), align: 0
  Segment part 10.            Intra module refs:   zcl_SendCommand
           LOCAL                   ADDRESS         
           =====                   =======         
           zcl_TransID             1A77 
    -------------------------------------------------------------------------
DATA16_Z
  Relative segment, address: 197C - 197D (0x2 bytes), align: 1
  Segment part 11.            Intra module refs:   zcl_event_loop
           LOCAL                   ADDRESS         
           =====                   =======         
           rawAFMsg                197C 
    -------------------------------------------------------------------------
DATA16_C
  Relative segment, address: 3472 - 34E1 (0x70 bytes), align: 1
  Segment part 12.            Intra module refs:   zclProcessMessageMSG
           LOCAL                   ADDRESS         
           =====                   =======         
           zclCmdTable             3472 
    -------------------------------------------------------------------------
<CODE> 3 (was CODE)
  Relative segment, address: 000152BC - 000152CD (0x12 bytes), align: 1
  Segment part 86.
           ENTRY                   ADDRESS         REF BY
           =====                   =======         ======
           zcl_Init                000152BC        osalInitTasks (OSAL_SampleSw)
               CSTACK = 00000000 ( 00000004 )
    -------------------------------------------------------------------------
<CODE> 3 (was CODE)
  Relative segment, address: 00013630 - 0001367D (0x4e bytes), align: 1
  Segment part 84.
           ENTRY                   ADDRESS         REF BY
           =====                   =======         ======
           zcl_event_loop          00013630        tasksArr (OSAL_SampleSw)
               calls direct
               CSTACK = 00000000 ( 00000008 )
    -------------------------------------------------------------------------
<CODE> 3 (was CODE)
  Relative segment, address: 0001565A - 00015663 (0xa bytes), align: 1
  Segment part 85.            Intra module refs:   zclSendMsg
                                                   zcl_event_loop
           LOCAL                   ADDRESS         
           =====                   =======         
           ?Subroutine5            0001565A 
    -------------------------------------------------------------------------
<CODE> 3 (was CODE)
  Relative segment, address: 00013546 - 00013593 (0x4e bytes), align: 1
  Segment part 80.
           ENTRY                   ADDRESS         REF BY
           =====                   =======         ======
           zcl_registerPlugin      00013546        zclGeneral_RegisterCmdCallbacks (zcl_general)
               calls direct
               CSTACK = 00000000 ( 0000000C )
    -------------------------------------------------------------------------
<CODE> 3 (was CODE)
  Relative segment, address: 00015446 - 0001544B (0x6 bytes), align: 1
  Segment part 81.            Intra module refs:   zclParseInReadCmd
                                                   zclParseInWriteRspCmd
           LOCAL                   ADDRESS         
           =====                   =======         
           ?Subroutine9            00015446 
    -------------------------------------------------------------------------
<CODE> 3 (was CODE)
  Relative segment, address: 0001544C - 00015453 (0x8 bytes), align: 1
  Segment part 82.            Intra module refs:   ?Subroutine9
                                                   zclParseInDefaultRspCmd
                                                   zcl_registerAttrList
                                                   zcl_registerPlugin
    -------------------------------------------------------------------------
<CODE> 3 (was CODE)
  Relative segment, address: 000134A8 - 000134F7 (0x50 bytes), align: 1
  Segment part 79.
           ENTRY                   ADDRESS         REF BY
           =====                   =======         ======
           zcl_registerAttrList    000134A8        zclSampleSw_Init (zcl_samplesw)
               calls direct
               CSTACK = 00000000 ( 0000000C )
    -------------------------------------------------------------------------
<CODE> 3 (was CODE)
  Relative segment, address: 000152AA - 000152BB (0x12 bytes), align: 1
  Segment part 75.
           ENTRY                   ADDRESS         REF BY
           =====                   =======         ======
           zcl_registerForMsg      000152AA        zclSampleSw_Init (zcl_samplesw)
               CSTACK = 00000000 ( 00000004 )
    -------------------------------------------------------------------------
<CODE> 3 (was CODE)
  Relative segment, address: 00013838 - 0001387F (0x48 bytes), align: 1
  Segment part 71.            Intra module refs:   zclProcessMessageMSG
                                                   zcl_SendCommand
           LOCAL                   ADDRESS         
           =====                   =======         
           zcl_DeviceOperational   00013838 
               calls direct
               CSTACK = 00000000 ( 0000000E )
    -------------------------------------------------------------------------
<CODE> 3 (was CODE)
  Relative segment, address: 0001522C - 0001522D (0x2 bytes), align: 1
  Segment part 72.            Intra module refs:   zclProcessInWriteCmd
                                                   zclProcessInWriteUndividedCmd
           LOCAL                   ADDRESS         
           =====                   =======         
           ?Subroutine10           0001522C 
    -------------------------------------------------------------------------
<CODE> 3 (was CODE)
  Relative segment, address: 0001522E - 00015235 (0x8 bytes), align: 1
  Segment part 73.            Intra module refs:   ?Subroutine10
                                                   zclRevertWriteUndividedCmd
    -------------------------------------------------------------------------
<CODE> 3 (was CODE)
  Relative segment, address: 00015236 - 0001523D (0x8 bytes), align: 1
  Segment part 74.            Intra module refs:   Segment part 73
                                                   zclProcessInReadCmd
                                                   zclProcessInWriteUndividedCmd
                                                   zcl_DeviceOperational
    -------------------------------------------------------------------------
<CODE> 1 (was CODE)
  Relative segment, address: 9E46 - 9F21 (0xdc bytes), align: 1
  Segment part 17.            Intra module refs:   zclCmdTable
           LOCAL                   ADDRESS         
           =====                   =======         
           zclProcessInWriteCmd    9E46 
               calls direct
               CSTACK = 00000000 ( 00000022 )
    -------------------------------------------------------------------------
<CODE> 1 (was CODE)
  Relative segment, address: 9F22 - 9F27 (0x6 bytes), align: 1
  Segment part 18.            Intra module refs:   zclProcessInReadCmd
                                                   zclProcessInWriteCmd
                                                   zcl_SendCommand
           LOCAL                   ADDRESS         
           =====                   =======         
           ?Subroutine1            9F22 
    -------------------------------------------------------------------------
<CODE> 1 (was CODE)
  Relative segment, address: 9F28 - 9F35 (0xe bytes), align: 1
  Segment part 19.            Intra module refs:   zclProcessInWriteCmd
                                                   zclProcessInWriteUndividedCmd
           LOCAL                   ADDRESS         
           =====                   =======         
           ?Subroutine16           9F28 
    -------------------------------------------------------------------------
<CODE> 1 (was CODE)
  Relative segment, address: 9F36 - 9F43 (0xe bytes), align: 1
  Segment part 20.            Intra module refs:   zclProcessInWriteCmd
                                                   zclProcessInWriteUndividedCmd
           LOCAL                   ADDRESS         
           =====                   =======         
           ?Subroutine15           9F36 
    -------------------------------------------------------------------------
<CODE> 1 (was CODE)
  Relative segment, address: 9F44 - 9F4D (0xa bytes), align: 1
  Segment part 21.            Intra module refs:   zclProcessInWriteCmd
                                                   zclProcessInWriteUndividedCmd
           LOCAL                   ADDRESS         
           =====                   =======         
           ?Subroutine6            9F44 
    -------------------------------------------------------------------------
<CODE> 1 (was CODE)
  Relative segment, address: 9F4E - A02B (0xde bytes), align: 1
  Segment part 22.            Intra module refs:   zclCmdTable
           LOCAL                   ADDRESS         
           =====                   =======         
           zclProcessInReadCmd     9F4E 
               calls direct and indirect
               CSTACK = 00000000 ( 00000022 )
    -------------------------------------------------------------------------
<CODE> 1 (was CODE)
  Relative segment, address: A02C - A02F (0x4 bytes), align: 1
  Segment part 23.            Intra module refs:   zclAuthorizeWrite
                                                   zclProcessInReadCmd
           LOCAL                   ADDRESS         
           =====                   =======         
           ?Subroutine4            A02C 
    -------------------------------------------------------------------------
<CODE> 1 (was CODE)
  Relative segment, address: A030 - A03B (0xc bytes), align: 1
  Segment part 24.            Intra module refs:   ?Subroutine4
                                                   zclGetAttrDataLengthUsingCB
                                                   zclWriteAttrDataUsingCB
    -------------------------------------------------------------------------
<CODE> 1 (was CODE)
  Relative segment, address: A03C - A055 (0x1a bytes), align: 1
  Segment part 25.            Intra module refs:   zclCmdTable
           LOCAL                   ADDRESS         
           =====                   =======         
           zclParseInDefaultRspCmd
                                   A03C 
               calls direct
               CSTACK = 00000000 ( 00000006 )
    -------------------------------------------------------------------------
<CODE> 1 (was CODE)
  Relative segment, address: A056 - A0A7 (0x52 bytes), align: 1
  Segment part 26.            Intra module refs:   zclCmdTable
           LOCAL                   ADDRESS         
           =====                   =======         
           zclParseInWriteRspCmd   A056 
               calls direct
               CSTACK = 00000000 ( 0000000C )
    -------------------------------------------------------------------------
<CODE> 1 (was CODE)
  Relative segment, address: A0A8 - A0E9 (0x42 bytes), align: 1
  Segment part 27.            Intra module refs:   zclCmdTable
           ENTRY                   ADDRESS         REF BY
           =====                   =======         ======
           zclParseInWriteCmd      A0A8 
               calls direct
               CSTACK = 00000000 ( 00000014 )
    -------------------------------------------------------------------------
<CODE> 1 (was CODE)
  Relative segment, address: A0EA - A0EF (0x6 bytes), align: 1
  Segment part 28.            Intra module refs:   zclParseInReadRspCmd
                                                   zclParseInWriteCmd
           LOCAL                   ADDRESS         
           =====                   =======         
           ?Subroutine2            A0EA 
    -------------------------------------------------------------------------
<CODE> 1 (was CODE)
  Relative segment, address: A0F0 - A0F9 (0xa bytes), align: 1
  Segment part 29.            Intra module refs:   zclParseInReadRspCmd
                                                   zclParseInWriteCmd
           LOCAL                   ADDRESS         
           =====                   =======         
           ?Subroutine8            A0F0 
    -------------------------------------------------------------------------
<CODE> 1 (was CODE)
  Relative segment, address: A0FA - A103 (0xa bytes), align: 1
  Segment part 30.            Intra module refs:   ?Subroutine8
                                                   zcl_SendCommand
                                                   zcl_SendReadRsp
    -------------------------------------------------------------------------
<CODE> 1 (was CODE)
  Relative segment, address: A104 - A157 (0x54 bytes), align: 1
  Segment part 31.            Intra module refs:   zclCmdTable
           LOCAL                   ADDRESS         
           =====                   =======         
           zclParseInReadRspCmd    A104 
               calls direct
               CSTACK = 00000000 ( 00000014 )
    -------------------------------------------------------------------------
<CODE> 1 (was CODE)
  Relative segment, address: A158 - A169 (0x12 bytes), align: 1
  Segment part 32.            Intra module refs:   zclParseInReadRspCmd
                                                   zclParseInWriteCmd
           LOCAL                   ADDRESS         
           =====                   =======         
           ?Subroutine18           A158 
    -------------------------------------------------------------------------
<CODE> 1 (was CODE)
  Relative segment, address: A16A - A18D (0x24 bytes), align: 1
  Segment part 33.            Intra module refs:   zclParseInReadRspCmd
                                                   zclParseInWriteCmd
           LOCAL                   ADDRESS         
           =====                   =======         
           ?Subroutine13           A16A 
    -------------------------------------------------------------------------
<CODE> 1 (was CODE)
  Relative segment, address: A18E - A1A3 (0x16 bytes), align: 1
  Segment part 34.            Intra module refs:   zclParseInReadRspCmd
                                                   zclParseInWriteCmd
           LOCAL                   ADDRESS         
           =====                   =======         
           ?Subroutine12           A18E 
    -------------------------------------------------------------------------
<CODE> 1 (was CODE)
  Relative segment, address: A1A4 - A1C3 (0x20 bytes), align: 1
  Segment part 35.            Intra module refs:   zclParseInReadRspCmd
                                                   zclParseInWriteCmd
           LOCAL                   ADDRESS         
           =====                   =======         
           ?Subroutine11           A1A4 
    -------------------------------------------------------------------------
<CODE> 1 (was CODE)
  Relative segment, address: A1C4 - A203 (0x40 bytes), align: 1
  Segment part 36.            Intra module refs:   zclCmdTable
           ENTRY                   ADDRESS         REF BY
           =====                   =======         ======
           zclParseInReadCmd       A1C4 
               calls direct
               CSTACK = 00000000 ( 00000008 )
    -------------------------------------------------------------------------
<CODE> 1 (was CODE)
  Relative segment, address: A204 - A229 (0x26 bytes), align: 1
  Segment part 37.            Intra module refs:   zclWriteAttrData
                                                   zclWriteAttrDataUsingCB
           LOCAL                   ADDRESS         
           =====                   =======         
           zclAuthorizeWrite       A204 
               calls direct and indirect
               CSTACK = 00000000 ( 0000000C )
    -------------------------------------------------------------------------
<CODE> 1 (was CODE)
  Relative segment, address: A22A - A26D (0x44 bytes), align: 1
  Segment part 38.            Intra module refs:   ?Subroutine16
                                                   zclRevertWriteUndividedCmd
           LOCAL                   ADDRESS         
           =====                   =======         
           zclWriteAttrDataUsingCB
                                   A22A 
               calls direct and indirect
               CSTACK = 00000000 ( 0000000E )
    -------------------------------------------------------------------------
<CODE> 1 (was CODE)
  Relative segment, address: A26E - A2C7 (0x5a bytes), align: 1
  Segment part 39.            Intra module refs:   ?Subroutine15
           LOCAL                   ADDRESS         
           =====                   =======         
           zclWriteAttrData        A26E 
               calls direct and indirect
               CSTACK = 00000000 ( 0000000C )
    -------------------------------------------------------------------------
<CODE> 1 (was CODE)
  Relative segment, address: A2C8 - A305 (0x3e bytes), align: 1
  Segment part 40.            Intra module refs:   zclProcessInWriteUndividedCmd
                                                   zcl_SendReadRsp
           LOCAL                   ADDRESS         
           =====                   =======         
           zclReadAttrDataUsingCB
                                   A2C8 
               calls direct and indirect
               CSTACK = 00000000 ( 00000012 )
    -------------------------------------------------------------------------
<CODE> 1 (was CODE)
  Relative segment, address: A306 - A337 (0x32 bytes), align: 1
  Segment part 41.            Intra module refs:   zclProcessInWriteUndividedCmd
                                                   zcl_SendReadRsp
           LOCAL                   ADDRESS         
           =====                   =======         
           zclGetAttrDataLengthUsingCB
                                   A306 
               calls direct and indirect
               CSTACK = 00000000 ( 00000010 )
    -------------------------------------------------------------------------
<CODE> 1 (was CODE)
  Relative segment, address: A338 - A367 (0x30 bytes), align: 1
  Segment part 42.            Intra module refs:   zclProcessInWriteUndividedCmd
                                                   zcl_DeviceOperational
           ENTRY                   ADDRESS         REF BY
           =====                   =======         ======
           zclReadAttrData         A338            zclGeneral_ProcessInIdentity (zcl_general)
               calls direct
               CSTACK = 00000000 ( 0000000C )
    -------------------------------------------------------------------------
<CODE> 1 (was CODE)
  Relative segment, address: A368 - A39D (0x36 bytes), align: 1
  Segment part 43.            Intra module refs:   ?Subroutine11
                                                   ?Subroutine12
                                                   zclProcessInWriteUndividedCmd
                                                   zclReadAttrData
                                                   zclRevertWriteUndividedCmd
                                                   zclWriteAttrData
                                                   zcl_SendReadRsp
           ENTRY                   ADDRESS         REF BY
           =====                   =======         ======
           zclGetAttrDataLength    A368 
               calls direct
               CSTACK = 00000000 ( 00000004 )
    -------------------------------------------------------------------------
<CODE> 1 (was CODE)
  Relative segment, address: A39E - A475 (0xd8 bytes), align: 1
  Segment part 44.            Intra module refs:   zclGetAttrDataLength
           ENTRY                   ADDRESS         REF BY
           =====                   =======         ======
           zclGetDataTypeLength    A39E 
               CSTACK = 00000000 ( 00000004 )
    -------------------------------------------------------------------------
<CODE> 1 (was CODE)
  Relative segment, address: A476 - A573 (0xfe bytes), align: 1
  Segment part 45.            Intra module refs:   zcl_SendReadRsp
           ENTRY                   ADDRESS         REF BY
           =====                   =======         ======
           zclSerializeData        A476 
               calls direct
               CSTACK = 00000000 ( 00000004 )
    -------------------------------------------------------------------------
<CODE> 1 (was CODE)
  Relative segment, address: A574 - A583 (0x10 bytes), align: 1
  Segment part 46.            Intra module refs:   zclSerializeData
           LOCAL                   ADDRESS         
           =====                   =======         
           ?Subroutine21           A574 
    -------------------------------------------------------------------------
<CODE> 1 (was CODE)
  Relative segment, address: A584 - A5A5 (0x22 bytes), align: 1
  Segment part 47.            Intra module refs:   zclProcessMessageMSG
           LOCAL                   ADDRESS         
           =====                   =======         
           zclSetSecurityOption    A584 
               calls direct
               CSTACK = 00000000 ( 00000006 )
    -------------------------------------------------------------------------
<CODE> 1 (was CODE)
  Relative segment, address: A5A6 - A5BB (0x16 bytes), align: 1
  Segment part 48.            Intra module refs:   zclProcessMessageMSG
                                                   zcl_SendCommand
           LOCAL                   ADDRESS         
           =====                   =======         
           zclGetClusterOption     A5A6 
               calls direct
               CSTACK = 00000000 ( 00000004 )
    -------------------------------------------------------------------------
<CODE> 1 (was CODE)
  Relative segment, address: A5BC - A5F5 (0x3a bytes), align: 1
  Segment part 49.            Intra module refs:   zclGetClusterOption
                                                   zclSetSecurityOption
           LOCAL                   ADDRESS         
           =====                   =======         
           zclFindClusterOption    A5BC 
               CSTACK = 00000000 ( 00000008 )
    -------------------------------------------------------------------------
<CODE> 1 (was CODE)
  Relative segment, address: A5F6 - A609 (0x14 bytes), align: 1
  Segment part 50.            Intra module refs:   ?Subroutine4
           LOCAL                   ADDRESS         
           =====                   =======         
           zclGetAuthorizeCB       A5F6 
               calls direct
               CSTACK = 00000000 ( 00000004 )
    -------------------------------------------------------------------------
<CODE> 1 (was CODE)
  Relative segment, address: A60A - A60F (0x6 bytes), align: 1
  Segment part 51.            Intra module refs:   zclGetAuthorizeCB
                                                   zclGetReadWriteCB
           LOCAL                   ADDRESS         
           =====                   =======         
           ?Subroutine3            A60A 
    -------------------------------------------------------------------------
<CODE> 1 (was CODE)
  Relative segment, address: A610 - A625 (0x16 bytes), align: 1
  Segment part 52.            Intra module refs:   zclGetAttrDataLengthUsingCB
                                                   zclReadAttrDataUsingCB
                                                   zclWriteAttrDataUsingCB
           LOCAL                   ADDRESS         
           =====                   =======         
           zclGetReadWriteCB       A610 
               calls direct
               CSTACK = 00000000 ( 00000004 )
    -------------------------------------------------------------------------
<CODE> 1 (was CODE)
  Relative segment, address: A626 - A671 (0x4c bytes), align: 1
  Segment part 53.            Intra module refs:   Segment part 74
           ENTRY                   ADDRESS         REF BY
           =====                   =======         ======
           zclFindAttrRec          A626            zclGeneral_ProcessInIdentity (zcl_general)
               calls direct
               CSTACK = 00000000 ( 0000000C )
    -------------------------------------------------------------------------
<CODE> 1 (was CODE)
  Relative segment, address: A672 - A68B (0x1a bytes), align: 1
  Segment part 54.            Intra module refs:   zclFindAttrRec
                                                   zclGetAuthorizeCB
                                                   zclGetReadWriteCB
           LOCAL                   ADDRESS         
           =====                   =======         
           zclFindAttrRecsList     A672 
               CSTACK = 00000000 ( 00000004 )
    -------------------------------------------------------------------------
<CODE> 1 (was CODE)
  Relative segment, address: A68C - A6DB (0x50 bytes), align: 1
  Segment part 55.            Intra module refs:   zcl_SendCommand
           LOCAL                   ADDRESS         
           =====                   =======         
           zclBuildHdr             A68C 
               CSTACK = 00000000 ( 00000004 )
    -------------------------------------------------------------------------
<CODE> 1 (was CODE)
  Relative segment, address: A6DC - A767 (0x8c bytes), align: 1
  Segment part 56.            Intra module refs:   zclProcessMessageMSG
           ENTRY                   ADDRESS         REF BY
           =====                   =======         ======
           zclParseHdr             A6DC 
               calls direct
               CSTACK = 00000000 ( 00000008 )
    -------------------------------------------------------------------------
<CODE> 1 (was CODE)
  Relative segment, address: A768 - A9B9 (0x252 bytes), align: 1
  Segment part 57.            Intra module refs:   zcl_event_loop
           ENTRY                   ADDRESS         REF BY
           =====                   =======         ======
           zclProcessMessageMSG    A768 
               calls direct and indirect
               CSTACK = 00000000 ( 0000002E )
    -------------------------------------------------------------------------
<CODE> 1 (was CODE)
  Relative segment, address: A9BA - A9C9 (0x10 bytes), align: 1
  Segment part 58.            Intra module refs:   zclProcessInWriteUndividedCmd
                                                   zclProcessMessageMSG
           LOCAL                   ADDRESS         
           =====                   =======         
           ?Subroutine17           A9BA 
    -------------------------------------------------------------------------
<CODE> 1 (was CODE)
  Relative segment, address: A9CA - AA09 (0x40 bytes), align: 1
  Segment part 59.            Intra module refs:   zclProcessMessageMSG
           ENTRY                   ADDRESS         REF BY
           =====                   =======         ======
           zcl_SendDefaultRspCmd   A9CA 
               calls direct
               CSTACK = 00000000 ( 0000001C )
    -------------------------------------------------------------------------
<CODE> 1 (was CODE)
  Relative segment, address: AA0A - AA79 (0x70 bytes), align: 1
  Segment part 60.            Intra module refs:   zclProcessInWriteCmd
                                                   zclProcessInWriteUndividedCmd
           ENTRY                   ADDRESS         REF BY
           =====                   =======         ======
           zcl_SendWriteRsp        AA0A 
               calls direct
               CSTACK = 00000000 ( 00000024 )
    -------------------------------------------------------------------------
<CODE> 1 (was CODE)
  Relative segment, address: AA7A - AA81 (0x8 bytes), align: 1
  Segment part 61.            Intra module refs:   zcl_SendWriteRsp
           LOCAL                   ADDRESS         
           =====                   =======         
           ?Subroutine0            AA7A 
    -------------------------------------------------------------------------
<CODE> 1 (was CODE)
  Relative segment, address: AA82 - AB7B (0xfa bytes), align: 1
  Segment part 63.            Intra module refs:   zclProcessInReadCmd
           ENTRY                   ADDRESS         REF BY
           =====                   =======         ======
           zcl_SendReadRsp         AA82 
               calls direct
               CSTACK = 00000000 ( 00000026 )
    -------------------------------------------------------------------------
<CODE> 1 (was CODE)
  Relative segment, address: AB7C - AB7D (0x2 bytes), align: 1
  Segment part 64.            Intra module refs:   zcl_SendCommand
                                                   zcl_SendReadRsp
           LOCAL                   ADDRESS         
           =====                   =======         
           ?Subroutine14           AB7C 
    -------------------------------------------------------------------------
<CODE> 1 (was CODE)
  Relative segment, address: AB7E - AB83 (0x6 bytes), align: 1
  Segment part 65.            Intra module refs:   ?Subroutine14
                                                   zclProcessInWriteCmd
    -------------------------------------------------------------------------
<CODE> 1 (was CODE)
  Relative segment, address: AB84 - AB95 (0x12 bytes), align: 1
  Segment part 67.            Intra module refs:   zcl_SendWriteRsp
           LOCAL                   ADDRESS         
           =====                   =======         
           ?Subroutine22           AB84 
    -------------------------------------------------------------------------
<CODE> 1 (was CODE)
  Relative segment, address: AB96 - ABA9 (0x14 bytes), align: 1
  Segment part 68.            Intra module refs:   zcl_SendWriteRsp
           LOCAL                   ADDRESS         
           =====                   =======         
           ?Subroutine20           AB96 
    -------------------------------------------------------------------------
<CODE> 1 (was CODE)
  Relative segment, address: ABAA - ABB5 (0xc bytes), align: 1
  Segment part 69.            Intra module refs:   zcl_SendWriteRsp
           LOCAL                   ADDRESS         
           =====                   =======         
           ?Subroutine19           ABAA 
    -------------------------------------------------------------------------
<CODE> 1 (was CODE)
  Relative segment, address: ABB6 - ACC3 (0x10e bytes), align: 1
  Segment part 70.            Intra module refs:   ?Subroutine19
                                                   zcl_SendDefaultRspCmd
                                                   zcl_SendReadRsp
           ENTRY                   ADDRESS         REF BY
           =====                   =======         ======
           zcl_SendCommand         ABB6            ?Subroutine0 (zcl_general)
                                                   zclSampleSw_HandleKeys (zcl_samplesw)
               calls direct
               CSTACK = 00000000 ( 00000024 )
    -------------------------------------------------------------------------
<CODE> 3 (was CODE)
  Relative segment, address: 00012A7A - 00012AE3 (0x6a bytes), align: 1
  Segment part 16.            Intra module refs:   zclProcessInWriteUndividedCmd
           LOCAL                   ADDRESS         
           =====                   =======         
           zclRevertWriteUndividedCmd
                                   00012A7A 
               calls direct
               CSTACK = 00000000 ( 00000018 )
    -------------------------------------------------------------------------
<CODE> 1 (was CODE)
  Relative segment, address: DC66 - DE1D (0x1b8 bytes), align: 1
  Segment part 14.            Intra module refs:   zclCmdTable
           LOCAL                   ADDRESS         
           =====                   =======         
           zclProcessInWriteUndividedCmd
                                   DC66 
               calls direct
               CSTACK = 00000000 ( 00000026 )
    -------------------------------------------------------------------------
<CODE> 3 (was CODE)
  Relative segment, address: 00014F74 - 00014F8B (0x18 bytes), align: 1
  Segment part 15.            Intra module refs:   zclProcessInWriteUndividedCmd
           LOCAL                   ADDRESS         
           =====                   =======         
           ?Subroutine7            00014F74 
    -------------------------------------------------------------------------
<CODE> 3 (was CODE)
  Relative segment, address: 00012DB2 - 00012E13 (0x62 bytes), align: 1
  Segment part 13.            Intra module refs:   zclCmdTable
           LOCAL                   ADDRESS         
           =====                   =======         
           zclSendMsg              00012DB2 
               calls direct
               CSTACK = 00000000 ( 00000008 )
    -------------------------------------------------------------------------
DATA16_ID
  Relative segment, address: 3A2B - 3A2B (0x1 bytes), align: 0
  Segment part 4.             Intra module refs:   zcl_RegisteredMsgTaskID

    *************************************************************************

  FILE NAME : C:\Texas Instruments\ZStack-MSP2618-2.5.1\Projects\zstack\HomeAutomation\SampleSwitch\CC2520DB\EndDevice\Obj\zcl_general.r43
  PROGRAM MODULE, NAME : zcl_general

  SEGMENTS IN THE MODULE
  ======================
DATA16_Z
  Relative segment, address: 197E - 197F (0x2 bytes), align: 1
  Segment part 2.             Intra module refs:   zclGeneral_HdlInSpecificCommands
                                                   zclGeneral_RegisterCmdCallbacks
           LOCAL                   ADDRESS         
           =====                   =======         
           zclGenCBs               197E 
    -------------------------------------------------------------------------
DATA16_Z
  Relative segment, address: 1A78 - 1A78 (0x1 bytes), align: 0
  Segment part 3.             Intra module refs:   zclGeneral_RegisterCmdCallbacks
           LOCAL                   ADDRESS         
           =====                   =======         
           zclGenPluginRegisted    1A78 
    -------------------------------------------------------------------------
<CODE> 3 (was CODE)
  Relative segment, address: 00012E14 - 00012E73 (0x60 bytes), align: 1
  Segment part 11.
           ENTRY                   ADDRESS         REF BY
           =====                   =======         ======
           zclGeneral_RegisterCmdCallbacks
                                   00012E14        zclSampleSw_Init (zcl_samplesw)
               calls direct
               CSTACK = 00000000 ( 00000008 )
    -------------------------------------------------------------------------
<CODE> 3 (was CODE)
  Relative segment, address: 00013ADE - 00013AF1 (0x14 bytes), align: 1
  Segment part 7.             Intra module refs:   zclGeneral_ProcessInIdentity
           ENTRY                   ADDRESS         REF BY
           =====                   =======         ======
           zclGeneral_SendIdentifyQueryResponse
                                   00013ADE 
               calls direct
               CSTACK = 00000000 ( 00000016 )
    -------------------------------------------------------------------------
<CODE> 3 (was CODE)
  Relative segment, address: 00013AF2 - 00013B05 (0x14 bytes), align: 1
  Segment part 8.             Intra module refs:   zclGeneral_SendIdentifyQueryResponse
           LOCAL                   ADDRESS         
           =====                   =======         
           ?Subroutine0            00013AF2 
    -------------------------------------------------------------------------
<CODE> 3 (was CODE)
  Relative segment, address: 00013B06 - 00013B1B (0x16 bytes), align: 1
  Segment part 10.            Intra module refs:   zclGeneral_SendIdentifyQueryResponse
           LOCAL                   ADDRESS         
           =====                   =======         
           ?Subroutine1            00013B06 
    -------------------------------------------------------------------------
<CODE> 3 (was CODE)
  Relative segment, address: 00015014 - 00015027 (0x14 bytes), align: 1
  Segment part 6.             Intra module refs:   zclGeneral_RegisterCmdCallbacks
           LOCAL                   ADDRESS         
           =====                   =======         
           zclGeneral_HdlIncoming
                                   00015014 
               calls direct
               CSTACK = 00000000 ( 00000004 )
    -------------------------------------------------------------------------
<CODE> 3 (was CODE)
  Relative segment, address: 000122A6 - 0001232D (0x88 bytes), align: 1
  Segment part 5.             Intra module refs:   zclGeneral_HdlIncoming
           LOCAL                   ADDRESS         
           =====                   =======         
           zclGeneral_HdlInSpecificCommands
                                   000122A6 
               calls direct and indirect
               CSTACK = 00000000 ( 00000004 )
    -------------------------------------------------------------------------
<CODE> 3 (was CODE)
  Relative segment, address: 000111C8 - 00011289 (0xc2 bytes), align: 1
  Segment part 4.             Intra module refs:   zclGeneral_HdlInSpecificCommands
           LOCAL                   ADDRESS         
           =====                   =======         
           zclGeneral_ProcessInIdentity
                                   000111C8 
               calls direct and indirect
               CSTACK = 00000000 ( 0000001C )

    *************************************************************************

  FILE NAME : C:\Texas Instruments\ZStack-MSP2618-2.5.1\Projects\zstack\HomeAutomation\SampleSwitch\CC2520DB\EndDevice\Obj\zcl_ha.r43
  PROGRAM MODULE, NAME : zcl_ha

  SEGMENTS IN THE MODULE
  ======================
<CODE> 3 (was CODE)
  Relative segment, address: 00014670 - 00014697 (0x28 bytes), align: 1
  Segment part 2.
           ENTRY                   ADDRESS         REF BY
           =====                   =======         ======
           zclHA_Init              00014670        zclSampleSw_Init (zcl_samplesw)
               calls direct
               CSTACK = 00000000 ( 00000006 )

    *************************************************************************

  FILE NAME : C:\Texas Instruments\ZStack-MSP2618-2.5.1\Projects\zstack\HomeAutomation\SampleSwitch\CC2520DB\EndDevice\Obj\zcl_samplesw.r43
  PROGRAM MODULE, NAME : zcl_samplesw

  SEGMENTS IN THE MODULE
  ======================
DATA16_Z
  Relative segment, address: 1A79 - 1A79 (0x1 bytes), align: 0
  Segment part 2.             Intra module refs:   Segment part 7
                                                   zclSampleSw_Init
                                                   zclSampleSw_ProcessIdentifyTimeChange
                                                   zclSampleSw_event_loop
           ENTRY                   ADDRESS         REF BY
           =====                   =======         ======
           zclSampleSw_TaskID      1A79 
    -------------------------------------------------------------------------
DATA16_Z
  Relative segment, address: 1980 - 198B (0xc bytes), align: 1
  Segment part 3.             Intra module refs:   zclSampleSw_HandleKeys
                                                   zclSampleSw_Init
                                                   zclSampleSw_ProcessZDOMsgs
           LOCAL                   ADDRESS         
           =====                   =======         
           zclSampleSw_DstAddr     1980 
    -------------------------------------------------------------------------
DATA16_I
  Relative segment, address: 119E - 119F (0x2 bytes), align: 1
  Segment part 4.             Intra module refs:   zclSampleSw_HandleKeys
           LOCAL                   ADDRESS         
           =====                   =======         
           bindingOutClusters      119E 
    -------------------------------------------------------------------------
DATA16_I
  Relative segment, address: 11A0 - 11A7 (0x8 bytes), align: 1
  Segment part 6.             Intra module refs:   zclSampleSw_Init
           LOCAL                   ADDRESS         
           =====                   =======         
           sampleSw_TestEp         11A0 
    -------------------------------------------------------------------------
DATA16_I
  Relative segment, address: 11A8 - 11E3 (0x3c bytes), align: 1
  Segment part 8.             Intra module refs:   zclSampleSw_Init
           LOCAL                   ADDRESS         
           =====                   =======         
           zclSampleSw_CmdCallbacks
                                   11A8 
    -------------------------------------------------------------------------
<CODE> 3 (was CODE)
  Relative segment, address: 00012C1E - 00012C83 (0x66 bytes), align: 1
  Segment part 20.
           ENTRY                   ADDRESS         REF BY
           =====                   =======         ======
           zclSampleSw_Init        00012C1E        osalInitTasks (OSAL_SampleSw)
               calls direct
               CSTACK = 00000000 ( 00000006 )
    -------------------------------------------------------------------------
<CODE> 3 (was CODE)
  Relative segment, address: 00012AE4 - 00012B4D (0x6a bytes), align: 1
  Segment part 19.
           ENTRY                   ADDRESS         REF BY
           =====                   =======         ======
           zclSampleSw_event_loop
                                   00012AE4        tasksArr (OSAL_SampleSw)
               calls direct
               CSTACK = 00000000 ( 00000008 )
    -------------------------------------------------------------------------
<CODE> 3 (was CODE)
  Relative segment, address: 00015712 - 00015713 (0x2 bytes), align: 1
  Segment part 16.            Intra module refs:   zclSampleSw_HandleKeys
                                                   zclSampleSw_ProcessZDOMsgs
           LOCAL                   ADDRESS         
           =====                   =======         
           ?Subroutine0            00015712 
    -------------------------------------------------------------------------
<CODE> 3 (was CODE)
  Relative segment, address: 00015714 - 00015719 (0x6 bytes), align: 1
  Segment part 17.            Intra module refs:   ?Subroutine0
                                                   zclSampleSw_HandleKeys
                                                   zclSampleSw_ProcessIdentifyTimeChange
                                                   zclSampleSw_ProcessZDOMsgs
    -------------------------------------------------------------------------
<CODE> 3 (was CODE)
  Relative segment, address: 00013044 - 0001309F (0x5c bytes), align: 1
  Segment part 18.            Intra module refs:   zclSampleSw_event_loop
           LOCAL                   ADDRESS         
           =====                   =======         
           zclSampleSw_ProcessZDOMsgs
                                   00013044 
               calls direct
               CSTACK = 00000000 ( 00000006 )
    -------------------------------------------------------------------------
<CODE> 3 (was CODE)
  Relative segment, address: 00011B8C - 00011C31 (0xa6 bytes), align: 1
  Segment part 15.            Intra module refs:   zclSampleSw_event_loop
           LOCAL                   ADDRESS         
           =====                   =======         
           zclSampleSw_HandleKeys
                                   00011B8C 
               calls direct
               CSTACK = 00000000 ( 0000001E )
    -------------------------------------------------------------------------
<CODE> 3 (was CODE)
  Relative segment, address: 00013B1C - 00013B59 (0x3e bytes), align: 1
  Segment part 14.            Intra module refs:   zclSampleSw_IdentifyCB
                                                   zclSampleSw_event_loop
           LOCAL                   ADDRESS         
           =====                   =======         
           zclSampleSw_ProcessIdentifyTimeChange
                                   00013B1C 
               calls direct
               CSTACK = 00000000 ( 00000004 )
    -------------------------------------------------------------------------
<CODE> 3 (was CODE)
  Relative segment, address: 000157E4 - 000157E5 (0x2 bytes), align: 1
  Segment part 13.            Intra module refs:   Segment part 9
           LOCAL                   ADDRESS         
           =====                   =======         
           zclSampleSw_BasicResetCB
                                   000157E4 
               CSTACK = 00000000 ( 00000004 )
    -------------------------------------------------------------------------
<CODE> 3 (was CODE)
  Relative segment, address: 00015614 - 0001561D (0xa bytes), align: 1
  Segment part 12.            Intra module refs:   Segment part 9
           LOCAL                   ADDRESS         
           =====                   =======         
           zclSampleSw_IdentifyCB
                                   00015614 
               calls direct
               CSTACK = 00000000 ( 00000004 )
    -------------------------------------------------------------------------
<CODE> 3 (was CODE)
  Relative segment, address: 000157E6 - 000157E7 (0x2 bytes), align: 1
  Segment part 11.            Intra module refs:   Segment part 9
           LOCAL                   ADDRESS         
           =====                   =======         
           zclSampleSw_IdentifyQueryRspCB
                                   000157E6 
               CSTACK = 00000000 ( 00000004 )
    -------------------------------------------------------------------------
<CODE> 3 (was CODE)
  Relative segment, address: 00013F36 - 00013F6D (0x38 bytes), align: 1
  Segment part 10.            Intra module refs:   zclSampleSw_event_loop
           LOCAL                   ADDRESS         
           =====                   =======         
           zclSampleSw_ProcessIncomingMsg
                                   00013F36 
               calls direct
               CSTACK = 00000000 ( 00000004 )
    -------------------------------------------------------------------------
DATA16_ID
  Relative segment, address: 39B6 - 39B7 (0x2 bytes), align: 1
  Segment part 5.             Intra module refs:   bindingOutClusters
    -------------------------------------------------------------------------
DATA16_ID
  Relative segment, address: 39B8 - 39BF (0x8 bytes), align: 1
  Segment part 7.             Intra module refs:   sampleSw_TestEp
    -------------------------------------------------------------------------
DATA16_ID
  Relative segment, address: 39C0 - 39FB (0x3c bytes), align: 1
  Segment part 9.             Intra module refs:   zclSampleSw_CmdCallbacks

    *************************************************************************

  FILE NAME : C:\Texas Instruments\ZStack-MSP2618-2.5.1\Projects\zstack\HomeAutomation\SampleSwitch\CC2520DB\EndDevice\Obj\zcl_samplesw_data.r43
  PROGRAM MODULE, NAME : zcl_samplesw_data

  SEGMENTS IN THE MODULE
  ======================
DATA16_C
  Relative segment, address: 38D1 - 38D1 (0x1 bytes), align: 0
  Segment part 2.             Intra module refs:   zclSampleSw_Attrs
           ENTRY                   ADDRESS         REF BY
           =====                   =======         ======
           zclSampleSw_HWRevision
                                   38D1 
    -------------------------------------------------------------------------
DATA16_C
  Relative segment, address: 38D2 - 38D2 (0x1 bytes), align: 0
  Segment part 3.             Intra module refs:   zclSampleSw_Attrs
           ENTRY                   ADDRESS         REF BY
           =====                   =======         ======
           zclSampleSw_ZCLVersion
                                   38D2 
    -------------------------------------------------------------------------
DATA16_C
  Relative segment, address: 38D3 - 38E3 (0x11 bytes), align: 0
  Segment part 4.             Intra module refs:   zclSampleSw_Attrs
           ENTRY                   ADDRESS         REF BY
           =====                   =======         ======
           zclSampleSw_ManufacturerName
                                   38D3 
    -------------------------------------------------------------------------
DATA16_C
  Relative segment, address: 38E4 - 38F4 (0x11 bytes), align: 0
  Segment part 5.             Intra module refs:   zclSampleSw_Attrs
           ENTRY                   ADDRESS         REF BY
           =====                   =======         ======
           zclSampleSw_ModelId     38E4 
    -------------------------------------------------------------------------
DATA16_C
  Relative segment, address: 38F5 - 3905 (0x11 bytes), align: 0
  Segment part 6.             Intra module refs:   zclSampleSw_Attrs
           ENTRY                   ADDRESS         REF BY
           =====                   =======         ======
           zclSampleSw_DateCode    38F5 
    -------------------------------------------------------------------------
DATA16_C
  Relative segment, address: 3906 - 3906 (0x1 bytes), align: 0
  Segment part 7.             Intra module refs:   zclSampleSw_Attrs
           ENTRY                   ADDRESS         REF BY
           =====                   =======         ======
           zclSampleSw_PowerSource
                                   3906 
    -------------------------------------------------------------------------
DATA16_I
  Relative segment, address: 1214 - 1224 (0x11 bytes), align: 0
  Segment part 8.             Intra module refs:   zclSampleSw_Attrs
           ENTRY                   ADDRESS         REF BY
           =====                   =======         ======
           zclSampleSw_LocationDescription
                                   1214 
    -------------------------------------------------------------------------
DATA16_Z
  Relative segment, address: 1A7A - 1A7A (0x1 bytes), align: 0
  Segment part 10.            Intra module refs:   zclSampleSw_Attrs
           ENTRY                   ADDRESS         REF BY
           =====                   =======         ======
           zclSampleSw_PhysicalEnvironment
                                   1A7A 
    -------------------------------------------------------------------------
DATA16_I
  Relative segment, address: 1225 - 1225 (0x1 bytes), align: 0
  Segment part 11.            Intra module refs:   zclSampleSw_Attrs
           ENTRY                   ADDRESS         REF BY
           =====                   =======         ======
           zclSampleSw_DeviceEnable
                                   1225 
    -------------------------------------------------------------------------
DATA16_Z
  Relative segment, address: 198C - 198D (0x2 bytes), align: 1
  Segment part 13.            Intra module refs:   zclSampleSw_Attrs
           ENTRY                   ADDRESS         REF BY
           =====                   =======         ======
           zclSampleSw_IdentifyTime
                                   198C            zclSampleSw_IdentifyCB (zcl_samplesw)
                                                   zclSampleSw_ProcessIdentifyTimeChange (zcl_samplesw)
                                                   zclSampleSw_event_loop (zcl_samplesw)
    -------------------------------------------------------------------------
DATA16_Z
  Relative segment, address: 1A7B - 1A7B (0x1 bytes), align: 0
  Segment part 14.            Intra module refs:   zclSampleSw_Attrs
           ENTRY                   ADDRESS         REF BY
           =====                   =======         ======
           zclSampleSw_OnOff       1A7B            zclSampleSw_ProcessIdentifyTimeChange (zcl_samplesw)
    -------------------------------------------------------------------------
DATA16_C
  Relative segment, address: 34E2 - 3539 (0x58 bytes), align: 1
  Segment part 15.
           ENTRY                   ADDRESS         REF BY
           =====                   =======         ======
           zclSampleSw_Attrs       34E2            zclSampleSw_Init (zcl_samplesw)
    -------------------------------------------------------------------------
DATA16_C
  Relative segment, address: 353A - 353B (0x2 bytes), align: 1
  Segment part 16.            Intra module refs:   Segment part 19
           ENTRY                   ADDRESS         REF BY
           =====                   =======         ======
           zclSampleSw_InClusterList
                                   353A 
    -------------------------------------------------------------------------
DATA16_C
  Relative segment, address: 353C - 353D (0x2 bytes), align: 1
  Segment part 17.            Intra module refs:   Segment part 19
           ENTRY                   ADDRESS         REF BY
           =====                   =======         ======
           zclSampleSw_OutClusterList
                                   353C 
    -------------------------------------------------------------------------
DATA16_I
  Relative segment, address: 11E4 - 11F1 (0xe bytes), align: 1
  Segment part 18.
           ENTRY                   ADDRESS         REF BY
           =====                   =======         ======
           zclSampleSw_SimpleDesc
                                   11E4            zclSampleSw_Init (zcl_samplesw)
    -------------------------------------------------------------------------
DATA16_ID
  Relative segment, address: 3A2C - 3A3C (0x11 bytes), align: 0
  Segment part 9.             Intra module refs:   zclSampleSw_LocationDescription
    -------------------------------------------------------------------------
DATA16_ID
  Relative segment, address: 3A3D - 3A3D (0x1 bytes), align: 0
  Segment part 12.            Intra module refs:   zclSampleSw_DeviceEnable
    -------------------------------------------------------------------------
DATA16_ID
  Relative segment, address: 39FC - 3A09 (0xe bytes), align: 1
  Segment part 19.            Intra module refs:   zclSampleSw_SimpleDesc

    *************************************************************************

  FILE NAME : C:\Texas Instruments\ZStack-MSP2618-2.5.1\Projects\zstack\HomeAutomation\SampleSwitch\CC2520DB\EndDevice\Obj\zmac.r43
  PROGRAM MODULE, NAME : zmac

  SEGMENTS IN THE MODULE
  ======================
DATA16_Z
  Relative segment, address: 198E - 1991 (0x4 bytes), align: 1
  Segment part 2.             Intra module refs:   ZMacScanReq
           ENTRY                   ADDRESS         REF BY
           =====                   =======         ======
           _ScanChannels           198E 
    -------------------------------------------------------------------------
DATA16_Z
  Relative segment, address: 1992 - 1993 (0x2 bytes), align: 1
  Segment part 3.             Intra module refs:   ZMacReset
                                                   ZMacScanReq
           ENTRY                   ADDRESS         REF BY
           =====                   =======         ======
           ZMac_ScanBuf            1992            MAC_CbackEvent (zmac_cb)
    -------------------------------------------------------------------------
<CODE> 3 (was CODE)
  Relative segment, address: 000145A4 - 000145CD (0x2a bytes), align: 1
  Segment part 29.
           ENTRY                   ADDRESS         REF BY
           =====                   =======         ======
           ZMacInit                000145A4        main (ZMain)
               calls direct
               CSTACK = 00000000 ( 00000006 )
    -------------------------------------------------------------------------
<CODE> 3 (was CODE)
  Relative segment, address: 000105F6 - 000105FB (0x6 bytes), align: 1
  Segment part 20.            Intra module refs:   ZMacReset
           LOCAL                   ADDRESS         
           =====                   =======         
           ?Subroutine0            000105F6 
    -------------------------------------------------------------------------
<CODE> 3 (was CODE)
  Relative segment, address: 000105FC - 0001067F (0x84 bytes), align: 1
  Segment part 21.
           ENTRY                   ADDRESS         REF BY
           =====                   =======         ======
           ZMacScanReq             000105FC        NLME_NetworkDiscoveryRequest (APS)
                                                   NLME_NwkDiscReq2 (APS)
                                                   NLME_OrphanJoinRequest (APS)
               calls direct
               CSTACK = 00000000 ( 00000006 )
    -------------------------------------------------------------------------
<CODE> 3 (was CODE)
  Relative segment, address: 00010680 - 0001068B (0xc bytes), align: 1
  Segment part 25.
           ENTRY                   ADDRESS         REF BY
           =====                   =======         ======
           ZMacAssociateReq        00010680        NLME_JoinRequest (APS)
               calls direct
               CSTACK = 00000000 ( 00000004 )
    -------------------------------------------------------------------------
<CODE> 3 (was CODE)
  Relative segment, address: 0001068C - 000106AB (0x20 bytes), align: 1
  Segment part 26.
           ENTRY                   ADDRESS         REF BY
           =====                   =======         ======
           ZMacSetReq              0001068C        MT_SysOsalNVWrite (MT_SYS)
                                                   MT_SysSetExtAddr (MT_SYS)
                                                   MT_SysStackTune (MT_SYS)
                                                   NLME_ReJoinReq (APS)
                                                   NLME_RejoinRspCmdProcess (APS)
                                                   Segment part 493 (APS)
                                                   Segment part 494 (APS)
                                                   Segment part 495 (APS)
                                                   Segment part 565 (APS)
                                                   Segment part 648 (APS)
                                                   Segment part 649 (APS)
                                                   Segment part 650 (APS)
                                                   ZDApp_ProcessNetworkJoin (ZDApp)
                                                   ZDApp_ProcessOSALMsg (ZDApp)
                                                   nwk_associate_cnf_processing (APS)
                                                   zmain_ext_addr (ZMain)
               calls direct
               CSTACK = 00000000 ( 00000008 )
    -------------------------------------------------------------------------
<CODE> 3 (was CODE)
  Relative segment, address: 000106AC - 000106C5 (0x1a bytes), align: 1
  Segment part 27.
           ENTRY                   ADDRESS         REF BY
           =====                   =======         ======
           ZMacGetReq              000106AC        MT_SysGetExtAddr (MT_SYS)
                                                   MT_SysStackTune (MT_SYS)
                                                   NLME_GetCoordExtAddr (APS)
                                                   NLME_GetExtAddr (APS)
                                                   Segment part 557 (APS)
                                                   Segment part 558 (APS)
                                                   nwk_ScanJoiningOrphan (APS)
                                                   nwk_associate_cnf_processing (APS)
                                                   zgInit (ZGlobals)
               calls direct
               CSTACK = 00000000 ( 00000004 )
    -------------------------------------------------------------------------
<CODE> 3 (was CODE)
  Relative segment, address: 000106C6 - 00010701 (0x3c bytes), align: 1
  Segment part 28.            Intra module refs:   ZMacInit
           ENTRY                   ADDRESS         REF BY
           =====                   =======         ======
           ZMacReset               000106C6 
               calls direct
               CSTACK = 00000000 ( 00000008 )
    -------------------------------------------------------------------------
<CODE> 3 (was CODE)
  Relative segment, address: 00015732 - 00015739 (0x8 bytes), align: 1
  Segment part 18.
           ENTRY                   ADDRESS         REF BY
           =====                   =======         ======
           ZMacSyncReq             00015732        NLME_JoinRequest (APS)
                                                   nwk_ScanJoiningOrphan (APS)
               calls direct
               CSTACK = 00000000 ( 00000004 )
    -------------------------------------------------------------------------
<CODE> 3 (was CODE)
  Relative segment, address: 00015548 - 00015553 (0xc bytes), align: 1
  Segment part 17.
           ENTRY                   ADDRESS         REF BY
           =====                   =======         ======
           ZMacPollReq             00015548        NwkPollReq (APS)
               calls direct
               CSTACK = 00000000 ( 00000004 )
    -------------------------------------------------------------------------
<CODE> 3 (was CODE)
  Relative segment, address: 00012192 - 0001221B (0x8a bytes), align: 1
  Segment part 16.
           ENTRY                   ADDRESS         REF BY
           =====                   =======         ======
           ZMacDataReqSec          00012192        nwk_data_req_send (APS)
               calls direct and indirect
               CSTACK = 00000000 ( 0000000C )
    -------------------------------------------------------------------------
<CODE> 3 (was CODE)
  Relative segment, address: 000157BC - 000157BF (0x4 bytes), align: 1
  Segment part 13.
           ENTRY                   ADDRESS         REF BY
           =====                   =======         ======
           ZMacSrcMatchEnable      000157BC        nwk_init (APS)
               calls direct
               CSTACK = 00000000 ( 00000004 )
    -------------------------------------------------------------------------
<CODE> 3 (was CODE)
  Relative segment, address: 000157A0 - 000157A3 (0x4 bytes), align: 1
  Segment part 11.
           ENTRY                   ADDRESS         REF BY
           =====                   =======         ======
           ZMacSrcMatchDeleteEntry
                                   000157A0        nwk_MacDataBuffersDealloc (APS)
               calls direct
               CSTACK = 00000000 ( 00000004 )
    -------------------------------------------------------------------------
<CODE> 3 (was CODE)
  Relative segment, address: 00015752 - 00015759 (0x8 bytes), align: 1
  Segment part 10.
           ENTRY                   ADDRESS         REF BY
           =====                   =======         ======
           ZMacSrcMatchAckAllPending
                                   00015752        nwkDB_AddIndirectEntry (APS)
               calls direct
               CSTACK = 00000000 ( 00000004 )

    *************************************************************************

  FILE NAME : C:\Texas Instruments\ZStack-MSP2618-2.5.1\Projects\zstack\HomeAutomation\SampleSwitch\CC2520DB\EndDevice\Obj\zmac_cb.r43
  PROGRAM MODULE, NAME : zmac_cb

  SEGMENTS IN THE MODULE
  ======================
DATA16_C
  Relative segment, address: 3907 - 3917 (0x11 bytes), align: 0
  Segment part 2.             Intra module refs:   MAC_CbackEvent
           ENTRY                   ADDRESS         REF BY
           =====                   =======         ======
           zmacCBSizeTable         3907 
    -------------------------------------------------------------------------
DATA16_Z
  Relative segment, address: 1A7C - 1A7C (0x1 bytes), align: 0
  Segment part 3.             Intra module refs:   ZMacLqiAdjust
           LOCAL                   ADDRESS         
           =====                   =======         
           lqiAdjMode              1A7C 
    -------------------------------------------------------------------------
DATA16_Z
  Relative segment, address: 1994 - 1997 (0x4 bytes), align: 1
  Segment part 4.             Intra module refs:   MAC_CbackEvent
           ENTRY                   ADDRESS         REF BY
           =====                   =======         ======
           pZMac_AppCallback       1994 
    -------------------------------------------------------------------------
<CODE> 1 (was CODE)
  Relative segment, address: DA3E - DC65 (0x228 bytes), align: 1
  Segment part 8.
           ENTRY                   ADDRESS         REF BY
           =====                   =======         ======
           MAC_CbackEvent          DA3E            macAssociateCnf (mac_beacon)
                                                   macCbackForEvent (mac_beacon)
                                                   macCommStatusInd (mac_beacon)
                                                   macConflictSyncLossInd (mac_beacon)
                                                   macDataRxInd (mac_beacon)
                                                   macDisassocComplete (mac_beacon)
                                                   macPollCnf (mac_beacon)
                                                   macRxBeacon (mac_beacon)
                                                   macRxCompleteCallback (mac_beacon)
                                                   macRxCoordRealign (mac_beacon)
                                                   macRxDisassoc (mac_beacon)
                                                   macScanComplete (mac_beacon)
                                                   macScanFailedInProgress (mac_beacon)
                                                   macScanRxBeacon (mac_beacon)
               calls direct and indirect
               CSTACK = 00000000 ( 00000010 )
    -------------------------------------------------------------------------
<CODE> 3 (was CODE)
  Relative segment, address: 00015788 - 0001578B (0x4 bytes), align: 1
  Segment part 7.
           ENTRY                   ADDRESS         REF BY
           =====                   =======         ======
           MAC_CbackCheckPending   00015788        macRxCheckPendingCallback (mac_beacon)
               CSTACK = 00000000 ( 00000004 )
    -------------------------------------------------------------------------
<CODE> 3 (was CODE)
  Relative segment, address: 00012FE8 - 00013043 (0x5c bytes), align: 1
  Segment part 5.             Intra module refs:   MAC_CbackEvent
           LOCAL                   ADDRESS         
           =====                   =======         
           ZMacLqiAdjust           00012FE8 
               CSTACK = 00000000 ( 00000008 )

    *************************************************************************

  FILE NAME : C:\Program Files (x86)\IAR Systems\Embedded Workbench 6.5\430\LIB\CLIB\cl430xsf.r43
  LIBRARY MODULE, NAME : ?_exit

  SEGMENTS IN THE MODULE
  ======================
<CODE> 3 (was CODE)
  Relative segment, address: 00015790, align: 1
  Segment part 0.
           ENTRY                   ADDRESS         REF BY
           =====                   =======         ======
           _exit                   00015790        exit (?clibexit)
    -------------------------------------------------------------------------
<CODE> 3 (was CODE)
  Relative segment, address: 00015790 - 00015793 (0x4 bytes), align: 1
  Segment part 6.             Intra module refs:   _exit

    -------------------------------------------------------------------------
  LIBRARY MODULE, NAME : ?clibexit

  SEGMENTS IN THE MODULE
  ======================
<CODE> 3 (was CODE)
  Relative segment, address: 00015794 - 00015797 (0x4 bytes), align: 1
  Segment part 2.
           ENTRY                   ADDRESS         REF BY
           =====                   =======         ======
           exit                    00015794        Segment part 22 (?cstart)
               calls direct
               CSTACK = 00000000 ( 00000004 )

    -------------------------------------------------------------------------
  LIBRARY MODULE, NAME : ?__exit

  SEGMENTS IN THE MODULE
  ======================
<CODE> 3 (was CODE)
  Relative segment, address: 00015798 - 0001579B (0x4 bytes), align: 1
  Segment part 0.
           ENTRY                   ADDRESS         REF BY
           =====                   =======         ======
           __exit                  00015798        Segment part 6 (?_exit)
                                                   _exit (?_exit)
           ?C_EXIT                 00015798 

    -------------------------------------------------------------------------
  LIBRARY MODULE, NAME : ?cstart

  SEGMENTS IN THE MODULE
  ======================
CSTACK
  Relative segment, address: 2F00, align: 1
  Segment part 1.
    -------------------------------------------------------------------------
DATA16_Z
  Relative segment, address: 1998, align: 1
  Segment part 2.
    -------------------------------------------------------------------------
DATA16_I
  Relative segment, address: 11F2, align: 1
  Segment part 3.
    -------------------------------------------------------------------------
DATA16_ID
  Relative segment, address: 3A0A, align: 1
  Segment part 4.
    -------------------------------------------------------------------------
CSTART
  Relative segment, address: 3100 - 3103 (0x4 bytes), align: 1
  Segment part 12.
           ENTRY                   ADDRESS         REF BY
           =====                   =======         ======
           __program_start         3100            ?reset_vector (?reset_vector)
                                                   Absolute parts (?ABS_ENTRY_MOD)
           ?cstart_begin           3100 
    -------------------------------------------------------------------------
CSTART
  Relative segment, address: 3104 - 310B (0x8 bytes), align: 1
  Segment part 13.
           ENTRY                   ADDRESS         REF BY
           =====                   =======         ======
           ?cstart_call_low_level_init
                                   3104            __low_level_init (hal_startup)
    -------------------------------------------------------------------------
CSTART
  Relative segment, address: 310C - 3117 (0xc bytes), align: 1
  Segment part 15.
           ENTRY                   ADDRESS         REF BY
           =====                   =======         ======
           ?cstart_init_zero       310C            AIB_apsUseExtendedPANID (APS)
                                                   AIB_apsUseInsecureJoin (APS)
                                                   APSME_CmdPktHook (APS)
                                                   APSME_FrameSecApplyExtHook (APS)
                                                   APSME_FrameSecApplyHook (APS)
                                                   APSME_FrameSecRemoveHook (APS)
                                                   APSME_FrameSecSetupHook (APS)
                                                   APS_Counter (APS)
                                                   APS_TaskID (APS)
                                                   AddrMgrEntryData (APS)
                                                   AddrMgrEntryTotal (APS)
                                                   App_TaskID (MT_UART)
                                                   AssociatedDevList (nwk_globals)
                                                   BindingTable (nwk_globals)
                                                   FSC_Token (MT_UART)
                                                   HalLedStatusTable (hal_led)
                                                   Hal_KeyIntEnable (hal_key)
                                                   Hal_TaskID (hal_drivers)
                                                   LEN_Token (MT_UART)
                                                   Lcd_Line1 (hal_lcd)
                                                   MT_TaskID (MT_TASK)
                                                   NLME_ScanFields (APS)
                                                   NWK_TaskID (APS)
                                                   NwkDescList (APS)
                                                   OSAL_timeSeconds (OSAL_Clock)
                                                   Segment part 27 (APS)
                                                   Segment part 43 (APS)
                                                   Segment part 53 (APS)
                                                   Segment part 56 (APS)
                                                   Segment part 57 (APS)
                                                   Segment part 57 (mac_beacon)
                                                   Segment part 58 (APS)
                                                   Segment part 59 (APS)
                                                   Segment part 71 (mac_beacon)
                                                   Segment part 74 (APS)
                                                   Segment part 75 (APS)
                                                   Segment part 78 (APS)
                                                   Segment part 93 (APS)
                                                   Segment part 94 (APS)
                                                   ZDAppNwkAddr (ZDApp)
                                                   ZDAppTaskID (ZDApp)
                                                   ZDApp_LeaveCtrl (ZDApp)
                                                   ZDOBuildBuf (ZDObject)
                                                   ZDO_Config_Node_Descriptor (ZDConfig)
                                                   ZDO_Config_Power_Descriptor (ZDConfig)
                                                   ZDO_EDBind (ZDObject)
                                                   ZDO_StartDevice::scanCnt (ZDObject)
                                                   ZDO_UseExtendedPANID (ZDApp)
                                                   ZDP_Buf (ZDProfile)
                                                   ZDP_TransID (ZDProfile)
                                                   ZDP_TxOptions (ZDProfile)
                                                   ZDSecMgrEntries (ZDSecMgr)
                                                   ZMac_ScanBuf (zmac)
                                                   _NIB (APS)
                                                   _ScanChannels (zmac)
                                                   _tmpRejoinState (ZDApp)
                                                   aExtendedAddress (OnBoard)
                                                   apsEndDeviceBroadcastTable (nwk_globals)
                                                   apsGroupTable (APS)
                                                   apsfProcessAck (APS)
                                                   apsfSendFragmented (APS)
                                                   apsfSendOsalMsg (APS)
                                                   attrList (zcl)
                                                   backoffTimerRollover (mac_backoff_timer)
                                                   backoffTimerTrigger (mac_backoff_timer)
                                                   bcastHoldHandle (nwk_globals)
                                                   bindAddrMgrLocalLoaded (BindingTable)
                                                   clusterOptionList (zcl)
                                                   devStartMode (ZDApp)
                                                   epList (AF)
                                                   fuIntState (MSP430FlashUtil)
                                                   halAssertHazardLights{22}{23}{31}::escape (hal_assert)
                                                   halSavedKeys (hal_key)
                                                   hotOff (OSAL_Nv)
                                                   hotPg (OSAL_Nv)
                                                   ledState (hal_led)
                                                   lqiAdjMode (zmac_cb)
                                                   macActionSet (mac_beacon)
                                                   macChipVersion (mac_dualchip)
                                                   macData (mac_beacon)
                                                   macDataCheckTxTime (mac_beacon)
                                                   macDevice (mac_beacon)
                                                   macMain (mac_beacon)
                                                   macMcuTimerBackoffCompare (mac_mcu_timer)
                                                   macMcuTimerBackoffCount (mac_mcu_timer)
                                                   macMcuTimerBackoffCountCapture (mac_mcu_timer)
                                                   macMcuTimerBackoffRollover (mac_mcu_timer)
                                                   macMcuTimerBackoffs (mac_mcu_timer)
                                                   macMcuTimerCount (mac_mcu_timer)
                                                   macMcuTimerProcessFallingEdgeSFDSync (mac_mcu_timer)
                                                   macMcuTimerRecordMaxRssiFlag (mac_mcu_timer)
                                                   macMcuTimerTickCountCapture (mac_mcu_timer)
                                                   macMgmt (mac_beacon)
                                                   macPanCoordinator (mac_beacon)
                                                   macPhyChannel (mac_radio)
                                                   macPhyTxPower (mac_radio)
                                                   macPib (mac_pib)
                                                   macPwr (mac_beacon)
                                                   macReset (mac_beacon)
                                                   macRxActive (mac_rx)
                                                   macRxEnableFlags (mac_rx_onoff)
                                                   macRxFilter (mac_rx)
                                                   macRxOnFlag (mac_rx_onoff)
                                                   macRxOutgoingAckFlag (mac_rx)
                                                   macSpiRadioPower (mac_spi)
                                                   macSrcMatchIsAckAllPending (mac_autopend)
                                                   macSrcMatchIsEnabled (mac_autopend)
                                                   macSrcMatchMaxNumEntries (mac_autopend)
                                                   macTaskId (mac_beacon)
                                                   macTxActive (mac_tx)
                                                   macTxBe (mac_tx)
                                                   macTxCsmaBackoffDelay (mac_tx)
                                                   macTxType (mac_tx)
                                                   maxRssi (mac_dualchip)
                                                   mcuPrecisionCount (mac_mcu_timer)
                                                   nb (mac_tx)
                                                   neighborTable (nwk_globals)
                                                   nsduHandleCounter (APS)
                                                   nwkDataBufQueue (APS)
                                                   nwkNewPanId (APS)
                                                   nwkSendMTOReq (APS)
                                                   nwkStatus (ZDApp)
                                                   osalMemStat (OSAL_Memory)
                                                   osal_qHead (OSAL)
                                                   osal_systemClock (OSAL_Timers)
                                                   pAPSF_IgnoreBlock (APS)
                                                   pAPS_DataConfirmReflect (APS)
                                                   pAPS_DataIndReflect (APS)
                                                   pAPS_GetBind (APS)
                                                   pAPS_UnBind (APS)
                                                   pBeaconIndBuf (MT_ZDO)
                                                   pBindInitNV (BindingTable)
                                                   pBindRestoreFromNV (BindingTable)
                                                   pBindSetDefaultNV (BindingTable)
                                                   pBindWriteNV (BindingTable)
                                                   pFuncMacMcuTimerCallback (mac_mcu_timer)
                                                   pFuncRxState (mac_rx)
                                                   pHal_KeyProcessFunction (hal_key)
                                                   pMacDataTx (mac_beacon)
                                                   pMsg (MT_UART)
                                                   pMtAfDataReq (MT_AF)
                                                   pMtAfInMsgList (MT_AF)
                                                   pNLME_UpdateLinkStatus (APS)
                                                   pNwkFreqAgilityScanCfg (APS)
                                                   pRandomSeedCB (mac_dualchip)
                                                   pRxBuf (mac_rx)
                                                   pZDNwkMgr_NetworkReportCB (ZDNwkMgr)
                                                   pZDNwkMgr_NetworkUpdateCB (ZDNwkMgr)
                                                   pZMac_AppCallback (zmac_cb)
                                                   pbindAddEntry (BindingTable)
                                                   pbindNumOfEntries (BindingTable)
                                                   pbindRemoveDev (BindingTable)
                                                   pgLost (OSAL_Nv)
                                                   pgOff (OSAL_Nv)
                                                   pgRes (OSAL_Nv)
                                                   plugins (zcl)
                                                   pnwk_ScanJoiningOrphan (APS)
                                                   pnwk_ScanPANChanSelect (APS)
                                                   pnwk_ScanPANChanVerify (APS)
                                                   preBlinkState (hal_led)
                                                   previousMacTimerTick (OSAL_Clock)
                                                   pwrmgr_attribute (OSAL_PwrMgr)
                                                   random (mac_dualchip)
                                                   rawAFMsg (zcl)
                                                   remUsTicks (OSAL_Clock)
                                                   reqChannel (mac_radio)
                                                   reqTxPower (mac_radio)
                                                   retryCnt (ZDApp)
                                                   rreqCounter (APS)
                                                   rtDiscTable (nwk_globals)
                                                   rtgSrcRelayList (nwk_globals)
                                                   rtgTable (nwk_globals)
                                                   rxBuf (mac_rx)
                                                   rxFifoOverflowCount (mac_rx)
                                                   rxFilter (mac_rx)
                                                   rxIsrActiveFlag (mac_rx)
                                                   rxNextLen (mac_rx)
                                                   rxPayloadLen (mac_rx)
                                                   rxPromiscuousMode (mac_rx)
                                                   rxResetFlag (mac_rx)
                                                   rxUnreadLen (mac_rx)
                                                   s_savWDT (MSP430FlashUtil)
                                                   saveExtAddr (APS)
                                                   savedResponseRate (APS)
                                                   state (MT_UART)
                                                   tasksEvents (OSAL_SampleSw)
                                                   tempDataLen (MT_UART)
                                                   timeMSec (OSAL_Clock)
                                                   timerAlignedQ (mac_beacon)
                                                   timerHead (OSAL_Timers)
                                                   timerUnalignedQ (mac_beacon)
                                                   txAckReq (mac_tx)
                                                   txRetransmitFlag (mac_tx)
                                                   txSeqn (mac_tx)
                                                   uartRecord (hal_uart)
                                                   zclGenCBs (zcl_general)
                                                   zclGenPluginRegisted (zcl_general)
                                                   zclSampleSw_DstAddr (zcl_samplesw)
                                                   zclSampleSw_IdentifyTime (zcl_samplesw_data)
                                                   zclSampleSw_OnOff (zcl_samplesw_data)
                                                   zclSampleSw_PhysicalEnvironment (zcl_samplesw_data)
                                                   zclSampleSw_TaskID (zcl_samplesw)
                                                   zcl_TaskID (zcl)
                                                   zcl_TransID (zcl)
                                                   zcl_ValidateAttrDataCB (zcl)
                                                   zdoCBFunc (ZDApp)
                                                   zdoMsgCBs (ZDProfile)
                                                   zgApsUseExtendedPANID (ZGlobals)
                                                   zgConcentratorDiscoveryTime (ZGlobals)
                                                   zgConcentratorEnable (ZGlobals)
                                                   zgConcentratorRC (ZGlobals)
                                                   zgExtendedPANID (ZGlobals)
                                                   zgSecurityMode (ZGlobals)
    -------------------------------------------------------------------------
CSTART
  Relative segment, address: 3118 - 3127 (0x10 bytes), align: 1
  Segment part 16.
           ENTRY                   ADDRESS         REF BY
           =====                   =======         ======
           ?cstart_init_copy       3118            AF_DataRequestDiscoverRoute (AF)
                                                   APSF_taskID (APS)
                                                   APS_AllowDataRequests (APS)
                                                   APS_ReflectorType (APS)
                                                   Segment part 67 (mac_beacon)
                                                   Segment part 69 (mac_beacon)
                                                   Segment part 76 (APS)
                                                   Segment part 79 (APS)
                                                   Segment part 81 (APS)
                                                   UBRRTable (hal_uart)
                                                   ZDApp_epDesc (ZDApp)
                                                   ZDP_TmpBuf (ZDProfile)
                                                   activeTaskID (OSAL)
                                                   bindingOutClusters (zcl_samplesw)
                                                   continueJoining (ZDApp)
                                                   devState (ZDApp)
                                                   frmfilt0 (mac_dualchip)
                                                   gAPS_MAX_ENDDEVICE_BROADCAST_ENTRIES (nwk_globals)
                                                   gMIN_TREE_LINK_COST (nwk_globals)
                                                   macBeaconMargin (mac_beacon)
                                                   macDataBeaconRequeue (mac_beacon)
                                                   macDataCheckSched (mac_beacon)
                                                   macDataRequeueIndirect (mac_beacon)
                                                   macDataRxBeaconCritical (mac_beacon)
                                                   macDataSetSched (mac_beacon)
                                                   macDataTxBeaconComplete (mac_beacon)
                                                   macDataTxIndirect (mac_beacon)
                                                   macSleepState (mac_sleep)
                                                   macSrcMatchAddrMode (mac_autopend)
                                                   macStateTbl (mac_beacon)
                                                   mtProcessIncoming (MT)
                                                   registeredKeysTaskID (OnBoard)
                                                   sampleSw_TestEp (zcl_samplesw)
                                                   zclSampleSw_CmdCallbacks (zcl_samplesw)
                                                   zclSampleSw_DeviceEnable (zcl_samplesw_data)
                                                   zclSampleSw_LocationDescription (zcl_samplesw_data)
                                                   zclSampleSw_SimpleDesc (zcl_samplesw_data)
                                                   zcl_RegisteredMsgTaskID (zcl)
                                                   zdoDiscCounter (ZDApp)
                                                   zgApsAckWaitMultiplier (ZGlobals)
                                                   zgApsNonMemberRadius (ZGlobals)
                                                   zgApsUseInsecureJoin (ZGlobals)
                                                   zgApscAckWaitDurationPolled (ZGlobals)
                                                   zgApscMaxFrameRetries (ZGlobals)
                                                   zgBcastDeliveryTime (ZGlobals)
                                                   zgConcentratorRadius (ZGlobals)
                                                   zgConfigPANID (ZGlobals)
                                                   zgDefaultChannelList (ZGlobals)
                                                   zgDefaultStartingScanDuration (ZGlobals)
                                                   zgDeviceLogicalType (ZGlobals)
                                                   zgIndirectMsgTimeout (ZGlobals)
                                                   zgMaxBcastRetires (ZGlobals)
                                                   zgMaxDataRetries (ZGlobals)
                                                   zgMaxPollFailureRetries (ZGlobals)
                                                   zgPassiveAckTimeout (ZGlobals)
                                                   zgPollRate (ZGlobals)
                                                   zgQueuedPollRate (ZGlobals)
                                                   zgRejoinPollRate (ZGlobals)
                                                   zgResponsePollRate (ZGlobals)
                                                   zgRouteDiscoveryTime (ZGlobals)
                                                   zgRouteExpiryTime (ZGlobals)
                                                   zgStackProfile (ZGlobals)
    -------------------------------------------------------------------------
CSTART
  Relative segment, address: 3128 - 312F (0x8 bytes), align: 1
  Segment part 22.            Intra module refs:   ?cstart_call_low_level_init
                                                   Segment part 12
           ENTRY                   ADDRESS         REF BY
           =====                   =======         ======
           ?cstart_call_main       3128 
           ?cstart_end             3130 

    -------------------------------------------------------------------------
  LIBRARY MODULE, NAME : ?reset_vector

  SEGMENTS IN THE MODULE
  ======================
RESET
  Relative segment, address: FFFE - FFFF (0x2 bytes), align: 1
  Segment part 0.
           ENTRY                   ADDRESS         REF BY
           =====                   =======         ======
           ?reset_vector           FFFE            Segment part 12 (?cstart)

    -------------------------------------------------------------------------
  LIBRARY MODULE, NAME : ?DivMod816u

  SEGMENTS IN THE MODULE
  ======================
<CODE> 3 (was CODE)
  Relative segment, address: 00014DB8 - 00014DD3 (0x1c bytes), align: 1
  Segment part 0.
           ENTRY                   ADDRESS         REF BY
           =====                   =======         ======
           ?DivMod8u               00014DB8        macFrameDuration (mac_beacon)
           ?DivMod16u              00014DBC        ?Subroutine4 (OSAL_Clock)
                                                   ?Subroutine6 (OSAL_Clock)
                                                   ?Subroutine7 (OSAL_Clock)
                                                   APSF_SendFragmented (APS)
                                                   MT_SysSetUtcTime (MT_SYS)
                                                   Segment part 0 (?DivMod816s)
                                                   Segment part 299 (mac_beacon)
                                                   ZMacLqiAdjust (zmac_cb)
                                                   _itoa (OnBoard)
                                                   macMcuTimerConfigureUsecTimer (mac_mcu_timer)

    -------------------------------------------------------------------------
  LIBRARY MODULE, NAME : ?DivMod816s

  SEGMENTS IN THE MODULE
  ======================
<CODE> 3 (was CODE)
  Relative segment, address: 00014186 - 000141B9 (0x34 bytes), align: 1
  Segment part 0.
           ENTRY                   ADDRESS         REF BY
           =====                   =======         ======
           ?DivMod8s               00014186 
           ?DivMod16s              0001418A        APSF_IncomingData (APS)
                                                   Segment part 383 (APS)
                                                   macFrameDuration (mac_beacon)
                                                   nwkNeighborFindRandom (APS)
                                                   radioComputeED (mac_radio)

    -------------------------------------------------------------------------
  LIBRARY MODULE, NAME : ?DivMod32u

  SEGMENTS IN THE MODULE
  ======================
<CODE> 3 (was CODE)
  Relative segment, address: 00013E8E - 00013EC5 (0x38 bytes), align: 1
  Segment part 0.
           ENTRY                   ADDRESS         REF BY
           =====                   =======         ======
           ?DivMod32u              00013E8E        ?Subroutine5 (OSAL_Clock)
                                                   ?Subroutine6 (OSAL)
                                                   HalLedUpdate (hal_led)
                                                   Segment part 21 (OSAL_Clock)
                                                   _ltoa (OSAL)
                                                   osalTimeUpdate (OSAL_Clock)

    -------------------------------------------------------------------------
  LIBRARY MODULE, NAME : ?ShiftLeft32

  SEGMENTS IN THE MODULE
  ======================
<CODE> 3 (was CODE)
  Relative segment, address: 00015454 - 00015461 (0xe bytes), align: 1
  Segment part 5.
           ENTRY                   ADDRESS         REF BY
           =====                   =======         ======
           ?ShiftLeft32_3          00015454        osalTimeUpdate (OSAL_Clock)

    -------------------------------------------------------------------------
  LIBRARY MODULE, NAME : ?ShiftLeft32_8n

  SEGMENTS IN THE MODULE
  ======================
<CODE> 3 (was CODE)
  Relative segment, address: 00015518 - 00015523 (0xc bytes), align: 1
  Segment part 6.
           ENTRY                   ADDRESS         REF BY
           =====                   =======         ======
           ?ShiftLeft32_8          00015518        ?Subroutine9 (OSAL)

    -------------------------------------------------------------------------
  LIBRARY MODULE, NAME : ?OneBitMask32

  SEGMENTS IN THE MODULE
  ======================
<CODE> 3 (was CODE)
  Relative segment, address: 000149D2 - 000149F3 (0x22 bytes), align: 1
  Segment part 0.
           ENTRY                   ADDRESS         REF BY
           =====                   =======         ======
           ?OneBitMask32           000149D2        ?Subroutine0 (mac_autopend)
                                                   macScanStartTimer (mac_beacon)
                                                   macSrcMatchSetEnableBit (mac_autopend)

    -------------------------------------------------------------------------
  LIBRARY MODULE, NAME : ?ShiftRight32u

  SEGMENTS IN THE MODULE
  ======================
<CODE> 3 (was CODE)
  Relative segment, address: 00012E74 - 00012EB3 (0x40 bytes), align: 1
  Segment part 0.
           ENTRY                   ADDRESS         REF BY
           =====                   =======         ======
           ?ShiftRight32u          00012E74        macSrcMatchCheckSrcAddr (mac_autopend)
                                                   macSrcMatchFindEmptyEntry (mac_autopend)
    -------------------------------------------------------------------------
<CODE> 3 (was CODE)
  Relative segment, address: 00012EB4 - 00012EB7 (0x4 bytes), align: 1
  Segment part 1.             Intra module refs:   ?ShiftRight32u
           ENTRY                   ADDRESS         REF BY
           =====                   =======         ======
           ?ShiftRight32u_7        00012EB4 
    -------------------------------------------------------------------------
<CODE> 3 (was CODE)
  Relative segment, address: 00012EB8 - 00012EBB (0x4 bytes), align: 1
  Segment part 2.             Intra module refs:   ?ShiftRight32u_7
           ENTRY                   ADDRESS         REF BY
           =====                   =======         ======
           ?ShiftRight32u_6        00012EB8 
    -------------------------------------------------------------------------
<CODE> 3 (was CODE)
  Relative segment, address: 00012EBC - 00012EBF (0x4 bytes), align: 1
  Segment part 3.             Intra module refs:   ?ShiftRight32u_6
           ENTRY                   ADDRESS         REF BY
           =====                   =======         ======
           ?ShiftRight32u_5        00012EBC 
    -------------------------------------------------------------------------
<CODE> 3 (was CODE)
  Relative segment, address: 00012EC0 - 00012EC3 (0x4 bytes), align: 1
  Segment part 4.             Intra module refs:   ?ShiftRight32u_5
           ENTRY                   ADDRESS         REF BY
           =====                   =======         ======
           ?ShiftRight32u_4        00012EC0 
    -------------------------------------------------------------------------
<CODE> 3 (was CODE)
  Relative segment, address: 00012EC4 - 00012EC7 (0x4 bytes), align: 1
  Segment part 5.             Intra module refs:   ?ShiftRight32u_4
           ENTRY                   ADDRESS         REF BY
           =====                   =======         ======
           ?ShiftRight32u_3        00012EC4 
    -------------------------------------------------------------------------
<CODE> 3 (was CODE)
  Relative segment, address: 00012EC8 - 00012ED1 (0xa bytes), align: 1
  Segment part 6.             Intra module refs:   ?ShiftRight32u_3
           ENTRY                   ADDRESS         REF BY
           =====                   =======         ======
           ?ShiftRight32u_2        00012EC8 

    -------------------------------------------------------------------------
  LIBRARY MODULE, NAME : ?ShiftRight32u_8n

  SEGMENTS IN THE MODULE
  ======================
<CODE> 3 (was CODE)
  Relative segment, address: 00015050 - 00015053 (0x4 bytes), align: 1
  Segment part 4.
           ENTRY                   ADDRESS         REF BY
           =====                   =======         ======
           ?ShiftRight32u_10       00015050        macApiScanReq (mac_beacon)
    -------------------------------------------------------------------------
<CODE> 3 (was CODE)
  Relative segment, address: 00015054 - 00015057 (0x4 bytes), align: 1
  Segment part 5.             Intra module refs:   ?ShiftRight32u_10
           ENTRY                   ADDRESS         REF BY
           =====                   =======         ======
           ?ShiftRight32u_9        00015054 
    -------------------------------------------------------------------------
<CODE> 3 (was CODE)
  Relative segment, address: 00015058 - 00015063 (0xc bytes), align: 1
  Segment part 6.             Intra module refs:   ?ShiftRight32u_9
           ENTRY                   ADDRESS         REF BY
           =====                   =======         ======
           ?ShiftRight32u_8        00015058 

    -------------------------------------------------------------------------
  LIBRARY MODULE, NAME : ?memcpy

  SEGMENTS IN THE MODULE
  ======================
<CODE> 3 (was CODE)
  Relative segment, address: 00014E5C - 00014E75 (0x1a bytes), align: 1
  Segment part 2.
           ENTRY                   ADDRESS         REF BY
           =====                   =======         ======
           memcpy                  00014E5C        __data16_memcpy (?memzero)
               CSTACK = 00000000 ( 00000006 )

    -------------------------------------------------------------------------
  LIBRARY MODULE, NAME : ?CopyMemoryBytes

  SEGMENTS IN THE MODULE
  ======================
<CODE> 3 (was CODE)
  Relative segment, address: 00015378 - 00015387 (0x10 bytes), align: 1
  Segment part 0.
           ENTRY                   ADDRESS         REF BY
           =====                   =======         ======
           ?CopyMemoryBytes        00015378        nwk_getNetworkDesc (APS)
                                                   zmain_cert_init (ZMain)
                                                   zmain_ext_addr (ZMain)

    -------------------------------------------------------------------------
  LIBRARY MODULE, NAME : ?CopyMemoryWords

  SEGMENTS IN THE MODULE
  ======================
<CODE> 3 (was CODE)
  Relative segment, address: 00015328 - 00015337 (0x10 bytes), align: 1
  Segment part 0.
           ENTRY                   ADDRESS         REF BY
           =====                   =======         ======
           ?CopyMemoryWords        00015328        macPibReset (mac_pib)
                                                   zclSendMsg (zcl)

    -------------------------------------------------------------------------
  LIBRARY MODULE, NAME : ?ClearMemoryBytes

  SEGMENTS IN THE MODULE
  ======================
<CODE> 3 (was CODE)
  Relative segment, address: 000153B8 - 000153C7 (0x10 bytes), align: 1
  Segment part 0.
           ENTRY                   ADDRESS         REF BY
           =====                   =======         ======
           ?ClearMemoryBytes       000153B8        ?Subroutine7 (OSAL)
                                                   nwk_ExtPANIDValid (APS)

    -------------------------------------------------------------------------
  LIBRARY MODULE, NAME : ?memset

  SEGMENTS IN THE MODULE
  ======================
<CODE> 3 (was CODE)
  Relative segment, address: 00014F5C - 00014F73 (0x18 bytes), align: 1
  Segment part 2.
           ENTRY                   ADDRESS         REF BY
           =====                   =======         ======
           memset                  00014F5C        osal_memset (OSAL)
               CSTACK = 00000000 ( 00000006 )

    -------------------------------------------------------------------------
  LIBRARY MODULE, NAME : ?memzero

  SEGMENTS IN THE MODULE
  ======================
<CODE> 3 (was CODE)
  Relative segment, address: 000151F6 - 00015207 (0x12 bytes), align: 1
  Segment part 4.
           ENTRY                   ADDRESS         REF BY
           =====                   =======         ======
           __data16_memzero        000151F6        ?cstart_init_zero (?cstart)
               CSTACK = 00000000 ( 00000004 )
    -------------------------------------------------------------------------
<CODE> 3 (was CODE)
  Relative segment, address: 000157D4 - 000157D7 (0x4 bytes), align: 1
  Segment part 3.
           ENTRY                   ADDRESS         REF BY
           =====                   =======         ======
           __data16_memcpy         000157D4        ?cstart_init_copy (?cstart)
               calls direct
               CSTACK = 00000000 ( 00000004 )

    -------------------------------------------------------------------------
  LIBRARY MODULE, NAME : ?Mul8Hw

  SEGMENTS IN THE MODULE
  ======================
<CODE> 3 (was CODE)
  Relative segment, address: 00014CB4 - 00014CD1 (0x1e bytes), align: 1
  Segment part 0.
           ENTRY                   ADDRESS         REF BY
           =====                   =======         ======
           ?Mul8Hw                 00014CB4 
           ?Mul16Hw                00014CB8 
           ?Mul16to32uHw           00014CB8        HalLedUpdate (hal_led)

    -------------------------------------------------------------------------
  LIBRARY MODULE, NAME : ?Mul32Hw

  SEGMENTS IN THE MODULE
  ======================
<CODE> 3 (was CODE)
  Relative segment, address: 00014250 - 0001427F (0x30 bytes), align: 1
  Segment part 0.
           ENTRY                   ADDRESS         REF BY
           =====                   =======         ======
           ?Mul32Hw                00014250        Segment part 242 (mac_beacon)
                                                   osal_ConvertUTCSecs (OSAL_Clock)

    -------------------------------------------------------------------------
  LIBRARY MODULE, NAME : ?IndCallR9

  SEGMENTS IN THE MODULE
  ======================
<CODE> 3 (was CODE)
  Relative segment, address: 000157B8 - 000157BB (0x4 bytes), align: 1
  Segment part 0.
           ENTRY                   ADDRESS         REF BY
           =====                   =======         ======
           ?IndCallR9              000157B8        afFindSimpleDesc (AF)

    -------------------------------------------------------------------------
  LIBRARY MODULE, NAME : ?IndCallR11

  SEGMENTS IN THE MODULE
  ======================
<CODE> 3 (was CODE)
  Relative segment, address: 000157AC - 000157AF (0x4 bytes), align: 1
  Segment part 0.
           ENTRY                   ADDRESS         REF BY
           =====                   =======         ======
           ?IndCallR11             000157AC        ZMacDataReqSec (zmac)
                                                   nwkDB_FindMatch (APS)
                                                   zclAuthorizeWrite (zcl)
                                                   zclGeneral_ProcessInIdentity (zcl_general)
                                                   zclGetAttrDataLengthUsingCB (zcl)
                                                   zclProcessInReadCmd (zcl)
                                                   zclReadAttrDataUsingCB (zcl)
                                                   zclWriteAttrDataUsingCB (zcl)

    -------------------------------------------------------------------------
  LIBRARY MODULE, NAME : ?IndCallR15

  SEGMENTS IN THE MODULE
  ======================
<CODE> 3 (was CODE)
  Relative segment, address: 000157D8 - 000157DB (0x4 bytes), align: 1
  Segment part 0.
           ENTRY                   ADDRESS         REF BY
           =====                   =======         ======
           ?IndCallR15             000157D8        AF_DataRequest (AF)
                                                   MAC_MlmeResetReq (mac_beacon)
                                                   MT_ProcessIncoming (MT)
                                                   ZDO_ProcessMatchDescReq (ZDObject)
                                                   ZDP_IncomingData (ZDProfile)
                                                   afIncomingData (AF)
                                                   macBackoffTimerTriggerCallback (mac_beacon)
                                                   macExecute (mac_beacon)
                                                   nwk_sys_event_processing (APS)
                                                   osal_run_system (OSAL)
                                                   zclGeneral_HdlInSpecificCommands (zcl_general)
                                                   zclProcessMessageMSG (zcl)

    -------------------------------------------------------------------------
  LIBRARY MODULE, NAME : ?strcat

  SEGMENTS IN THE MODULE
  ======================
<CODE> 3 (was CODE)
  Relative segment, address: 00014D64 - 00014D7F (0x1c bytes), align: 1
  Segment part 2.
           ENTRY                   ADDRESS         REF BY
           =====                   =======         ======
           strcat                  00014D64        ?Subroutine8 (OSAL)
                                                   Segment part 40 (OSAL)
               CSTACK = 00000000 ( 00000004 )

    -------------------------------------------------------------------------
  LIBRARY MODULE, NAME : ?strcpy

  SEGMENTS IN THE MODULE
  ======================
<CODE> 3 (was CODE)
  Relative segment, address: 000151D2 - 000151E3 (0x12 bytes), align: 1
  Segment part 2.
           ENTRY                   ADDRESS         REF BY
           =====                   =======         ======
           strcpy                  000151D2        _ltoa (OSAL)
               CSTACK = 00000000 ( 00000004 )

    -------------------------------------------------------------------------
  LIBRARY MODULE, NAME : ?strlen

  SEGMENTS IN THE MODULE
  ======================
<CODE> 3 (was CODE)
  Relative segment, address: 0001519C - 000151AD (0x12 bytes), align: 1
  Segment part 2.
           ENTRY                   ADDRESS         REF BY
           =====                   =======         ======
           strlen                  0001519C        HalLcd_HW_WriteLine (hal_lcd)
                                                   _ltoa (OSAL)
                                                   osal_strlen (OSAL)
               CSTACK = 00000000 ( 00000004 )




                ****************************************
                *                                      *
                *            MODULE SUMMARY            *
                *                                      *
                ****************************************

Module                CODE      DATA      CONST
------                ----      ----      -----
                     (Rel)  (Rel)  (Abs)  (Rel)
?ClearMemoryBytes       16
?CopyMemoryBytes        16
?CopyMemoryWords        16
?DivMod32u              56
?DivMod816s             52
?DivMod816u             28
?IndCallR11              4
?IndCallR15              4
?IndCallR9               4
?Mul32Hw                48
?Mul8Hw                 30
?OneBitMask32           34
?ShiftLeft32            14
?ShiftLeft32_8n         12
?ShiftRight32u          94
?ShiftRight32u_8n       20
?__exit                  4
?_exit                   4
?clibexit                4
?cstart                 48
?memcpy                 26
?memset                 24
?memzero                22
?reset_vector            2
?strcat                 28
?strcpy                 18
?strlen                 18
AF                   1 374      3             1
APS                 19 232    269            56
BindingTable         1 498     29
DCO_Library            208
DebugTrace              68
MSP430FlashUtil        140      3      4
  + shared                             2
MT                     236     44            44
MT_AF                  140      4
MT_DEBUG               224
MT_SYS               1 758                   12
MT_TASK                372      1
MT_UART                430      7
MT_VERSION                                    5
MT_ZDO               1 972      2
OSAL                 1 284      3             3
OSAL_Clock             688     12
OSAL_Memory            328  2 051
OSAL_Nv              8 514     34             6
OSAL_PwrMgr             10      8
OSAL_SampleSw           84      2            37
OSAL_Timers            450      6
OnBoard                224      9             1
ZDApp                2 670     63            11
ZDConfig               108     16
ZDNwkMgr                        8
ZDObject             2 256     55            81
ZDProfile            2 534     86            62
ZDSecMgr               392      2
ZGlobals               296     52            38
ZMain                  650                   63
  + shared                            10
hal_adc                272            16
hal_assert             350      1
  + shared                             1
hal_drivers            114      1
hal_key                404      6      5
  + common              40
hal_lcd                726      2      7     17
  + shared                             2
hal_led                606     42
hal_mac_cfg            332             3
  + shared              38             4
  + common
hal_sleep
  + shared                             8
hal_startup             10
hal_timer                4             8
  + common              60
hal_uart               860     44      8     10
  + common              48
mac_autopend           910      4             1
mac_backoff_timer      208      8
mac_beacon           6 600    238           693
mac_cfg                                       5
mac_dualchip           770      9      2      1
  + shared                             1
mac_dualchip_tx        446
  + shared                             2
mac_low_level           76                   32
mac_mcu_timer          486     31      8
  + common              52
mac_pib                380     66           210
mac_radio              464      4
mac_radio_defs                               22
mac_rx               1 666     21             4
mac_rx_onoff           272      2
mac_sleep               58      1             1
mac_spi                598      1      7
mac_tx                 670      8             1
nwk_globals            322  1 073           103
saddr                   96
zcl                  4 764     15           113
zcl_general            508      3
zcl_ha                  40
zcl_samplesw           606     83            70
zcl_samplesw_data              36           178
zmac                   484      6
zmac_cb                648      5            17
N/A (command line)            512
N/A (alignment)
----------          ------  -----     --  -----
Total:              73 536  4 991     98  1 898
  + common              60


                ****************************************
                *                                      *
                *      SEGMENTS IN ADDRESS ORDER       *
                *                                      *
                ****************************************


SEGMENT              SPACE    START ADDRESS   END ADDRESS     SIZE  TYPE  ALIGN
=======              =====    =============   ===========     ====  ====  =====
DATA16_AN                              0001 - 0003               3   rel    0
                                       0007 - 0007               1 
                                       001B - 001E               4 
                                       0020 - 0026               7 
                                       0028 - 002E               7 
                                       0030 - 0037               8 
                                       0053 - 0053               1 
                                       0057 - 0058               2 
                                       005B - 005B               1 
                                       0060 - 0063               4 
                                       0066 - 006B               6 
                                       006F - 006F               1 
                                       0080 - 0080               1 
                                       0086 - 0086               1 
                                       008A - 008A               1 
                                       00D8 - 00DB               4 
                                       00DE - 00DF               2 
                                       0120 - 0121               2 
                                       0128 - 0129               2 
                                       012C - 012F               4 
                                       0140 - 0141               2 
                                       014C - 014D               2 
                                       0154 - 0155               2 
                                       0160 - 0167               8 
                                       0170 - 0177               8 
                                       0180 - 0183               4 
                                       0190 - 0193               4 
                                       01A0 - 01A5               6 
DATA16_I                               1100 - 1225             126   rel    1
DATA16_Z                               1226 - 1A7C             857   rel    1
DATA16_N                               1A7E - 227F             802   rel    1
CSTACK                                 2F00 - 30FF             200   rel    1
CSTART                                 3100 - 312F              30   rel    1
ISR_CODE                               3130 - 32D3             1A4   rel    1
DATA16_C                               32D4 - 3917             644   rel    1
DATA16_ID                              3918 - 3A3D             126   rel    1
<CODE> 1                               3A3E - E1FF            A7C2   rel    1
ZIGNV_ADDRESS_SPACE
                                       E200 - F9FF            1800   rel    0
<CODE> 2                               FA00 - FFBD             5BE   rel    1
INTVEC                                 FFC0 - FFFB              3C   com    1
RESET                                  FFFE - FFFF               2   rel    1
<CODE> 3                           00010000 - 000157E9        57EA   rel    1

                ****************************************
                *                                      *
                *        END OF CROSS REFERENCE        *
                *                                      *
                ****************************************

 73 596 bytes of CODE  memory
  4 991 bytes of DATA  memory (+ 98 absolute )
  1 898 bytes of CONST memory

Errors: none
Warnings: none

