///////////////////////////////////////////////////////////////////////////////
//                                                                            /
// IAR C/C++ Compiler V5.52.1.50724/W32 for MSP430      10/Jun/2013  16:27:28 /
// Copyright 1996-2013 IAR Systems AB.                                        /
//                                                                            /
//    __rt_version  =  3                                                      /
//    __double_size =  32                                                     /
//    __reg_r4      =  free                                                   /
//    __reg_r5      =  free                                                   /
//    __pic         =  no                                                     /
//    __core        =  430X                                                   /
//    __data_model  =  small                                                  /
//    Source file   =  C:\Texas Instruments\ZStack-MSP2618-2.5.1\Components\s /
//                     tack\zdo\ZDProfile.c                                   /
//    Command line  =  -f "C:\Texas Instruments\ZStack-MSP2618-2.5.1\Projects /
//                     \zstack\HomeAutomation\SampleLight\CC2520DB\..\..\..\T /
//                     ools\MSP2618\f8wConfig.cfg" (-DZIGBEEPRO -DSECURE=0    /
//                     -DZG_SECURE_DYNAMIC=0 -DREFLECTOR                      /
//                     -DDEFAULT_CHANLIST=0x00000800                          /
//                     -DZDAPP_CONFIG_PAN_ID=0xFFFF -DNWK_START_DELAY=100     /
//                     -DEXTENDED_JOINING_RANDOM_MASK=0x007F                  /
//                     -DBEACON_REQUEST_DELAY=100                             /
//                     -DBEACON_REQ_DELAY_MASK=0x00FF                         /
//                     -DLINK_STATUS_JITTER_MASK=0x007F                       /
//                     -DROUTE_EXPIRY_TIME=30 -DAPSC_ACK_WAIT_DURATION_POLLED /
//                     =3000 -DNWK_INDIRECT_MSG_TIMEOUT=7                     /
//                     -DMAX_RREQ_ENTRIES=8 -DAPSC_MAX_FRAME_RETRIES=3        /
//                     -DNWK_MAX_DATA_RETRIES=2 -DMAX_POLL_FAILURE_RETRIES=2  /
//                     -DMAX_BCAST=9 -DAPS_MAX_GROUPS=16                      /
//                     -DMAX_RTG_ENTRIES=40 -DNWK_MAX_BINDING_ENTRIES=4       /
//                     -DMAX_BINDING_CLUSTER_IDS=4 "-DDEFAULT_KEY={0x01,      /
//                     0x03, 0x05, 0x07, 0x09, 0x0B, 0x0D, 0x0F, 0x00, 0x02,  /
//                     0x04, 0x06, 0x08, 0x0A, 0x0C, 0x0D}"                   /
//                     -DMAC_MAX_FRAME_SIZE=116 -DZDNWKMGR_MIN_TRANSMISSIONS= /
//                     20 -DRFD_RCVC_ALWAYS_ON=FALSE -DPOLL_RATE=1000         /
//                     -DQUEUED_POLL_RATE=100 -DRESPONSE_POLL_RATE=100        /
//                     -DREJOIN_POLL_RATE=440) -f "C:\Texas                   /
//                     Instruments\ZStack-MSP2618-2.5.1\Projects\zstack\HomeA /
//                     utomation\SampleLight\CC2520DB\..\..\..\Tools\MSP2618\ /
//                     f8wRouter.cfg" (-DCPU6MHZ -DMAC_CFG_APP_PENDING_QUEUE= /
//                     TRUE -DMAC_CFG_TX_DATA_MAX=5 -DMAC_CFG_TX_MAX=8        /
//                     -DMAC_CFG_RX_MAX=5 -DRTR_NWK) -f "C:\Texas             /
//                     Instruments\ZStack-MSP2618-2.5.1\Projects\zstack\HomeA /
//                     utomation\SampleLight\CC2520DB\..\..\..\Tools\MSP2618\ /
//                     f8wZCL.cfg" (-DZCL_READ -DZCL_WRITE -DZCL_BASIC        /
//                     -DZCL_IDENTIFY -DZCL_ON_OFF -DZCL_KEY_ESTABLISH        /
//                     -DZCL_KEY_ESTABLISHMENT_KEY_GENERATE_TIMEOUT=4         /
//                     -DZCL_KEY_ESTABLISHMENT_MAC_GENERATE_TIMEOUT=10        /
//                     -DZCL_KEY_ESTABLISHMENT_EKEY_GENERATE_TIMEOUT=10       /
//                     -DZCL_LOAD_CONTROL -DZCL_SIMPLE_METERING               /
//                     -DZCL_PRICING -DZCL_MESSAGE -DZCL_TUNNELING            /
//                     -DZCL_TOU) -DZCL_DEVICE_MGMT "C:\Texas                 /
//                     Instruments\ZStack-MSP2618-2.5.1\Components\stack\zdo\ /
//                     ZDProfile.c" -D MSP430F2618 -D ZTOOL_P1 -D MT_TASK -D  /
//                     MT_SYS_FUNC -D MT_ZDO_FUNC -D LCD_SUPPORTED -lC        /
//                     "C:\Texas Instruments\ZStack-MSP2618-2.5.1\Projects\zs /
//                     tack\HomeAutomation\SampleLight\CC2520DB\Router\List\" /
//                      -lA "C:\Texas Instruments\ZStack-MSP2618-2.5.1\Projec /
//                     ts\zstack\HomeAutomation\SampleLight\CC2520DB\Router\L /
//                     ist\" --remarks --diag_suppress                        /
//                     Pe001,Pe193,Pe236,Pe826 -o "C:\Texas                   /
//                     Instruments\ZStack-MSP2618-2.5.1\Projects\zstack\HomeA /
//                     utomation\SampleLight\CC2520DB\Router\Obj\" --debug    /
//                     -D__MSP430F2618__ -e --double=32 --clib -I "C:\Texas   /
//                     Instruments\ZStack-MSP2618-2.5.1\Projects\zstack\HomeA /
//                     utomation\SampleLight\CC2520DB\" -I "C:\Texas          /
//                     Instruments\ZStack-MSP2618-2.5.1\Projects\zstack\HomeA /
//                     utomation\SampleLight\CC2520DB\..\Source\" -I          /
//                     "C:\Texas Instruments\ZStack-MSP2618-2.5.1\Projects\zs /
//                     tack\HomeAutomation\SampleLight\CC2520DB\..\..\Source\ /
//                     " -I "C:\Texas Instruments\ZStack-MSP2618-2.5.1\Projec /
//                     ts\zstack\HomeAutomation\SampleLight\CC2520DB\..\..\.. /
//                     \ZMain\MSP2618\" -I "C:\Texas                          /
//                     Instruments\ZStack-MSP2618-2.5.1\Projects\zstack\HomeA /
//                     utomation\SampleLight\CC2520DB\..\..\..\..\..\Componen /
//                     ts\hal\include\" -I "C:\Texas                          /
//                     Instruments\ZStack-MSP2618-2.5.1\Projects\zstack\HomeA /
//                     utomation\SampleLight\CC2520DB\..\..\..\..\..\Componen /
//                     ts\hal\target\MSP2618CC2520\" -I "C:\Texas             /
//                     Instruments\ZStack-MSP2618-2.5.1\Projects\zstack\HomeA /
//                     utomation\SampleLight\CC2520DB\..\..\..\..\..\Componen /
//                     ts\mac\include\" -I "C:\Texas                          /
//                     Instruments\ZStack-MSP2618-2.5.1\Projects\zstack\HomeA /
//                     utomation\SampleLight\CC2520DB\..\..\..\..\..\Componen /
//                     ts\mac\high_level\" -I "C:\Texas                       /
//                     Instruments\ZStack-MSP2618-2.5.1\Projects\zstack\HomeA /
//                     utomation\SampleLight\CC2520DB\..\..\..\..\..\Componen /
//                     ts\mac\low_level\srf04\" -I "C:\Texas                  /
//                     Instruments\ZStack-MSP2618-2.5.1\Projects\zstack\HomeA /
//                     utomation\SampleLight\CC2520DB\..\..\..\..\..\Componen /
//                     ts\mac\low_level\srf04\dual_chip\" -I "C:\Texas        /
//                     Instruments\ZStack-MSP2618-2.5.1\Projects\zstack\HomeA /
//                     utomation\SampleLight\CC2520DB\..\..\..\..\..\Componen /
//                     ts\mt\" -I "C:\Texas Instruments\ZStack-MSP2618-2.5.1\ /
//                     Projects\zstack\HomeAutomation\SampleLight\CC2520DB\.. /
//                     \..\..\..\..\Components\osal\include\" -I "C:\Texas    /
//                     Instruments\ZStack-MSP2618-2.5.1\Projects\zstack\HomeA /
//                     utomation\SampleLight\CC2520DB\..\..\..\..\..\Componen /
//                     ts\osal\mcu\msp430\" -I "C:\Texas                      /
//                     Instruments\ZStack-MSP2618-2.5.1\Projects\zstack\HomeA /
//                     utomation\SampleLight\CC2520DB\..\..\..\..\..\Componen /
//                     ts\services\saddr\" -I "C:\Texas                       /
//                     Instruments\ZStack-MSP2618-2.5.1\Projects\zstack\HomeA /
//                     utomation\SampleLight\CC2520DB\..\..\..\..\..\Componen /
//                     ts\services\sdata\" -I "C:\Texas                       /
//                     Instruments\ZStack-MSP2618-2.5.1\Projects\zstack\HomeA /
//                     utomation\SampleLight\CC2520DB\..\..\..\..\..\Componen /
//                     ts\stack\af\" -I "C:\Texas                             /
//                     Instruments\ZStack-MSP2618-2.5.1\Projects\zstack\HomeA /
//                     utomation\SampleLight\CC2520DB\..\..\..\..\..\Componen /
//                     ts\stack\nwk\" -I "C:\Texas                            /
//                     Instruments\ZStack-MSP2618-2.5.1\Projects\zstack\HomeA /
//                     utomation\SampleLight\CC2520DB\..\..\..\..\..\Componen /
//                     ts\stack\sec\" -I "C:\Texas                            /
//                     Instruments\ZStack-MSP2618-2.5.1\Projects\zstack\HomeA /
//                     utomation\SampleLight\CC2520DB\..\..\..\..\..\Componen /
//                     ts\stack\sapi\" -I "C:\Texas                           /
//                     Instruments\ZStack-MSP2618-2.5.1\Projects\zstack\HomeA /
//                     utomation\SampleLight\CC2520DB\..\..\..\..\..\Componen /
//                     ts\stack\sys\" -I "C:\Texas                            /
//                     Instruments\ZStack-MSP2618-2.5.1\Projects\zstack\HomeA /
//                     utomation\SampleLight\CC2520DB\..\..\..\..\..\Componen /
//                     ts\stack\zcl\" -I "C:\Texas                            /
//                     Instruments\ZStack-MSP2618-2.5.1\Projects\zstack\HomeA /
//                     utomation\SampleLight\CC2520DB\..\..\..\..\..\Componen /
//                     ts\stack\zdo\" -I "C:\Texas                            /
//                     Instruments\ZStack-MSP2618-2.5.1\Projects\zstack\HomeA /
//                     utomation\SampleLight\CC2520DB\..\..\..\..\..\Componen /
//                     ts\zmac\" -I "C:\Texas Instruments\ZStack-MSP2618-2.5. /
//                     1\Projects\zstack\HomeAutomation\SampleLight\CC2520DB\ /
//                     ..\..\..\..\..\Components\zmac\f8w\" --core=430X       /
//                     --data_model=small -Ohz --multiplier=16s               /
//                     --require_prototypes                                   /
//    List file     =  C:\Texas Instruments\ZStack-MSP2618-2.5.1\Projects\zst /
//                     ack\HomeAutomation\SampleLight\CC2520DB\Router\List\ZD /
//                     Profile.s43                                            /
//                                                                            /
//                                                                            /
///////////////////////////////////////////////////////////////////////////////

        NAME ZDProfile

        RTMODEL "__SystemLibrary", "CLib"
        RTMODEL "__core", "430X"
        RTMODEL "__data_model", "small"
        RTMODEL "__double_size", "32"
        RTMODEL "__pic", "no"
        RTMODEL "__reg_r4", "free"
        RTMODEL "__reg_r5", "free"
        RTMODEL "__rt_version", "3"

        RSEG CSTACK:DATA:SORT:NOROOT(0)

        EXTERN ?IndCallR15
        EXTERN ?cstart_init_copy
        EXTERN ?cstart_init_zero
        EXTERN ?longjmp_r4
        EXTERN ?longjmp_r5
        EXTERN ?setjmp_r4
        EXTERN ?setjmp_r5

        PUBWEAK ?setjmp_save_r4
        PUBWEAK ?setjmp_save_r5
        PUBLIC ZDO_RegisterForZDOMsg
        FUNCTION ZDO_RegisterForZDOMsg,021203H
        ARGFRAME CSTACK, 0, STACK
        LOCFRAME CSTACK, 12, STACK
        PUBLIC ZDO_RemoveRegisteredCB
        FUNCTION ZDO_RemoveRegisteredCB,021203H
        ARGFRAME CSTACK, 0, STACK
        LOCFRAME CSTACK, 4, STACK
        PUBLIC ZDO_SendMsgCBs
        FUNCTION ZDO_SendMsgCBs,021203H
        ARGFRAME CSTACK, 0, STACK
        LOCFRAME CSTACK, 12, STACK
        PUBLIC ZDP_AF_ENDPOINT
        PUBLIC ZDP_BindUnbindReq
        FUNCTION ZDP_BindUnbindReq,021203H
        ARGFRAME CSTACK, 0, STACK
        LOCFRAME CSTACK, 16, STACK
        PUBLIC ZDP_DeviceAnnce
        FUNCTION ZDP_DeviceAnnce,021203H
        ARGFRAME CSTACK, 0, STACK
        LOCFRAME CSTACK, 16, STACK
        PUBLIC ZDP_EPRsp
        FUNCTION ZDP_EPRsp,021203H
        ARGFRAME CSTACK, 0, STACK
        LOCFRAME CSTACK, 14, STACK
        PUBLIC ZDP_EndDeviceBindReq
        FUNCTION ZDP_EndDeviceBindReq,021203H
        ARGFRAME CSTACK, 0, STACK
        LOCFRAME CSTACK, 20, STACK
        PUBLIC ZDP_GenericRsp
        FUNCTION ZDP_GenericRsp,021203H
        ARGFRAME CSTACK, 0, STACK
        LOCFRAME CSTACK, 8, STACK
        PUBLIC ZDP_IEEEAddrReq
        FUNCTION ZDP_IEEEAddrReq,021203H
        ARGFRAME CSTACK, 0, STACK
        LOCFRAME CSTACK, 14, STACK
        PUBLIC ZDP_IncomingData
        FUNCTION ZDP_IncomingData,061203H
        ARGFRAME CSTACK, 0, STACK
        LOCFRAME CSTACK, 32, STACK
        PUBLIC ZDP_MatchDescReq
        FUNCTION ZDP_MatchDescReq,021203H
        ARGFRAME CSTACK, 0, STACK
        LOCFRAME CSTACK, 16, STACK
        PUBLIC ZDP_MgmtBindRsp
        FUNCTION ZDP_MgmtBindRsp,021203H
        ARGFRAME CSTACK, 0, STACK
        LOCFRAME CSTACK, 18, STACK
        PUBLIC ZDP_MgmtDirectJoinReq
        FUNCTION ZDP_MgmtDirectJoinReq,021203H
        ARGFRAME CSTACK, 0, STACK
        LOCFRAME CSTACK, 8, STACK
        PUBLIC ZDP_MgmtLeaveReq
        FUNCTION ZDP_MgmtLeaveReq,021203H
        ARGFRAME CSTACK, 0, STACK
        LOCFRAME CSTACK, 12, STACK
        PUBLIC ZDP_MgmtLqiRsp
        FUNCTION ZDP_MgmtLqiRsp,021203H
        ARGFRAME CSTACK, 0, STACK
        LOCFRAME CSTACK, 22, STACK
        PUBLIC ZDP_MgmtNwkDiscReq
        FUNCTION ZDP_MgmtNwkDiscReq,021203H
        ARGFRAME CSTACK, 0, STACK
        LOCFRAME CSTACK, 12, STACK
        PUBLIC ZDP_MgmtNwkDiscRsp
        FUNCTION ZDP_MgmtNwkDiscRsp,021203H
        ARGFRAME CSTACK, 0, STACK
        LOCFRAME CSTACK, 22, STACK
        PUBLIC ZDP_MgmtNwkUpdateNotify
        FUNCTION ZDP_MgmtNwkUpdateNotify,021203H
        ARGFRAME CSTACK, 0, STACK
        LOCFRAME CSTACK, 24, STACK
        PUBLIC ZDP_MgmtNwkUpdateReq
        FUNCTION ZDP_MgmtNwkUpdateReq,021203H
        ARGFRAME CSTACK, 0, STACK
        LOCFRAME CSTACK, 16, STACK
        PUBLIC ZDP_MgmtPermitJoinReq
        FUNCTION ZDP_MgmtPermitJoinReq,021203H
        ARGFRAME CSTACK, 0, STACK
        LOCFRAME CSTACK, 4, STACK
        PUBLIC ZDP_MgmtRtgRsp
        FUNCTION ZDP_MgmtRtgRsp,021203H
        ARGFRAME CSTACK, 0, STACK
        LOCFRAME CSTACK, 22, STACK
        PUBLIC ZDP_NWKAddrOfInterestReq
        FUNCTION ZDP_NWKAddrOfInterestReq,021203H
        ARGFRAME CSTACK, 0, STACK
        LOCFRAME CSTACK, 4, STACK
        PUBLIC ZDP_NodeDescMsg
        FUNCTION ZDP_NodeDescMsg,021203H
        ARGFRAME CSTACK, 0, STACK
        LOCFRAME CSTACK, 4, STACK
        PUBLIC ZDP_NwkAddrReq
        FUNCTION ZDP_NwkAddrReq,021203H
        ARGFRAME CSTACK, 0, STACK
        LOCFRAME CSTACK, 22, STACK
        PUBLIC ZDP_PowerDescMsg
        FUNCTION ZDP_PowerDescMsg,021203H
        ARGFRAME CSTACK, 0, STACK
        LOCFRAME CSTACK, 6, STACK
        PUBLIC ZDP_SendData
        FUNCTION ZDP_SendData,021203H
        ARGFRAME CSTACK, 0, STACK
        LOCFRAME CSTACK, 16, STACK
        PUBLIC ZDP_ServerDiscReq
        FUNCTION ZDP_ServerDiscReq,021203H
        ARGFRAME CSTACK, 0, STACK
        LOCFRAME CSTACK, 14, STACK
        PUBLIC ZDP_ServerDiscRsp
        FUNCTION ZDP_ServerDiscRsp,021203H
        ARGFRAME CSTACK, 0, STACK
        LOCFRAME CSTACK, 6, STACK
        PUBLIC ZDP_SimpleDescMsg
        FUNCTION ZDP_SimpleDescMsg,021203H
        ARGFRAME CSTACK, 0, STACK
        LOCFRAME CSTACK, 12, STACK
        PUBLIC ZDP_SimpleDescReq
        FUNCTION ZDP_SimpleDescReq,021203H
        ARGFRAME CSTACK, 0, STACK
        LOCFRAME CSTACK, 4, STACK
        PUBLIC ZDP_TransID
        PUBLIC ZDP_TxOptions
        PUBLIC ZDP_UserDescRsp
        FUNCTION ZDP_UserDescRsp,021203H
        ARGFRAME CSTACK, 0, STACK
        LOCFRAME CSTACK, 10, STACK
        PUBLIC ZDP_UserDescSet
        FUNCTION ZDP_UserDescSet,021203H
        ARGFRAME CSTACK, 0, STACK
        LOCFRAME CSTACK, 8, STACK
        FUNCTION fillAndSend,021203H
        ARGFRAME CSTACK, 0, STACK
        LOCFRAME CSTACK, 32, STACK
        PUBLIC zdoMsgCBs
        PUBLIC zdpMsgProcs
        PUBLIC zdpProcessAddrReq
        FUNCTION zdpProcessAddrReq,021603H
        ARGFRAME CSTACK, 0, STACK
        LOCFRAME CSTACK, 36, STACK
        
          CFI Names cfiNames0
          CFI StackFrame CFA SP DATA
          CFI Resource PC:20, SP:20, SR:16, R4L:16, R4H:4, R4:20, R5L:16, R5H:4
          CFI Resource R5:20, R6L:16, R6H:4, R6:20, R7L:16, R7H:4, R7:20, R8L:16
          CFI Resource R8H:4, R8:20, R9L:16, R9H:4, R9:20, R10L:16, R10H:4
          CFI Resource R10:20, R11L:16, R11H:4, R11:20, R12L:16, R12H:4, R12:20
          CFI Resource R13L:16, R13H:4, R13:20, R14L:16, R14H:4, R14:20, R15L:16
          CFI Resource R15H:4, R15:20
          CFI ResourceParts R4 R4H, R4L
          CFI ResourceParts R5 R5H, R5L
          CFI ResourceParts R6 R6H, R6L
          CFI ResourceParts R7 R7H, R7L
          CFI ResourceParts R8 R8H, R8L
          CFI ResourceParts R9 R9H, R9L
          CFI ResourceParts R10 R10H, R10L
          CFI ResourceParts R11 R11H, R11L
          CFI ResourceParts R12 R12H, R12L
          CFI ResourceParts R13 R13H, R13L
          CFI ResourceParts R14 R14H, R14L
          CFI ResourceParts R15 R15H, R15L
          CFI EndNames cfiNames0
        
          CFI Common cfiCommon0 Using cfiNames0
          CFI CodeAlign 2
          CFI DataAlign 2
          CFI ReturnAddress PC CODE
          CFI CFA SP+4
          CFI PC Frame(CFA, -4)
          CFI SR Undefined
          CFI R4L SameValue
          CFI R4H 0
          CFI R4 Concat
          CFI R5L SameValue
          CFI R5H 0
          CFI R5 Concat
          CFI R6L SameValue
          CFI R6H 0
          CFI R6 Concat
          CFI R7L SameValue
          CFI R7H 0
          CFI R7 Concat
          CFI R8L SameValue
          CFI R8H 0
          CFI R8 Concat
          CFI R9L SameValue
          CFI R9H 0
          CFI R9 Concat
          CFI R10L SameValue
          CFI R10H 0
          CFI R10 Concat
          CFI R11L SameValue
          CFI R11H 0
          CFI R11 Concat
          CFI R12L Undefined
          CFI R12H Undefined
          CFI R12 Undefined
          CFI R13L Undefined
          CFI R13H Undefined
          CFI R13 Undefined
          CFI R14L Undefined
          CFI R14H Undefined
          CFI R14 Undefined
          CFI R15L Undefined
          CFI R15H Undefined
          CFI R15 Undefined
          CFI EndCommon cfiCommon0
        
        
          CFI Common cfiCommon1 Using cfiNames0
          CFI CodeAlign 2
          CFI DataAlign 2
          CFI ReturnAddress PC CODE
          CFI CFA SP+4
          CFI PC Frame(CFA, -4)
          CFI SR Undefined
          CFI R4L SameValue
          CFI R4H 0
          CFI R4 Concat
          CFI R5L SameValue
          CFI R5H 0
          CFI R5 Concat
          CFI R6L SameValue
          CFI R6H 0
          CFI R6 Concat
          CFI R7L SameValue
          CFI R7H 0
          CFI R7 Concat
          CFI R8L SameValue
          CFI R8H 0
          CFI R8 Concat
          CFI R9L SameValue
          CFI R9H 0
          CFI R9 Concat
          CFI R10L SameValue
          CFI R10H 0
          CFI R10 Concat
          CFI R11L SameValue
          CFI R11H 0
          CFI R11 Concat
          CFI R12L SameValue
          CFI R12H 0
          CFI R12 Concat
          CFI R13L SameValue
          CFI R13H 0
          CFI R13 Concat
          CFI R14L SameValue
          CFI R14H 0
          CFI R14 Concat
          CFI R15L SameValue
          CFI R15H 0
          CFI R15 Concat
          CFI EndCommon cfiCommon1
        
        EXTERN ZDApp_InMsgCB
        FUNCTION ZDApp_InMsgCB,0202H
        EXTERN osal_msg_allocate
        FUNCTION osal_msg_allocate,0202H
        EXTERN osal_memcpy
        FUNCTION osal_memcpy,0202H
        EXTERN osal_msg_send
        FUNCTION osal_msg_send,0202H
        EXTERN osal_mem_free
        FUNCTION osal_mem_free,0202H
        EXTERN osal_mem_alloc
        FUNCTION osal_mem_alloc,0202H
        EXTERN osal_buffer_uint32
        FUNCTION osal_buffer_uint32,0202H
        EXTERN sAddrExtCpy
        FUNCTION sAddrExtCpy,0202H
        EXTERN NLME_GetShortAddr
        FUNCTION NLME_GetShortAddr,0202H
        EXTERN NLME_GetExtAddr
        FUNCTION NLME_GetExtAddr,0202H
        EXTERN ZDAppNwkAddr
        EXTERN saveExtAddr
        EXTERN sAddrExtCmp
        FUNCTION sAddrExtCmp,0202H
        EXTERN AssocGetWithExt
        FUNCTION AssocGetWithExt,0202H
        EXTERN AssocGetWithShort
        FUNCTION AssocGetWithShort,0202H
        EXTERN AddrMgrEntryGet
        FUNCTION AddrMgrEntryGet,0202H
        EXTERN AssocMakeList
        FUNCTION AssocMakeList,0202H
        EXTERN osal_memset
        FUNCTION osal_memset,0202H
        EXTERN ZDApp_epDesc
        EXTERN AF_DataRequest
        FUNCTION AF_DataRequest,0202H
        EXTERN ZDO_ProcessActiveEPReq
        FUNCTION ZDO_ProcessActiveEPReq,0602H
        EXTERN ZDO_ProcessDeviceAnnce
        FUNCTION ZDO_ProcessDeviceAnnce,0602H
        EXTERN ZDO_ProcessMatchDescReq
        FUNCTION ZDO_ProcessMatchDescReq,0602H
        EXTERN ZDO_ProcessNodeDescReq
        FUNCTION ZDO_ProcessNodeDescReq,0602H
        EXTERN ZDO_ProcessPowerDescReq
        FUNCTION ZDO_ProcessPowerDescReq,0602H
        EXTERN ZDO_ProcessServerDiscReq
        FUNCTION ZDO_ProcessServerDiscReq,0602H
        EXTERN ZDO_ProcessSimpleDescReq
        FUNCTION ZDO_ProcessSimpleDescReq,0602H
        EXTERN ZDO_ProcessUserDescReq
        FUNCTION ZDO_ProcessUserDescReq,0602H
        EXTERN ZDO_ProcessUserDescSet
        FUNCTION ZDO_ProcessUserDescSet,0602H

// C:\Texas Instruments\ZStack-MSP2618-2.5.1\Components\stack\zdo\ZDProfile.c
//    1 /**************************************************************************************************
//    2   Filename:       ZDProfile.c
//    3   Revised:        $Date: 2010-10-13 10:54:13 -0700 (Wed, 13 Oct 2010) $
//    4   Revision:       $Revision: 24112 $
//    5 
//    6   Description:    This is the Zigbee Device Profile.
//    7 
//    8 
//    9   Copyright 2004-2010 Texas Instruments Incorporated. All rights reserved.
//   10 
//   11   IMPORTANT: Your use of this Software is limited to those specific rights
//   12   granted under the terms of a software license agreement between the user
//   13   who downloaded the software, his/her employer (which must be your employer)
//   14   and Texas Instruments Incorporated (the "License").  You may not use this
//   15   Software unless you agree to abide by the terms of the License. The License
//   16   limits your use, and you acknowledge, that the Software may not be modified,
//   17   copied or distributed unless embedded on a Texas Instruments microcontroller
//   18   or used solely and exclusively in conjunction with a Texas Instruments radio
//   19   frequency transceiver, which is integrated into your product.  Other than for
//   20   the foregoing purpose, you may not use, reproduce, copy, prepare derivative
//   21   works of, modify, distribute, perform, display or sell this Software and/or
//   22   its documentation for any purpose.
//   23 
//   24   YOU FURTHER ACKNOWLEDGE AND AGREE THAT THE SOFTWARE AND DOCUMENTATION ARE
//   25   PROVIDED “AS IS” WITHOUT WARRANTY OF ANY KIND, EITHER EXPRESS OR IMPLIED,
//   26   INCLUDING WITHOUT LIMITATION, ANY WARRANTY OF MERCHANTABILITY, TITLE,
//   27   NON-INFRINGEMENT AND FITNESS FOR A PARTICULAR PURPOSE. IN NO EVENT SHALL
//   28   TEXAS INSTRUMENTS OR ITS LICENSORS BE LIABLE OR OBLIGATED UNDER CONTRACT,
//   29   NEGLIGENCE, STRICT LIABILITY, CONTRIBUTION, BREACH OF WARRANTY, OR OTHER
//   30   LEGAL EQUITABLE THEORY ANY DIRECT OR INDIRECT DAMAGES OR EXPENSES
//   31   INCLUDING BUT NOT LIMITED TO ANY INCIDENTAL, SPECIAL, INDIRECT, PUNITIVE
//   32   OR CONSEQUENTIAL DAMAGES, LOST PROFITS OR LOST DATA, COST OF PROCUREMENT
//   33   OF SUBSTITUTE GOODS, TECHNOLOGY, SERVICES, OR ANY CLAIMS BY THIRD PARTIES
//   34   (INCLUDING BUT NOT LIMITED TO ANY DEFENSE THEREOF), OR OTHER SIMILAR COSTS.
//   35 
//   36   Should you have any questions regarding your right to use this Software,
//   37   contact Texas Instruments Incorporated at www.TI.com.
//   38 **************************************************************************************************/
//   39 
//   40 /*********************************************************************
//   41  * INCLUDES
//   42  */
//   43 #include "ZComdef.h"
//   44 #include "OSAL.h"
//   45 #include "AF.h"
//   46 #include "NLMEDE.h"
//   47 #include "nwk_util.h"
//   48 #include "APS.h"
//   49 
//   50 #include "AddrMgr.h"
//   51 #include "ZDConfig.h"
//   52 #include "ZDProfile.h"
//   53 #include "ZDObject.h"
//   54 #include "ZDNwkMgr.h"
//   55 
//   56 #if defined( LCD_SUPPORTED )
//   57   #include "OnBoard.h"
//   58 #endif
//   59 
//   60 #include "nwk_util.h"
//   61 
//   62 #if defined( MT_ZDO_FUNC )
//   63   #include "MT_ZDO.h"
//   64 #endif
//   65 
//   66 /*********************************************************************
//   67  * MACROS
//   68  */
//   69 
//   70 #define ZADDR_TO_AFADDR( pZADDR, AFADDR ) {                            \ 
//   71   (AFADDR).endPoint = ZDP_AF_ENDPOINT;                                 \ 
//   72   (AFADDR).addrMode = (afAddrMode_t)(pZADDR)->addrMode;                \ 
//   73   (AFADDR).addr.shortAddr = (pZADDR)->addr.shortAddr;                  \ 
//   74 }
//   75 
//   76 #define FillAndSendBuffer( TRANSSEQ, ADDR, ID, LEN, BUF ) {     \ 
//   77   afStatus_t stat;                                    \ 
//   78   ZDP_TmpBuf = (BUF)+1;                               \ 
//   79   stat = fillAndSend( (TRANSSEQ), (ADDR), (ID), (LEN) );          \ 
//   80   osal_mem_free( (BUF) );                             \ 
//   81   ZDP_TmpBuf = ZDP_Buf+1;                             \ 
//   82   return stat;                                        \ 
//   83 }
//   84 
//   85 #define FillAndSendTxOptions( TRANSSEQ, ADDR, ID, LEN, TxO ) {  \ 
//   86   afStatus_t stat;                                    \ 
//   87   ZDP_TxOptions = (TxO);                              \ 
//   88   stat = fillAndSend( (TRANSSEQ), (ADDR), (ID), (LEN) );          \ 
//   89   ZDP_TxOptions = AF_TX_OPTIONS_NONE;                 \ 
//   90   return stat;                                        \ 
//   91 }
//   92 
//   93 #define FillAndSendBufferTxOptions( TRANSSEQ, ADDR, ID, LEN, BUF, TxO ) { \ 
//   94   afStatus_t stat;                                    \ 
//   95   ZDP_TmpBuf = (BUF)+1;                               \ 
//   96   ZDP_TxOptions = (TxO);                              \ 
//   97   stat = fillAndSend( (TRANSSEQ), (ADDR), (ID), (LEN) );          \ 
//   98   osal_mem_free( (BUF) );                             \ 
//   99   ZDP_TmpBuf = ZDP_Buf+1;                             \ 
//  100   ZDP_TxOptions = AF_TX_OPTIONS_NONE;                 \ 
//  101   return stat;                                        \ 
//  102 }
//  103 
//  104 /*********************************************************************
//  105  * CONSTANTS
//  106  */
//  107 
//  108 #define ZDP_BUF_SZ          80
//  109 

        RSEG DATA16_C:CONST:SORT:NOROOT(0)
//  110 CONST byte ZDP_AF_ENDPOINT = 0;
ZDP_AF_ENDPOINT:
        DC8 0
//  111 
//  112 /*********************************************************************
//  113  * TYPEDEFS
//  114  */
//  115 typedef struct
//  116 {
//  117   void *next;
//  118   uint8 taskID;
//  119   uint16 clusterID;
//  120 } ZDO_MsgCB_t;
//  121 
//  122 
//  123 /*********************************************************************
//  124  * GLOBAL VARIABLES
//  125  */
//  126 

        RSEG DATA16_Z:DATA:SORT:NOROOT(0)
        REQUIRE ?cstart_init_zero
//  127 byte ZDP_TransID = 0;
ZDP_TransID:
        DS8 1
//  128 
//  129 /*********************************************************************
//  130  * EXTERNAL VARIABLES
//  131  */
//  132 
//  133 extern endPointDesc_t ZDApp_epDesc;
//  134 
//  135 /*********************************************************************
//  136  * EXTERNAL FUNCTIONS
//  137  */
//  138 
//  139 /*********************************************************************
//  140  * LOCAL FUNCTIONS
//  141  */
//  142 
//  143 static afStatus_t fillAndSend( uint8 *transSeq, zAddrType_t *addr, cId_t clusterID, byte len );
//  144 uint8 ZDO_SendMsgCBs( zdoIncomingMsg_t *inMsg );
//  145 void zdpProcessAddrReq( zdoIncomingMsg_t *inMsg );
//  146 
//  147 /*********************************************************************
//  148  * LOCAL VARIABLES
//  149  */
//  150 

        RSEG DATA16_Z:DATA:SORT:NOROOT(0)
        REQUIRE ?cstart_init_zero
//  151 static uint8  ZDP_Buf[ ZDP_BUF_SZ ];
ZDP_Buf:
        DS8 80

        RSEG DATA16_I:DATA:SORT:NOROOT(1)
        REQUIRE ?cstart_init_copy
//  152 static uint8 *ZDP_TmpBuf = ZDP_Buf+1;
ZDP_TmpBuf:
        DS8 2
        REQUIRE `?<Initializer for ZDP_TmpBuf>`
//  153 

        RSEG DATA16_Z:DATA:SORT:NOROOT(0)
        REQUIRE ?cstart_init_zero
//  154 byte ZDP_TxOptions = AF_TX_OPTIONS_NONE;
ZDP_TxOptions:
        DS8 1

        RSEG DATA16_Z:DATA:SORT:NOROOT(1)
        REQUIRE ?cstart_init_zero
//  155 ZDO_MsgCB_t *zdoMsgCBs = (ZDO_MsgCB_t *)NULL;
zdoMsgCBs:
        DS8 2
//  156 
//  157 /*********************************************************************
//  158  * ZDO Message Processing table
//  159  */
//  160 
//  161 typedef void (*pfnZDPMsgProcessor)( zdoIncomingMsg_t *inMsg );
//  162 
//  163 typedef struct
//  164 {
//  165   uint16                clusterID;
//  166   pfnZDPMsgProcessor    pFn;
//  167 } zdpMsgProcItem_t;
//  168 

        RSEG DATA16_C:CONST:SORT:NOROOT(1)
//  169 CONST zdpMsgProcItem_t zdpMsgProcs[] =
zdpMsgProcs:
        DC16 0
        DC32 zdpProcessAddrReq
        DC16 19
        DC32 ZDO_ProcessDeviceAnnce
        DC16 1
        DC32 zdpProcessAddrReq
        DC16 2
        DC32 ZDO_ProcessNodeDescReq
        DC16 3
        DC32 ZDO_ProcessPowerDescReq
        DC16 4
        DC32 ZDO_ProcessSimpleDescReq
        DC16 5
        DC32 ZDO_ProcessActiveEPReq
        DC16 6
        DC32 ZDO_ProcessMatchDescReq
        DC16 17
        DC32 ZDO_ProcessUserDescReq
        DC16 20
        DC32 ZDO_ProcessUserDescSet
        DC16 21
        DC32 ZDO_ProcessServerDiscReq
        DC16 65535
        DC32 0H
//  170 {
//  171 #if ( RFD_RCVC_ALWAYS_ON==TRUE ) || ( ZG_BUILD_RTR_TYPE )
//  172   // These aren't processed by sleeping end devices.
//  173   { NWK_addr_req,           zdpProcessAddrReq },
//  174   { Device_annce,           ZDO_ProcessDeviceAnnce },
//  175 #endif
//  176   { IEEE_addr_req,          zdpProcessAddrReq },
//  177   { Node_Desc_req,          ZDO_ProcessNodeDescReq },
//  178   { Power_Desc_req,         ZDO_ProcessPowerDescReq },
//  179   { Simple_Desc_req,        ZDO_ProcessSimpleDescReq },
//  180   { Active_EP_req,          ZDO_ProcessActiveEPReq },
//  181   { Match_Desc_req,         ZDO_ProcessMatchDescReq },
//  182 #if defined ( ZDO_MGMT_NWKDISC_RESPONSE )
//  183   { Mgmt_NWK_Disc_req,      ZDO_ProcessMgmtNwkDiscReq },
//  184 #endif
//  185 #if defined ( ZDO_MGMT_LQI_RESPONSE ) && ( ZG_BUILD_RTR_TYPE )
//  186   { Mgmt_Lqi_req,           ZDO_ProcessMgmtLqiReq },
//  187 #endif
//  188 #if defined ( ZDO_MGMT_RTG_RESPONSE ) && ( ZG_BUILD_RTR_TYPE )
//  189   { Mgmt_Rtg_req,           ZDO_ProcessMgmtRtgReq },
//  190 #endif
//  191 #if defined ( ZDO_MGMT_BIND_RESPONSE ) && defined ( REFLECTOR )
//  192   { Mgmt_Bind_req,          ZDO_ProcessMgmtBindReq },
//  193 #endif
//  194 #if defined ( ZDO_MGMT_JOINDIRECT_RESPONSE ) && ( ZG_BUILD_RTR_TYPE )
//  195   { Mgmt_Direct_Join_req,   ZDO_ProcessMgmtDirectJoinReq },
//  196 #endif
//  197 #if defined ( ZDO_MGMT_LEAVE_RESPONSE )
//  198   { Mgmt_Leave_req,         ZDO_ProcessMgmtLeaveReq },
//  199 #endif
//  200 #if defined ( ZDO_MGMT_PERMIT_JOIN_RESPONSE )  && ( ZG_BUILD_RTR_TYPE )
//  201   { Mgmt_Permit_Join_req,   ZDO_ProcessMgmtPermitJoinReq },
//  202 #endif
//  203 #if defined ( ZDO_USERDESC_RESPONSE )
//  204   { User_Desc_req,          ZDO_ProcessUserDescReq },
//  205 #endif
//  206 #if defined ( ZDO_USERDESCSET_RESPONSE )
//  207   { User_Desc_set,          ZDO_ProcessUserDescSet },
//  208 #endif
//  209 #if defined ( ZDO_SERVERDISC_RESPONSE )
//  210   { Server_Discovery_req,   ZDO_ProcessServerDiscReq },
//  211 #endif
//  212   {0xFFFF, NULL} // Last
//  213 };
//  214 
//  215 /*********************************************************************
//  216  * @fn          fillAndSend
//  217  *
//  218  * @brief       Combined to reduce space
//  219  *
//  220  * @param
//  221  * @param
//  222  *
//  223  * @return      afStatus_t
//  224  */

        RSEG CODE:CODE:REORDER:NOROOT(1)
//  225 static afStatus_t fillAndSend( uint8 *transSeq, zAddrType_t *addr, cId_t clusterID, byte len )
fillAndSend:
          CFI Block cfiBlock0 Using cfiCommon0
          CFI Function fillAndSend
//  226 {
        FUNCALL fillAndSend, osal_memset
        LOCFRAME CSTACK, 24, STACK
        FUNCALL fillAndSend, AF_DataRequest
        LOCFRAME CSTACK, 32, STACK
        PUSHM.W #0x4, R11
          CFI R8L Frame(CFA, -12)
          CFI R9L Frame(CFA, -10)
          CFI R10L Frame(CFA, -8)
          CFI R11L Frame(CFA, -6)
          CFI CFA SP+12
        SUB.W   #0xc, SP
          CFI CFA SP+24
        MOV.W   R12, R11
        MOV.W   R13, R8
        MOV.W   R14, R9
        MOV.B   R15, R10
//  227   afAddrType_t afAddr;
//  228 
//  229   osal_memset( &afAddr, 0, sizeof(afAddrType_t) );
        MOV.W   #0xc, R14
        MOV.B   #0x0, R13
        MOV.W   SP, R12
        ADD.W   #0x0, R12
        CALLA   #osal_memset
//  230   ZADDR_TO_AFADDR( addr, afAddr );
        MOV.B   #0x0, 0x9(SP)
        MOV.B   0x8(R8), 0x8(SP)
        MOV.W   @R8, 0(SP)
//  231 
//  232   *(ZDP_TmpBuf-1) = *transSeq;
        MOV.W   &ZDP_TmpBuf, R15
        MOV.B   @R11, 0xffff(R15)
//  233 
//  234   return AF_DataRequest( &afAddr, &ZDApp_epDesc, clusterID,
//  235                            (uint16)(len+1), (uint8*)(ZDP_TmpBuf-1),
//  236                            transSeq, ZDP_TxOptions,  AF_DEFAULT_RADIUS );
        PUSH.B  #0x1e
          CFI CFA SP+26
        PUSH.B  &ZDP_TxOptions
          CFI CFA SP+28
        PUSH.W  R11
          CFI CFA SP+30
        ADD.W   #0xffff, R15
        PUSH.W  R15
          CFI CFA SP+32
        MOV.B   R10, R15
        ADD.W   #0x1, R15
        MOV.W   R9, R14
        MOV.W   #ZDApp_epDesc, R13
        MOV.W   SP, R12
        ADD.W   #0x8, R12
        CALLA   #AF_DataRequest
        ADD.W   #0x14, SP
          CFI CFA SP+12
        POPM.W  #0x4, R11
          CFI R10L SameValue
          CFI R11L SameValue
          CFI R8L SameValue
          CFI R9L SameValue
          CFI CFA SP+4
        RETA
          CFI EndBlock cfiBlock0
//  237 
//  238 }

        RSEG CODE:CODE:NOROOT(1)
ZDP_MgmtLeaveReq:
          CFI Block cfiBlock1 Using cfiCommon0
          CFI Function ZDP_MgmtLeaveReq
        FUNCALL ZDP_MgmtLeaveReq, sAddrExtCpy
        LOCFRAME CSTACK, 12, STACK
        FUNCALL ZDP_MgmtLeaveReq, fillAndSend
        LOCFRAME CSTACK, 12, STACK
        PUSHM.W #0x4, R11
          CFI R8L Frame(CFA, -12)
          CFI R9L Frame(CFA, -10)
          CFI R10L Frame(CFA, -8)
          CFI R11L Frame(CFA, -6)
          CFI CFA SP+12
        MOV.W   R12, R8
        MOV.B   R14, R10
        MOV.B   R15, R11
        CALLA   #?Subroutine11
??CrossCallReturnLabel_28:
        MOV.B   #0x0, 0x8(R15)
        CMP.B   #0x1, R10
        JNE     ??ZDP_MgmtLeaveReq_0
        MOV.B   #0x40, 0x8(R15)
??ZDP_MgmtLeaveReq_0:
        CMP.B   #0x1, R11
        JNE     ??ZDP_MgmtLeaveReq_1
        BIS.B   #0x80, 0x8(R15)
??ZDP_MgmtLeaveReq_1:
        MOV.B   #0x9, R15
        MOV.W   #0x34, R14
        MOV.W   R8, R13
          CFI EndBlock cfiBlock1
        REQUIRE ?Subroutine1
        // Fall through to label ?Subroutine1
//  239 
//  240 /*********************************************************************
//  241  * @fn          ZDP_SendData
//  242  *
//  243  * @brief       This builds and send a request message that has
//  244  *              NWKAddrOfInterest as its only parameter.
//  245  *
//  246  * @param       dstAddr - destination address
//  247  * @param       cmd - clusterID
//  248  * @param       dataLen - number of bytes of data
//  249  * @param       data - pointer to the data
//  250  * @param       SecurityEnable - Security Options
//  251  *
//  252  * @return      afStatus_t
//  253  */
//  254 afStatus_t ZDP_SendData( uint8 *TransSeq, zAddrType_t *dstAddr, uint16 cmd,
//  255                         byte len, uint8 *buf, byte SecurityEnable )
//  256 {
//  257   uint8 *pBuf = ZDP_TmpBuf;
//  258   byte cnt = len;
//  259 
//  260   while ( cnt-- )
//  261   {
//  262     *pBuf++ = *buf++;
//  263   }
//  264 
//  265   FillAndSendTxOptions( TransSeq, dstAddr, cmd, len, ((SecurityEnable) ? AF_EN_SECURITY : 0) );
//  266 }
//  267 
//  268 /*********************************************************************
//  269  * @fn          ZDP_NWKAddrOfInterestReq
//  270  *
//  271  * @brief       This builds and send a request message that has
//  272  *              NWKAddrOfInterest as its only parameter.
//  273  *
//  274  * @param       dstAddr - destination address
//  275  * @param       nwkAddr - 16 bit address
//  276  * @param       SecurityEnable - Security Options
//  277  *
//  278  * @return      afStatus_t
//  279  */
//  280 afStatus_t ZDP_NWKAddrOfInterestReq( zAddrType_t *dstAddr, uint16 nwkAddr,
//  281                                      byte cmd, byte SecurityEnable )
//  282 {
//  283   (void)SecurityEnable;  // Intentionally unreferenced parameter
//  284 
//  285   ZDP_TmpBuf[0] = LO_UINT16( nwkAddr );
//  286   ZDP_TmpBuf[1] = HI_UINT16( nwkAddr );
//  287 
//  288   return fillAndSend( &ZDP_TransID, dstAddr, cmd, 2 );
//  289 }
//  290 
//  291 /*********************************************************************
//  292  * Address Requests
//  293  */
//  294 
//  295 /*********************************************************************
//  296  * @fn          ZDP_NwkAddrReq
//  297  *
//  298  * @brief       This builds and send a NWK_addr_req message.  This
//  299  *              function sends a broadcast message looking for a 16
//  300  *              bit address with a 64 bit address as bait.
//  301  *
//  302  * @param       IEEEAddress - looking for this device
//  303  * @param       SecurityEnable - Security Options
//  304  *
//  305  * @return      afStatus_t
//  306  */
//  307 afStatus_t ZDP_NwkAddrReq( uint8 *IEEEAddress, byte ReqType,
//  308                            byte StartIndex, byte SecurityEnable )
//  309 {
//  310   uint8 *pBuf = ZDP_TmpBuf;
//  311   byte len = Z_EXTADDR_LEN + 1 + 1;  // IEEEAddress + ReqType + StartIndex.
//  312   zAddrType_t dstAddr;
//  313 
//  314   (void)SecurityEnable;  // Intentionally unreferenced parameter
//  315 
//  316   if ( osal_ExtAddrEqual( saveExtAddr, IEEEAddress ) == FALSE )
//  317   {
//  318     dstAddr.addrMode = AddrBroadcast;
//  319     dstAddr.addr.shortAddr = NWK_BROADCAST_SHORTADDR_DEVRXON;
//  320   }
//  321   else
//  322   {
//  323     dstAddr.addrMode = Addr16Bit;
//  324     dstAddr.addr.shortAddr = ZDAppNwkAddr.addr.shortAddr;
//  325   }
//  326 
//  327   pBuf = osal_cpyExtAddr( pBuf, IEEEAddress );
//  328 
//  329   *pBuf++ = ReqType;
//  330   *pBuf++ = StartIndex;
//  331 
//  332   return fillAndSend( &ZDP_TransID, &dstAddr, NWK_addr_req, len );
//  333 }
//  334 
//  335 /*********************************************************************
//  336  * @fn          ZDP_IEEEAddrReq
//  337  *
//  338  * @brief       This builds and send a IEEE_addr_req message.  This
//  339  *              function sends a unicast message looking for a 64
//  340  *              bit IEEE address with a 16 bit address as bait.
//  341  *
//  342  * @param       ReqType - ZDP_IEEEADDR_REQTYPE_SINGLE or
//  343  *                        ZDP_IEEEADDR_REQTYPE_EXTENDED
//  344  * @param       SecurityEnable - Security Options
//  345  *
//  346  * @return      afStatus_t
//  347  */
//  348 afStatus_t ZDP_IEEEAddrReq( uint16 shortAddr, byte ReqType,
//  349                             byte StartIndex, byte SecurityEnable )
//  350 {
//  351   uint8 *pBuf = ZDP_TmpBuf;
//  352   byte len = 2 + 1 + 1;  // shortAddr + ReqType + StartIndex.
//  353   zAddrType_t dstAddr;
//  354 
//  355   (void)SecurityEnable;  // Intentionally unreferenced parameter
//  356 
//  357   dstAddr.addrMode = (afAddrMode_t)Addr16Bit;
//  358   dstAddr.addr.shortAddr = shortAddr;
//  359 
//  360   *pBuf++ = LO_UINT16( shortAddr );
//  361   *pBuf++ = HI_UINT16( shortAddr );
//  362 
//  363   *pBuf++ = ReqType;
//  364   *pBuf++ = StartIndex;
//  365 
//  366   return fillAndSend( &ZDP_TransID, &dstAddr, IEEE_addr_req, len );
//  367 }
//  368 
//  369 /*********************************************************************
//  370  * @fn          ZDP_MatchDescReq
//  371  *
//  372  * @brief       This builds and send a Match_Desc_req message.  This
//  373  *              function sends a broadcast or unicast message
//  374  *              requesting the list of endpoint/interfaces that
//  375  *              match profile ID and cluster IDs.
//  376  *
//  377  * @param       dstAddr - destination address
//  378  * @param       nwkAddr - network address of interest
//  379  * @param       ProfileID - Profile ID
//  380  * @param       NumInClusters - number of input clusters
//  381  * @param       InClusterList - input cluster ID list
//  382  * @param       NumOutClusters - number of output clusters
//  383  * @param       OutClusterList - output cluster ID list
//  384  * @param       SecurityEnable - Security Options
//  385  *
//  386  * @return      afStatus_t
//  387  */
//  388 afStatus_t ZDP_MatchDescReq( zAddrType_t *dstAddr, uint16 nwkAddr,
//  389                                 uint16 ProfileID,
//  390                                 byte NumInClusters, cId_t *InClusterList,
//  391                                 byte NumOutClusters, cId_t *OutClusterList,
//  392                                 byte SecurityEnable )
//  393 {
//  394   uint8 *pBuf = ZDP_TmpBuf;
//  395   // nwkAddr+ProfileID+NumInClusters+NumOutClusters.
//  396   byte i, len = 2 + 2 + 1 + 1;  // nwkAddr+ProfileID+NumInClusters+NumOutClusters.
//  397 
//  398   (void)SecurityEnable;  // Intentionally unreferenced parameter
//  399 
//  400   len += (NumInClusters + NumOutClusters) * sizeof(uint16);
//  401 
//  402   if ( len >= ZDP_BUF_SZ-1 )
//  403   {
//  404     return afStatus_MEM_FAIL;
//  405   }
//  406 
//  407   // The spec changed in Zigbee 2007 (2.4.3.1.7.1) to not allow sending
//  408   // this command to 0xFFFF.  So, here we will filter this and replace 
//  409   // with 0xFFFD to only send to devices with RX ON.  This includes the 
//  410   // network address of interest.
//  411   if ( ((dstAddr->addrMode == AddrBroadcast) || (dstAddr->addrMode == Addr16Bit))
//  412       && (dstAddr->addr.shortAddr == NWK_BROADCAST_SHORTADDR_DEVALL) )
//  413   {
//  414     dstAddr->addr.shortAddr = NWK_BROADCAST_SHORTADDR_DEVRXON;
//  415   }
//  416   if ( nwkAddr == NWK_BROADCAST_SHORTADDR_DEVALL )
//  417   {
//  418     nwkAddr = NWK_BROADCAST_SHORTADDR_DEVRXON;
//  419   }
//  420   
//  421   *pBuf++ = LO_UINT16( nwkAddr );   // NWKAddrOfInterest
//  422   *pBuf++ = HI_UINT16( nwkAddr );
//  423 
//  424   *pBuf++ = LO_UINT16( ProfileID );   // Profile ID
//  425   *pBuf++ = HI_UINT16( ProfileID );
//  426 
//  427   *pBuf++ = NumInClusters; // Input cluster list
//  428   if ( NumInClusters )
//  429   {
//  430     for (i=0; i<NumInClusters; ++i)  {
//  431       *pBuf++ = LO_UINT16( InClusterList[i] );
//  432       *pBuf++ = HI_UINT16( InClusterList[i] );
//  433     }
//  434   }
//  435 
//  436   *pBuf++ = NumOutClusters; // Output cluster list
//  437   if ( NumOutClusters )
//  438   {
//  439     for (i=0; i<NumOutClusters; ++i)  {
//  440       *pBuf++ = LO_UINT16( OutClusterList[i] );
//  441       *pBuf++ = HI_UINT16( OutClusterList[i] );
//  442     }
//  443   }
//  444 
//  445   return fillAndSend( &ZDP_TransID, dstAddr, Match_Desc_req, len );
//  446 }
//  447 
//  448 /*********************************************************************
//  449  * @fn          ZDP_SimpleDescReq
//  450  *
//  451  * @brief       This builds and send a NWK_Simple_Desc_req
//  452  *              message.  This function sends unicast message to the
//  453  *              destination device.
//  454  *
//  455  * @param       dstAddr - destination address
//  456  * @param       nwkAddr - 16 bit address
//  457  * @param       epIntf - endpoint/interface
//  458  * @param       SecurityEnable - Security Options
//  459  *
//  460  * @return      afStatus_t
//  461  */
//  462 afStatus_t ZDP_SimpleDescReq( zAddrType_t *dstAddr, uint16 nwkAddr,
//  463                                     byte endPoint, byte SecurityEnable )
//  464 
//  465 {
//  466   (void)SecurityEnable;  // Intentionally unreferenced parameter
//  467 
//  468   ZDP_TmpBuf[0] = LO_UINT16( nwkAddr );
//  469   ZDP_TmpBuf[1] = HI_UINT16( nwkAddr );
//  470   ZDP_TmpBuf[2] = endPoint;
//  471 
//  472   return fillAndSend( &ZDP_TransID, dstAddr, Simple_Desc_req, 3 );
//  473 }
//  474 
//  475 /*********************************************************************
//  476  * @fn          ZDP_UserDescSet
//  477  *
//  478  * @brief       This builds and send a User_Desc_set message to set
//  479  *              the user descriptor.  This function sends unicast
//  480  *              message to the destination device.
//  481  *
//  482  * @param       dstAddr - destination address
//  483  * @param       nwkAddr - 16 bit address
//  484  * @param       UserDescriptor - user descriptor
//  485  * @param       SecurityEnable - Security Options
//  486  *
//  487  * @return      afStatus_t
//  488  */
//  489 afStatus_t ZDP_UserDescSet( zAddrType_t *dstAddr, uint16 nwkAddr,
//  490                           UserDescriptorFormat_t *UserDescriptor,
//  491                           byte SecurityEnable )
//  492 {
//  493   uint8 *pBuf = ZDP_TmpBuf;
//  494   byte len = (UserDescriptor->len < AF_MAX_USER_DESCRIPTOR_LEN) ?
//  495               UserDescriptor->len : AF_MAX_USER_DESCRIPTOR_LEN;
//  496   byte addrLen = 2;
//  497 
//  498   (void)SecurityEnable;  // Intentionally unreferenced parameter
//  499 
//  500   *pBuf++ = LO_UINT16( nwkAddr );
//  501   *pBuf++ = HI_UINT16( nwkAddr );
//  502 
//  503   *pBuf++ = len;
//  504   addrLen = 3;
//  505 
//  506   pBuf = osal_memcpy( pBuf, UserDescriptor->desc, len );
//  507   osal_memset( pBuf, AF_USER_DESCRIPTOR_FILL, AF_MAX_USER_DESCRIPTOR_LEN-len );
//  508 
//  509   return fillAndSend( &ZDP_TransID, dstAddr, User_Desc_set, (AF_MAX_USER_DESCRIPTOR_LEN + addrLen) );
//  510 }
//  511 
//  512 /*********************************************************************
//  513  * @fn          ZDP_ServerDiscReq
//  514  *
//  515  * @brief       Build and send a Server_Discovery_req request message.
//  516  *
//  517  * @param       serverMask - 16-bit bit-mask of server services being sought.
//  518  * @param       SecurityEnable - Security Options
//  519  *
//  520  * @return      afStatus_t
//  521  */
//  522 afStatus_t ZDP_ServerDiscReq( uint16 serverMask, byte SecurityEnable )
//  523 {
//  524   uint8 *pBuf = ZDP_TmpBuf;
//  525   zAddrType_t dstAddr;
//  526 
//  527   dstAddr.addrMode = AddrBroadcast;
//  528   dstAddr.addr.shortAddr = NWK_BROADCAST_SHORTADDR_DEVRXON;
//  529 
//  530   *pBuf++ = LO_UINT16( serverMask );
//  531   *pBuf = HI_UINT16( serverMask );
//  532 
//  533   FillAndSendTxOptions( &ZDP_TransID, &dstAddr, Server_Discovery_req, 2,
//  534              ((SecurityEnable) ? AF_EN_SECURITY : AF_TX_OPTIONS_NONE) );
//  535 }
//  536 
//  537 /*********************************************************************
//  538  * @fn          ZDP_DeviceAnnce
//  539  *
//  540  * @brief       This builds and send a Device_Annce message.  This
//  541  *              function sends a broadcast message.
//  542  *
//  543  * @param       nwkAddr - 16 bit address of the device
//  544  * @param       IEEEAddr - 64 bit address of the device
//  545  * @param       capabilities - device capabilities.  This field is only
//  546  *                 sent for v1.1 networks.
//  547  * @param       SecurityEnable - Security Options
//  548  *
//  549  * @return      afStatus_t
//  550  */
//  551 afStatus_t ZDP_DeviceAnnce( uint16 nwkAddr, uint8 *IEEEAddr,
//  552                               byte capabilities, byte SecurityEnable )
//  553 {
//  554   zAddrType_t dstAddr;
//  555   uint8 len;
//  556 
//  557   (void)SecurityEnable;  // Intentionally unreferenced parameter
//  558 
//  559   dstAddr.addrMode = (afAddrMode_t)AddrBroadcast;
//  560   dstAddr.addr.shortAddr = NWK_BROADCAST_SHORTADDR_DEVRXON;
//  561 
//  562   ZDP_TmpBuf[0] = LO_UINT16( nwkAddr );
//  563   ZDP_TmpBuf[1] = HI_UINT16( nwkAddr );
//  564   osal_cpyExtAddr( &ZDP_TmpBuf[2], IEEEAddr );
//  565   len = 2 + Z_EXTADDR_LEN;
//  566 
//  567   ZDP_TmpBuf[10] = capabilities;
//  568   len++;
//  569 
//  570   return fillAndSend( &ZDP_TransID, &dstAddr, Device_annce, len );
//  571 }
//  572 
//  573 /*********************************************************************
//  574  * Address Responses
//  575  */
//  576 
//  577 /*********************************************************************
//  578  * @fn      zdpProcessAddrReq
//  579  *
//  580  * @brief   Process an incoming NWK_addr_req or IEEE_addr_req message and then
//  581  *          build and send a corresponding NWK_addr_rsp or IEEE_addr_rsp msg.
//  582  *
//  583  * @param   inMsg - incoming message
//  584  *
//  585  * @return  none
//  586  */
//  587 void zdpProcessAddrReq( zdoIncomingMsg_t *inMsg )
//  588 {
//  589   associated_devices_t *pAssoc;
//  590   uint8 reqType;
//  591   uint16 aoi = INVALID_NODE_ADDR;
//  592   uint8 *ieee = NULL;
//  593 
//  594   reqType = inMsg->asdu[(inMsg->clusterID == NWK_addr_req) ? Z_EXTADDR_LEN : sizeof( uint16 ) ];
//  595 
//  596   if ( inMsg->clusterID == NWK_addr_req )
//  597 
//  598   {
//  599     ieee = inMsg->asdu;
//  600 
//  601     if ( osal_ExtAddrEqual( saveExtAddr, ieee ) )
//  602     {
//  603       aoi = ZDAppNwkAddr.addr.shortAddr;
//  604     }
//  605     // Handle response for sleeping end devices
//  606     else if ( (ZSTACK_ROUTER_BUILD)
//  607       && (((pAssoc = AssocGetWithExt( ieee )) != NULL)
//  608              && (pAssoc->nodeRelation == CHILD_RFD)) )
//  609     {
//  610       aoi = pAssoc->shortAddr;
//  611       if ( reqType != ZDP_ADDR_REQTYPE_SINGLE )
//  612         reqType = 0xFF; // Force Invalid
//  613     }
//  614   }
//  615   else  // if ( inMsg->clusterID == IEEE_addr_req )
//  616   {
//  617     aoi = BUILD_UINT16( inMsg->asdu[0], inMsg->asdu[1] );
//  618 
//  619     if ( aoi == ZDAppNwkAddr.addr.shortAddr )
//  620     {
//  621       ieee = saveExtAddr;
//  622     }
//  623     else if ( (ZSTACK_ROUTER_BUILD)
//  624       && (((pAssoc = AssocGetWithShort( aoi )) != NULL)
//  625              && (pAssoc->nodeRelation == CHILD_RFD)) )
//  626     {
//  627       AddrMgrEntry_t addrEntry;
//  628       addrEntry.user = ADDRMGR_USER_DEFAULT;
//  629       addrEntry.index = pAssoc->addrIdx;
//  630       if ( AddrMgrEntryGet( &addrEntry ) )
//  631       {
//  632         ieee = addrEntry.extAddr;
//  633       }
//  634 
//  635       if ( reqType != ZDP_ADDR_REQTYPE_SINGLE )
//  636         reqType = 0xFF; // Force Invalid
//  637     }
//  638   }
//  639 
//  640   if ( ((aoi != INVALID_NODE_ADDR) && (ieee != NULL)) || (inMsg->wasBroadcast == FALSE) )
//  641   {
//  642     uint8 stat;
//  643     uint8 *pBuf = ZDP_TmpBuf;
//  644     // Status + IEEE-Addr + Nwk-Addr.
//  645     uint8 len = 1 + Z_EXTADDR_LEN + 2;
//  646     
//  647     // If aoi and iee are both setup, we found results
//  648     if ( (aoi != INVALID_NODE_ADDR) && (ieee != NULL) )
//  649     {
//  650       stat = ((reqType == ZDP_ADDR_REQTYPE_SINGLE) || (reqType == ZDP_ADDR_REQTYPE_EXTENDED)) 
//  651                     ? ZDP_SUCCESS : ZDP_INVALID_REQTYPE;
//  652     }
//  653     else 
//  654     {
//  655       // not found and the req was unicast to this device
//  656       stat = ZDP_DEVICE_NOT_FOUND;
//  657       
//  658       // Fill in the missing field with this device's address
//  659       if ( inMsg->clusterID == NWK_addr_req )
//  660       {
//  661         aoi = ZDAppNwkAddr.addr.shortAddr;
//  662       }
//  663       else
//  664       {
//  665         ieee = saveExtAddr;
//  666       }
//  667     }
//  668 
//  669     *pBuf++ = stat;
//  670 
//  671     pBuf = osal_cpyExtAddr( pBuf, ieee );
//  672 
//  673     *pBuf++ = LO_UINT16( aoi );
//  674     *pBuf++ = HI_UINT16( aoi );
//  675 
//  676     if ( ZSTACK_ROUTER_BUILD )
//  677     {
//  678       if ( (reqType == ZDP_ADDR_REQTYPE_EXTENDED) && (aoi == ZDAppNwkAddr.addr.shortAddr)
//  679            && (stat == ZDP_SUCCESS) )
//  680       {
//  681         uint8  cnt = 0;
//  682         uint16 *list = AssocMakeList( &cnt );
//  683 
//  684         if ( list != NULL )
//  685         {
//  686           byte idx = inMsg->asdu[(((inMsg->clusterID == NWK_addr_req) ? Z_EXTADDR_LEN : sizeof( uint16 )) + 1)];
//  687           uint16 *pList = list + idx;
//  688 
//  689           // NumAssocDev field is only present on success.
//  690           if ( cnt > idx )
//  691           {
//  692             cnt -= idx;
//  693             len += (cnt * sizeof( uint16 ));
//  694           }
//  695           else
//  696           {
//  697             cnt = 0;
//  698           }
//  699           *pBuf++ = cnt;
//  700           len++;
//  701 
//  702           // StartIndex field is only present if NumAssocDev field is non-zero.
//  703           *pBuf++ = idx;
//  704           len++;
//  705 
//  706           while ( cnt != 0 )
//  707           {
//  708             *pBuf++ = LO_UINT16( *pList );
//  709             *pBuf++ = HI_UINT16( *pList );
//  710             pList++;
//  711             cnt--;
//  712           }
//  713 
//  714           osal_mem_free( (uint8 *)list );
//  715         }
//  716         else
//  717         {
//  718           // NumAssocDev field is only present on success.
//  719           *pBuf++ = 0;
//  720           len++;
//  721         }
//  722       }
//  723     }
//  724 
//  725     ZDP_TxOptions = AF_MSG_ACK_REQUEST;
//  726     fillAndSend( &(inMsg->TransSeq), &(inMsg->srcAddr), (cId_t)(inMsg->clusterID | ZDO_RESPONSE_BIT), len );
//  727     ZDP_TxOptions = AF_TX_OPTIONS_NONE;
//  728   }
//  729 }
//  730 
//  731 /*********************************************************************
//  732  * @fn          ZDP_NodeDescMsg
//  733  *
//  734  * @brief       Builds and sends a Node Descriptor message, unicast to the
//  735  *              specified device.
//  736  *
//  737  * @param       inMsg - incoming message
//  738  * @param       nwkAddr - 16 bit network address for device
//  739  * @param       pNodeDesc - pointer to the node descriptor
//  740  *
//  741  * @return      afStatus_t
//  742  */
//  743 afStatus_t ZDP_NodeDescMsg( zdoIncomingMsg_t *inMsg,
//  744                            uint16 nwkAddr, NodeDescriptorFormat_t *pNodeDesc )
//  745 {
//  746   uint8 *pBuf = ZDP_TmpBuf;
//  747   byte len;
//  748 
//  749   len = 1 + 2 + 13;  // Status + nwkAddr + Node descriptor
//  750 
//  751   *pBuf++ = ZDP_SUCCESS;
//  752 
//  753   *pBuf++ = LO_UINT16( nwkAddr );
//  754   *pBuf++ = HI_UINT16( nwkAddr );
//  755 
//  756   *pBuf++ = (byte)((pNodeDesc->ComplexDescAvail << 3) |
//  757                      (pNodeDesc->UserDescAvail << 4) |
//  758                      (pNodeDesc->LogicalType & 0x07));
//  759 
//  760   *pBuf++ = (byte)((pNodeDesc->FrequencyBand << 3) | (pNodeDesc->APSFlags & 0x07));
//  761   *pBuf++ = pNodeDesc->CapabilityFlags;
//  762   *pBuf++ = pNodeDesc->ManufacturerCode[0];
//  763   *pBuf++ = pNodeDesc->ManufacturerCode[1];
//  764   *pBuf++ = pNodeDesc->MaxBufferSize;
//  765   *pBuf++ = pNodeDesc->MaxInTransferSize[0];
//  766   *pBuf++ = pNodeDesc->MaxInTransferSize[1];
//  767 
//  768   *pBuf++ = LO_UINT16( pNodeDesc->ServerMask );
//  769   *pBuf++ = HI_UINT16( pNodeDesc->ServerMask );
//  770   *pBuf++ = pNodeDesc->MaxOutTransferSize[0];
//  771   *pBuf++ = pNodeDesc->MaxOutTransferSize[1];
//  772   *pBuf = pNodeDesc->DescriptorCapability;
//  773 
//  774   return fillAndSend( &(inMsg->TransSeq), &(inMsg->srcAddr), Node_Desc_rsp, len );
//  775 }
//  776 
//  777 /*********************************************************************
//  778  * @fn          ZDP_PowerDescMsg
//  779  *
//  780  * @brief       Builds and sends a Power Descriptor message, unicast to the
//  781  *              specified device.
//  782  *
//  783  * @param       inMsg - incoming message (request)
//  784  * @param       nwkAddr - 16 bit network address for device
//  785  * @param       pPowerDesc - pointer to the node descriptor
//  786  *
//  787  * @return      afStatus_t
//  788  */
//  789 afStatus_t ZDP_PowerDescMsg( zdoIncomingMsg_t *inMsg,
//  790                      uint16 nwkAddr, NodePowerDescriptorFormat_t *pPowerDesc )
//  791 {
//  792   uint8 *pBuf = ZDP_TmpBuf;
//  793   byte len = 1 + 2 + 2;  // Status + nwkAddr + Node Power descriptor.
//  794 
//  795   *pBuf++ = ZDP_SUCCESS;
//  796 
//  797   *pBuf++ = LO_UINT16( nwkAddr );
//  798   *pBuf++ = HI_UINT16( nwkAddr );
//  799 
//  800   *pBuf++ = (byte)((pPowerDesc->AvailablePowerSources << 4)
//  801                     | (pPowerDesc->PowerMode & 0x0F));
//  802   *pBuf++ = (byte)((pPowerDesc->CurrentPowerSourceLevel << 4)
//  803                     | (pPowerDesc->CurrentPowerSource & 0x0F));
//  804 
//  805   return fillAndSend( &(inMsg->TransSeq), &(inMsg->srcAddr), Power_Desc_rsp, len );
//  806 }
//  807 
//  808 /*********************************************************************
//  809  * @fn          ZDP_SimpleDescMsg
//  810  *
//  811  * @brief       Builds and sends a Simple Descriptor message, unicast to the
//  812  *              specified device.
//  813  *
//  814  * @param       inMsg - incoming message (request)
//  815  * @param       Status - message status (ZDP_SUCCESS or other)
//  816  * @param       pSimpleDesc - pointer to the node descriptor
//  817  *
//  818  * @return      afStatus_t
//  819  */
//  820 afStatus_t ZDP_SimpleDescMsg( zdoIncomingMsg_t *inMsg, byte Status,
//  821                               SimpleDescriptionFormat_t *pSimpleDesc )
//  822 {
//  823   uint8 *pBuf = ZDP_TmpBuf;
//  824   uint8 i, len;
//  825 
//  826   if ( Status == ZDP_SUCCESS && pSimpleDesc )
//  827   {
//  828     // Status + NWKAddrOfInterest + desc length + empty simple descriptor.
//  829     len = 1 + 2 + 1 + 8;
//  830     len += (pSimpleDesc->AppNumInClusters + pSimpleDesc->AppNumOutClusters) * sizeof ( uint16 );
//  831   }
//  832   else
//  833   {
//  834     len = 1 + 2 + 1; // Status + desc length
//  835   }
//  836   if ( len >= ZDP_BUF_SZ-1 )
//  837   {
//  838     return afStatus_MEM_FAIL;
//  839   }
//  840 
//  841   *pBuf++ = Status;
//  842 
//  843   *pBuf++ = LO_UINT16( ZDAppNwkAddr.addr.shortAddr );
//  844   *pBuf++ = HI_UINT16( ZDAppNwkAddr.addr.shortAddr );
//  845 
//  846   if ( len > 4 )
//  847   {
//  848     *pBuf++ = len - 4;   // Simple descriptor length
//  849 
//  850     *pBuf++ = pSimpleDesc->EndPoint;
//  851     *pBuf++ = LO_UINT16( pSimpleDesc->AppProfId );
//  852     *pBuf++ = HI_UINT16( pSimpleDesc->AppProfId );
//  853     *pBuf++ = LO_UINT16( pSimpleDesc->AppDeviceId );
//  854     *pBuf++ = HI_UINT16( pSimpleDesc->AppDeviceId );
//  855 
//  856     *pBuf++ = (byte)(pSimpleDesc->AppDevVer << 4);
//  857 
//  858     *pBuf++ = pSimpleDesc->AppNumInClusters;
//  859     if ( pSimpleDesc->AppNumInClusters )
//  860     {
//  861       for (i=0; i<pSimpleDesc->AppNumInClusters; ++i)
//  862       {
//  863         *pBuf++ = LO_UINT16( pSimpleDesc->pAppInClusterList[i] );
//  864         *pBuf++ = HI_UINT16( pSimpleDesc->pAppInClusterList[i] );
//  865       }
//  866     }
//  867 
//  868     *pBuf++ = pSimpleDesc->AppNumOutClusters;
//  869     if ( pSimpleDesc->AppNumOutClusters )
//  870     {
//  871       for (i=0; i<pSimpleDesc->AppNumOutClusters; ++i)
//  872       {
//  873         *pBuf++ = LO_UINT16( pSimpleDesc->pAppOutClusterList[i] );
//  874         *pBuf++ = HI_UINT16( pSimpleDesc->pAppOutClusterList[i] );
//  875       }
//  876     }
//  877   }
//  878 
//  879   else
//  880   {
//  881     *pBuf = 0; // Description Length = 0;
//  882   }
//  883 
//  884   return fillAndSend( &(inMsg->TransSeq), &(inMsg->srcAddr), Simple_Desc_rsp, len );
//  885 }
//  886 
//  887 /*********************************************************************
//  888  * @fn          ZDP_EPRsp
//  889  *
//  890  * @brief       This builds and send an endpoint list. Used in
//  891  *              Active_EP_rsp and Match_Desc_Rsp
//  892  *              message.  This function sends unicast message to the
//  893  *              requesting device.
//  894  *
//  895  * @param       MsgType - either Active_EP_rsp or Match_Desc_Rsp
//  896  * @param       dstAddr - destination address
//  897  * @param       Status - message status (ZDP_SUCCESS or other)
//  898  * @param       nwkAddr - Device's short address that this response describes
//  899  * @param       Count - number of endpoint/interfaces in list
//  900  * @param       pEPIntfList - Array of Endpoint/Interfaces
//  901  * @param       SecurityEnable - Security Options
//  902  *
//  903  * @return      afStatus_t
//  904  */
//  905 afStatus_t ZDP_EPRsp( uint16 MsgType, byte TransSeq, zAddrType_t *dstAddr,
//  906                         byte Status, uint16 nwkAddr, byte Count,
//  907                         uint8 *pEPList,
//  908                         byte SecurityEnable )
//  909 {
//  910   uint8 *pBuf = ZDP_TmpBuf;
//  911   byte len = 1 + 2 + 1;  // Status + nwkAddr + endpoint/interface count.
//  912   byte txOptions;
//  913 
//  914   (void)SecurityEnable;  // Intentionally unreferenced parameter
//  915 
//  916   if ( MsgType == Match_Desc_rsp )
//  917     txOptions = AF_MSG_ACK_REQUEST;
//  918   else
//  919     txOptions = 0;
//  920 
//  921     *pBuf++ = Status;
//  922   *pBuf++ = LO_UINT16( nwkAddr );
//  923   *pBuf++ = HI_UINT16( nwkAddr );
//  924 
//  925   *pBuf++ = Count;   // Endpoint/Interface count
//  926 
//  927   if ( Count )
//  928   {
//  929     len += Count;
//  930     osal_memcpy( pBuf, pEPList, Count );
//  931   }
//  932 
//  933   FillAndSendTxOptions( &TransSeq, dstAddr, MsgType, len, txOptions );
//  934 }
//  935 
//  936 /*********************************************************************
//  937  * @fn          ZDP_UserDescRsp
//  938  *
//  939  * @brief       Build and send the User Decriptor Response.
//  940  *
//  941  *
//  942  * @param       dstAddr - destination address
//  943  * @param       nwkAddrOfInterest -
//  944  * @param       userDesc -
//  945  * @param       SecurityEnable - Security Options
//  946  *
//  947  * @return      ZStatus_t
//  948  */
//  949 ZStatus_t ZDP_UserDescRsp( byte TransSeq, zAddrType_t *dstAddr,
//  950                 uint16 nwkAddrOfInterest, UserDescriptorFormat_t *userDesc,
//  951                 byte SecurityEnable )
//  952 {
//  953   uint8 *pBuf = ZDP_TmpBuf;
//  954   byte len = 1 + 2 + 1;  // Status + nwkAddr + descriptor length.
//  955 
//  956   (void)SecurityEnable;  // Intentionally unreferenced parameter
//  957 
//  958   len += userDesc->len;
//  959 
//  960   *pBuf++ = ZSUCCESS;
//  961 
//  962   *pBuf++ = LO_UINT16( nwkAddrOfInterest );
//  963   *pBuf++ = HI_UINT16( nwkAddrOfInterest );
//  964 
//  965   *pBuf++ = userDesc->len;
//  966   osal_memcpy( pBuf, userDesc->desc, userDesc->len );
//  967 
//  968   return (ZStatus_t)fillAndSend( &TransSeq, dstAddr, User_Desc_rsp, len );
//  969 }
//  970 
//  971 /*********************************************************************
//  972  * @fn          ZDP_ServerDiscRsp
//  973  *
//  974  * @brief       Build and send the Server_Discovery_rsp response.
//  975  *
//  976  * @param       transID - Transaction sequence number of request.
//  977  * @param       dstAddr - Network Destination Address.
//  978  * @param       status - Status of response to request.
//  979  * @param       aoi - Network Address of Interest of request.
//  980  * @param       serverMask - Bit map of service(s) being sought.
//  981  * @param       SecurityEnable - Security Options
//  982  *
//  983  * @return      ZStatus_t
//  984  */
//  985 ZStatus_t ZDP_ServerDiscRsp( byte transID, zAddrType_t *dstAddr, byte status,
//  986                            uint16 aoi, uint16 serverMask, byte SecurityEnable )
//  987 {
//  988   const byte len = 1  + 2;  // status + aoi + mask.
//  989   uint8 *pBuf = ZDP_TmpBuf;
//  990   ZStatus_t stat;
//  991 
//  992   // Intentionally unreferenced parameters
//  993   (void)aoi;
//  994   (void)SecurityEnable;
//  995 
//  996   *pBuf++ = status;
//  997 
//  998   *pBuf++ = LO_UINT16( serverMask );
//  999   *pBuf++ = HI_UINT16( serverMask );
// 1000 
// 1001   ZDP_TxOptions = AF_MSG_ACK_REQUEST;
// 1002   stat = fillAndSend( &transID, dstAddr, Server_Discovery_rsp, len );
// 1003   ZDP_TxOptions = AF_TX_OPTIONS_NONE;
// 1004 
// 1005   return ( stat );
// 1006 }
// 1007 
// 1008 /*********************************************************************
// 1009  * @fn          ZDP_GenericRsp
// 1010  *
// 1011  * @brief       Sends a response message with only the parameter status
// 1012  *              byte and the addr of interest for data.
// 1013  *              This function sends unicast message to the
// 1014  *              requesting device.
// 1015  *
// 1016  * @param       dstAddr - destination address
// 1017  * @param       status  - generic status for response
// 1018  * @param       aoi     - address of interest
// 1019  * @param       dstAddr - destination address
// 1020  * @param       rspId   - response cluster ID
// 1021  * @param       SecurityEnable - Security Options
// 1022  *
// 1023  * @return      afStatus_t
// 1024  */
// 1025 afStatus_t ZDP_GenericRsp( byte TransSeq, zAddrType_t *dstAddr,
// 1026                      byte status, uint16 aoi, uint16 rspID, byte SecurityEnable )
// 1027 {
// 1028   uint8 len;
// 1029 
// 1030   (void)SecurityEnable;  // Intentionally unreferenced parameter
// 1031 
// 1032   ZDP_TmpBuf[0] = status;
// 1033   ZDP_TmpBuf[1] = LO_UINT16( aoi );
// 1034   ZDP_TmpBuf[2] = HI_UINT16( aoi );
// 1035 
// 1036   // Length byte
// 1037   ZDP_TmpBuf[3] = 0;
// 1038   len = 4;
// 1039 
// 1040   return fillAndSend( &TransSeq, dstAddr, rspID, len );
// 1041 }
// 1042 
// 1043 /*********************************************************************
// 1044  * Binding
// 1045  */
// 1046 /*********************************************************************
// 1047  * @fn          ZDP_EndDeviceBindReq
// 1048  *
// 1049  * @brief       This builds and sends a End_Device_Bind_req message.
// 1050  *              This function sends a unicast message.
// 1051  *
// 1052  * @param       dstAddr - destination address
// 1053  * @param       LocalCoordinator - short address of local coordinator
// 1054  * @param       epIntf - Endpoint/Interface of Simple Desc
// 1055  * @param       ProfileID - Profile ID
// 1056  *
// 1057  *   The Input cluster list is the opposite of what you would think.
// 1058  *   This is the output cluster list of this device
// 1059  * @param       NumInClusters - number of input clusters
// 1060  * @param       InClusterList - input cluster ID list
// 1061  *
// 1062  *   The Output cluster list is the opposite of what you would think.
// 1063  *   This is the input cluster list of this device
// 1064  * @param       NumOutClusters - number of output clusters
// 1065  * @param       OutClusterList - output cluster ID list
// 1066  *
// 1067  * @param       SecurityEnable - Security Options
// 1068  *
// 1069  * @return      afStatus_t
// 1070  */
// 1071 afStatus_t ZDP_EndDeviceBindReq( zAddrType_t *dstAddr,
// 1072                                  uint16 LocalCoordinator,
// 1073                                  byte endPoint,
// 1074                                  uint16 ProfileID,
// 1075                                  byte NumInClusters, cId_t *InClusterList,
// 1076                                  byte NumOutClusters, cId_t *OutClusterList,
// 1077                                  byte SecurityEnable )
// 1078 {
// 1079   uint8 *pBuf = ZDP_TmpBuf;
// 1080   uint8 i, len;
// 1081   uint8 *ieeeAddr;
// 1082 
// 1083   (void)SecurityEnable;  // Intentionally unreferenced parameter
// 1084 
// 1085   // LocalCoordinator + SrcExtAddr + ep + ProfileID +  NumInClusters + NumOutClusters.
// 1086   len = 2 + Z_EXTADDR_LEN + 1 + 2 + 1 + 1;
// 1087   len += (NumInClusters + NumOutClusters) * sizeof ( uint16 );
// 1088 
// 1089   if ( len >= ZDP_BUF_SZ-1 )
// 1090   {
// 1091     return afStatus_MEM_FAIL;
// 1092   }
// 1093 
// 1094   if ( LocalCoordinator != NLME_GetShortAddr() )
// 1095   {
// 1096     return afStatus_INVALID_PARAMETER;
// 1097   }
// 1098 
// 1099   *pBuf++ = LO_UINT16( LocalCoordinator );
// 1100   *pBuf++ = HI_UINT16( LocalCoordinator );
// 1101 
// 1102   ieeeAddr = NLME_GetExtAddr();
// 1103   pBuf = osal_cpyExtAddr( pBuf, ieeeAddr );
// 1104 
// 1105   *pBuf++ = endPoint;
// 1106 
// 1107   *pBuf++ = LO_UINT16( ProfileID );   // Profile ID
// 1108   *pBuf++ = HI_UINT16( ProfileID );
// 1109 
// 1110   *pBuf++ = NumInClusters; // Input cluster list
// 1111   for ( i = 0; i < NumInClusters; ++i )
// 1112   {
// 1113     *pBuf++ = LO_UINT16(InClusterList[i]);
// 1114     *pBuf++ = HI_UINT16(InClusterList[i]);
// 1115   }
// 1116 
// 1117   *pBuf++ = NumOutClusters; // Output cluster list
// 1118   for ( i = 0; i < NumOutClusters; ++i )
// 1119   {
// 1120     *pBuf++ = LO_UINT16(OutClusterList[i]);
// 1121     *pBuf++ = HI_UINT16(OutClusterList[i]);
// 1122   }
// 1123 
// 1124   return fillAndSend( &ZDP_TransID, dstAddr, End_Device_Bind_req, len );
// 1125 }
// 1126 
// 1127 /*********************************************************************
// 1128  * @fn          ZDP_BindUnbindReq
// 1129  *
// 1130  * @brief       This builds and send a Bind_req or Unbind_req message
// 1131  *              Depending on the ClusterID. This function
// 1132  *              sends a unicast message to the local coordinator.
// 1133  *
// 1134  * @param       BindOrUnbind - either Bind_req or Unbind_req
// 1135  * @param       dstAddr - destination address of the message
// 1136  * @param       SourceAddr - source 64 bit address of the binding
// 1137  * @param       SrcEPIntf - Source endpoint/interface
// 1138  * @param       ClusterID - Binding cluster ID
// 1139  * @param       DestinationAddr - destination 64 bit addr of binding
// 1140  * @param       DstEPIntf - destination endpoint/interface
// 1141  * @param       SecurityEnable - Security Options
// 1142  *
// 1143  * @return      afStatus_t
// 1144  */
// 1145 afStatus_t ZDP_BindUnbindReq( uint16 BindOrUnbind, zAddrType_t *dstAddr,
// 1146                               uint8 *SourceAddr, byte SrcEndPoint,
// 1147                               cId_t ClusterID,
// 1148                               zAddrType_t *destinationAddr, byte DstEndPoint,
// 1149                               byte SecurityEnable )
// 1150 {
// 1151   uint8 *pBuf = ZDP_TmpBuf;
// 1152   byte len;
// 1153 
// 1154   (void)SecurityEnable;  // Intentionally unreferenced parameter
// 1155 
// 1156   // SourceAddr + SrcEPIntf + ClusterID +  addrMode.
// 1157   len = Z_EXTADDR_LEN + 1 + sizeof( cId_t ) + sizeof( uint8 );
// 1158   if ( destinationAddr->addrMode == Addr64Bit )
// 1159     len += Z_EXTADDR_LEN + 1;     // +1 for DstEPIntf
// 1160   else if ( destinationAddr->addrMode == AddrGroup )
// 1161     len += sizeof ( uint16 );
// 1162 
// 1163   pBuf = osal_cpyExtAddr( pBuf, SourceAddr );
// 1164   *pBuf++ = SrcEndPoint;
// 1165 
// 1166   *pBuf++ = LO_UINT16( ClusterID );
// 1167 
// 1168   *pBuf++ = HI_UINT16( ClusterID );
// 1169   *pBuf++ = destinationAddr->addrMode;
// 1170   if ( destinationAddr->addrMode == Addr64Bit )
// 1171   {
// 1172     pBuf = osal_cpyExtAddr( pBuf, destinationAddr->addr.extAddr );
// 1173     *pBuf = DstEndPoint;
// 1174   }
// 1175   else if ( destinationAddr->addrMode == AddrGroup )
// 1176   {
// 1177     *pBuf++ = LO_UINT16( destinationAddr->addr.shortAddr );
// 1178     *pBuf++ = HI_UINT16( destinationAddr->addr.shortAddr );
// 1179   }
// 1180 
// 1181   FillAndSendTxOptions( &ZDP_TransID, dstAddr, BindOrUnbind, len, AF_MSG_ACK_REQUEST );
// 1182 }
// 1183 
// 1184 /*********************************************************************
// 1185  * Network Management
// 1186  */
// 1187 
// 1188 /*********************************************************************
// 1189  * @fn          ZDP_MgmtNwkDiscReq
// 1190  *
// 1191  * @brief       This builds and send a Mgmt_NWK_Disc_req message. This
// 1192  *              function sends a unicast message.
// 1193  *
// 1194  * @param       dstAddr - destination address of the message
// 1195  * @param       ScanChannels - 32 bit address bit map
// 1196  * @param       StartIndex - Starting index within the reporting network
// 1197  *                           list
// 1198  * @param       SecurityEnable - Security Options
// 1199  *
// 1200  * @return      afStatus_t
// 1201  */

        RSEG CODE:CODE:NOROOT(1)
?Subroutine1:
          CFI Block cfiBlock2 Using cfiCommon0
          CFI NoFunction
          CFI CFA SP+12
          CFI R8L Frame(CFA, -12)
          CFI R9L Frame(CFA, -10)
          CFI R10L Frame(CFA, -8)
          CFI R11L Frame(CFA, -6)
// 1202 afStatus_t ZDP_MgmtNwkDiscReq( zAddrType_t *dstAddr,
// 1203                                uint32 ScanChannels,
// 1204                                byte ScanDuration,
// 1205                                byte StartIndex,
// 1206                                byte SecurityEnable )
// 1207 {
// 1208   uint8 *pBuf = ZDP_TmpBuf;
// 1209   byte len = sizeof( uint32 )+1+1;  // ScanChannels + ScanDuration + StartIndex.
// 1210 
// 1211   (void)SecurityEnable;  // Intentionally unreferenced parameter
// 1212 
// 1213   pBuf = osal_buffer_uint32( pBuf, ScanChannels );
// 1214 
// 1215   *pBuf++ = ScanDuration;
// 1216   *pBuf = StartIndex;
// 1217 
// 1218   return fillAndSend( &ZDP_TransID, dstAddr, Mgmt_NWK_Disc_req, len );
        CALLA   #??Subroutine12_0
??CrossCallReturnLabel_36:
        POPM.W  #0x4, R11
          CFI CFA SP+4
          CFI R8L SameValue
          CFI R9L SameValue
          CFI R10L SameValue
          CFI R11L SameValue
        RETA
          CFI EndBlock cfiBlock2
// 1219 }
// 1220 
// 1221 /*********************************************************************
// 1222  * @fn          ZDP_MgmtDirectJoinReq
// 1223  *
// 1224  * @brief       This builds and send a Mgmt_Direct_Join_req message. This
// 1225  *              function sends a unicast message.
// 1226  *
// 1227  * @param       dstAddr - destination address of the message
// 1228  * @param       deviceAddr - 64 bit IEEE Address
// 1229  * @param       SecurityEnable - Security Options
// 1230  *
// 1231  * @return      afStatus_t
// 1232  */

        RSEG CODE:CODE:NOROOT(1)
?Subroutine11:
          CFI Block cfiCond3 Using cfiCommon0
          CFI Function ZDP_MgmtLeaveReq
          CFI Conditional ??CrossCallReturnLabel_28
          CFI R8L Frame(CFA, -12)
          CFI R9L Frame(CFA, -10)
          CFI R10L Frame(CFA, -8)
          CFI R11L Frame(CFA, -6)
          CFI CFA SP+16
          CFI Block cfiCond4 Using cfiCommon0
          CFI (cfiCond4) Function ZDP_MgmtDirectJoinReq
          CFI (cfiCond4) Conditional ??CrossCallReturnLabel_29
          CFI (cfiCond4) R10L Frame(CFA, -8)
          CFI (cfiCond4) R11L Frame(CFA, -6)
          CFI (cfiCond4) CFA SP+12
          CFI Block cfiPicker5 Using cfiCommon1
          CFI (cfiPicker5) NoFunction
          CFI (cfiPicker5) Picker
// 1233 afStatus_t ZDP_MgmtDirectJoinReq( zAddrType_t *dstAddr,
// 1234                                uint8 *deviceAddr,
// 1235                                byte capInfo,
// 1236                                byte SecurityEnable )
// 1237 {
// 1238   (void)SecurityEnable;  // Intentionally unreferenced parameter
// 1239 
// 1240   osal_cpyExtAddr( ZDP_TmpBuf, deviceAddr );
        MOV.W   &ZDP_TmpBuf, R12
          CFI EndBlock cfiCond3
          CFI EndBlock cfiCond4
          CFI EndBlock cfiPicker5
        REQUIRE ??Subroutine25_0
        // Fall through to label ??Subroutine25_0

        RSEG CODE:CODE:NOROOT(1)
??Subroutine25_0:
          CFI Block cfiCond6 Using cfiCommon0
          CFI Function ZDP_DeviceAnnce
          CFI Conditional ??CrossCallReturnLabel_30
          CFI R10L Frame(CFA, -6)
          CFI CFA SP+20
          CFI Block cfiCond7 Using cfiCommon0
          CFI (cfiCond7) Function ZDP_MgmtLeaveReq
          CFI (cfiCond7) Conditional ??CrossCallReturnLabel_28
          CFI (cfiCond7) R8L Frame(CFA, -12)
          CFI (cfiCond7) R9L Frame(CFA, -10)
          CFI (cfiCond7) R10L Frame(CFA, -8)
          CFI (cfiCond7) R11L Frame(CFA, -6)
          CFI (cfiCond7) CFA SP+16
          CFI Block cfiCond8 Using cfiCommon0
          CFI (cfiCond8) Function ZDP_MgmtDirectJoinReq
          CFI (cfiCond8) Conditional ??CrossCallReturnLabel_29
          CFI (cfiCond8) R10L Frame(CFA, -8)
          CFI (cfiCond8) R11L Frame(CFA, -6)
          CFI (cfiCond8) CFA SP+12
          CFI Block cfiPicker9 Using cfiCommon1
          CFI (cfiPicker9) NoFunction
          CFI (cfiPicker9) Picker
        CALLA   #sAddrExtCpy
// 1241   ZDP_TmpBuf[Z_EXTADDR_LEN] = capInfo;
        MOV.W   &ZDP_TmpBuf, R15
        RETA
          CFI EndBlock cfiCond6
          CFI EndBlock cfiCond7
          CFI EndBlock cfiCond8
          CFI EndBlock cfiPicker9

        RSEG CODE:CODE:NOROOT(1)
ZDP_MgmtPermitJoinReq:
          CFI Block cfiBlock10 Using cfiCommon0
          CFI Function ZDP_MgmtPermitJoinReq
        FUNCALL ZDP_MgmtPermitJoinReq, fillAndSend
        LOCFRAME CSTACK, 4, STACK
        MOV.W   &ZDP_TmpBuf, R15
        MOV.B   R13, 0(R15)
        MOV.B   R14, 0x1(R15)
        MOV.B   #0x2, R15
        MOV.W   #0x36, R14
          CFI EndBlock cfiBlock10
        REQUIRE ?Subroutine5
        // Fall through to label ?Subroutine5

        RSEG CODE:CODE:NOROOT(1)
?Subroutine5:
          CFI Block cfiBlock11 Using cfiCommon0
          CFI NoFunction
        MOV.W   R12, R13
        MOV.W   #ZDP_TransID, R12
        BRA     #fillAndSend
          CFI EndBlock cfiBlock11

        RSEG CODE:CODE:NOROOT(1)
ZDP_MgmtDirectJoinReq:
          CFI Block cfiBlock12 Using cfiCommon0
          CFI Function ZDP_MgmtDirectJoinReq
        FUNCALL ZDP_MgmtDirectJoinReq, sAddrExtCpy
        LOCFRAME CSTACK, 8, STACK
        FUNCALL ZDP_MgmtDirectJoinReq, fillAndSend
        LOCFRAME CSTACK, 8, STACK
        PUSHM.W #0x2, R11
          CFI R10L Frame(CFA, -8)
          CFI R11L Frame(CFA, -6)
          CFI CFA SP+8
        MOV.W   R12, R11
        MOV.B   R14, R10
        CALLA   #?Subroutine11
??CrossCallReturnLabel_29:
        MOV.B   R10, 0x8(R15)
        MOV.B   #0x9, R15
        MOV.W   #0x35, R14
          CFI EndBlock cfiBlock12
        REQUIRE ?Subroutine0
        // Fall through to label ?Subroutine0

        RSEG CODE:CODE:NOROOT(1)
?Subroutine0:
          CFI Block cfiBlock13 Using cfiCommon0
          CFI NoFunction
          CFI CFA SP+8
          CFI R10L Frame(CFA, -8)
          CFI R11L Frame(CFA, -6)
        MOV.W   R11, R13
        CALLA   #??Subroutine12_0
??CrossCallReturnLabel_35:
        POPM.W  #0x2, R11
          CFI CFA SP+4
          CFI R10L SameValue
          CFI R11L SameValue
        RETA
          CFI EndBlock cfiBlock13

        RSEG CODE:CODE:NOROOT(1)
ZDP_MgmtNwkDiscReq:
          CFI Block cfiBlock14 Using cfiCommon0
          CFI Function ZDP_MgmtNwkDiscReq
        FUNCALL ZDP_MgmtNwkDiscReq, osal_buffer_uint32
        LOCFRAME CSTACK, 12, STACK
        FUNCALL ZDP_MgmtNwkDiscReq, fillAndSend
        LOCFRAME CSTACK, 12, STACK
        PUSHM.W #0x4, R11
          CFI R8L Frame(CFA, -12)
          CFI R9L Frame(CFA, -10)
          CFI R10L Frame(CFA, -8)
          CFI R11L Frame(CFA, -6)
          CFI CFA SP+12
        MOV.W   R12, R11
        MOV.B   R13, R10
        MOV.B   0xc(SP), R8
        MOV.W   &ZDP_TmpBuf, R12
        CALLA   #osal_buffer_uint32
        MOV.B   R10, 0(R12)
        ADD.W   #0x1, R12
        MOV.B   R8, 0(R12)
        MOV.B   #0x6, R15
        MOV.W   #0x30, R14
        MOV.W   R11, R13
        JMP     ?Subroutine1
          CFI EndBlock cfiBlock14

        RSEG CODE:CODE:NOROOT(1)
ZDP_BindUnbindReq:
          CFI Block cfiBlock15 Using cfiCommon0
          CFI Function ZDP_BindUnbindReq
        FUNCALL ZDP_BindUnbindReq, sAddrExtCpy
        LOCFRAME CSTACK, 16, STACK
        FUNCALL ZDP_BindUnbindReq, sAddrExtCpy
        LOCFRAME CSTACK, 16, STACK
        FUNCALL ZDP_BindUnbindReq, fillAndSend
        LOCFRAME CSTACK, 16, STACK
        PUSHM.W #0x6, R11
          CFI R6L Frame(CFA, -16)
          CFI R7L Frame(CFA, -14)
          CFI R8L Frame(CFA, -12)
          CFI R9L Frame(CFA, -10)
          CFI R10L Frame(CFA, -8)
          CFI R11L Frame(CFA, -6)
          CFI CFA SP+16
        MOV.W   R12, R8
        MOV.W   R13, R9
        MOV.W   R14, R13
        MOV.B   R15, R11
        MOV.B   0x14(SP), R6
        MOV.W   &ZDP_TmpBuf, R12
        MOV.B   #0xc, R10
        MOV.W   0x12(SP), R7
        MOV.B   0x8(R7), R14
        CMP.B   #0x3, R14
        JNE     ??ZDP_BindUnbindReq_0
        MOV.B   #0x15, R10
        JMP     ??ZDP_BindUnbindReq_1
??ZDP_BindUnbindReq_0:
        CMP.B   #0x1, R14
        JNE     ??ZDP_BindUnbindReq_1
        MOV.B   #0xe, R10
??ZDP_BindUnbindReq_1:
        CALLA   #sAddrExtCpy
        MOV.B   R11, 0(R12)
        ADD.W   #0x1, R12
        MOV.W   0x10(SP), R14
        CALLA   #?Subroutine9
??CrossCallReturnLabel_1:
        MOV.B   0x8(R7), 0(R12)
        ADD.W   #0x1, R12
        MOV.B   0x8(R7), R14
        CMP.B   #0x3, R14
        JNE     ??ZDP_BindUnbindReq_2
        MOV.W   R7, R13
        CALLA   #sAddrExtCpy
        MOV.B   R6, 0(R12)
        JMP     ??ZDP_BindUnbindReq_3
??ZDP_BindUnbindReq_2:
        CMP.B   #0x1, R14
        JNE     ??ZDP_BindUnbindReq_3
        MOV.B   @R7, 0(R12)
        ADD.W   #0x1, R12
        MOV.B   0x1(R7), 0(R12)
??ZDP_BindUnbindReq_3:
        MOV.B   #0x10, &ZDP_TxOptions
        MOV.B   R10, R15
        MOV.W   R8, R14
        MOV.W   R9, R13
        MOV.W   #ZDP_TransID, R12
          CFI EndBlock cfiBlock15
        REQUIRE ?Subroutine2
        // Fall through to label ?Subroutine2

        RSEG CODE:CODE:NOROOT(1)
?Subroutine2:
          CFI Block cfiBlock16 Using cfiCommon0
          CFI NoFunction
          CFI CFA SP+16
          CFI R6L Frame(CFA, -16)
          CFI R7L Frame(CFA, -14)
          CFI R8L Frame(CFA, -12)
          CFI R9L Frame(CFA, -10)
          CFI R10L Frame(CFA, -8)
          CFI R11L Frame(CFA, -6)
        CALLA   #??Subroutine10_0
??CrossCallReturnLabel_33:
        POPM.W  #0x6, R11
          CFI CFA SP+4
          CFI R6L SameValue
          CFI R7L SameValue
          CFI R8L SameValue
          CFI R9L SameValue
          CFI R10L SameValue
          CFI R11L SameValue
        RETA
          CFI EndBlock cfiBlock16

        RSEG CODE:CODE:NOROOT(1)
ZDP_EndDeviceBindReq:
          CFI Block cfiBlock17 Using cfiCommon0
          CFI Function ZDP_EndDeviceBindReq
        FUNCALL ZDP_EndDeviceBindReq, NLME_GetShortAddr
        LOCFRAME CSTACK, 20, STACK
        FUNCALL ZDP_EndDeviceBindReq, NLME_GetExtAddr
        LOCFRAME CSTACK, 20, STACK
        FUNCALL ZDP_EndDeviceBindReq, sAddrExtCpy
        LOCFRAME CSTACK, 20, STACK
        FUNCALL ZDP_EndDeviceBindReq, fillAndSend
        LOCFRAME CSTACK, 20, STACK
        PUSHM.W #0x8, R11
          CFI R4L Frame(CFA, -20)
          CFI R5L Frame(CFA, -18)
          CFI R6L Frame(CFA, -16)
          CFI R7L Frame(CFA, -14)
          CFI R8L Frame(CFA, -12)
          CFI R9L Frame(CFA, -10)
          CFI R10L Frame(CFA, -8)
          CFI R11L Frame(CFA, -6)
          CFI CFA SP+20
        MOV.W   R12, R8
        MOV.W   R13, R9
        MOV.B   R14, R11
        MOV.W   R15, R5
        MOV.W   &ZDP_TmpBuf, R6
        MOV.B   0x14(SP), R7
        MOV.B   0x18(SP), R4
        MOV.B   R7, R10
        ADD.B   R4, R10
        RLA.B   R10
        ADD.B   #0xf, R10
        CMP.B   #0x4f, R10
        JNC     ??ZDP_EndDeviceBindReq_2
        MOV.B   #0x10, R12
        JMP     ??ZDP_EndDeviceBindReq_3
??ZDP_EndDeviceBindReq_2:
        CALLA   #NLME_GetShortAddr
        CMP.W   R12, R9
        JEQ     ??ZDP_EndDeviceBindReq_4
        MOV.B   #0x2, R12
        JMP     ??ZDP_EndDeviceBindReq_3
??ZDP_EndDeviceBindReq_4:
        MOV.B   R9, 0(R6)
        ADD.W   #0x1, R6
        RPT     #0x8
        RRUX.W  R9
        MOV.B   R9, 0(R6)
        ADD.W   #0x1, R6
        CALLA   #NLME_GetExtAddr
        MOV.W   R12, R13
        MOV.W   R6, R12
        CALLA   #sAddrExtCpy
        MOV.W   R12, R6
        MOV.B   R11, 0(R12)
        ADD.W   #0x1, R6
        MOV.B   R5, 0(R6)
        ADD.W   #0x1, R6
        RPT     #0x8
        RRUX.W  R5
        MOV.B   R5, 0(R6)
        ADD.W   #0x1, R6
        MOV.B   R7, 0(R6)
        ADD.W   #0x1, R6
        MOV.B   #0x0, R14
        MOV.W   0x16(SP), R15
        JMP     ??ZDP_EndDeviceBindReq_5
??ZDP_EndDeviceBindReq_0:
        MOV.B   R14, R13
        RLA.W   R13
        MOV.W   R15, R11
        ADD.W   R13, R11
        CALLA   #?Subroutine16
??ZDP_EndDeviceBindReq_5:
        CMP.B   R7, R14
        JNC     ??ZDP_EndDeviceBindReq_0
        MOV.B   R4, 0(R6)
        ADD.W   #0x1, R6
        MOV.B   #0x0, R14
        MOV.W   0x1a(SP), R15
        JMP     ??ZDP_EndDeviceBindReq_6
??ZDP_EndDeviceBindReq_1:
        MOV.B   R14, R7
        RLA.W   R7
        MOV.W   R15, R11
        ADD.W   R7, R11
        CALLA   #?Subroutine16
??ZDP_EndDeviceBindReq_6:
        CMP.B   R4, R14
        JNC     ??ZDP_EndDeviceBindReq_1
        MOV.B   R10, R15
        MOV.W   #0x20, R14
        MOV.W   R8, R13
        CALLA   #??Subroutine12_0
??ZDP_EndDeviceBindReq_3:
        POPM.W  #0x8, R11
          CFI R10L SameValue
          CFI R11L SameValue
          CFI R4L SameValue
          CFI R5L SameValue
          CFI R6L SameValue
          CFI R7L SameValue
          CFI R8L SameValue
          CFI R9L SameValue
          CFI CFA SP+4
        RETA
          CFI EndBlock cfiBlock17

        RSEG CODE:CODE:NOROOT(1)
?Subroutine16:
          CFI Block cfiCond18 Using cfiCommon0
          CFI Function ZDP_EndDeviceBindReq
          CFI Conditional ??ZDP_EndDeviceBindReq_5
          CFI R4L Frame(CFA, -20)
          CFI R5L Frame(CFA, -18)
          CFI R6L Frame(CFA, -16)
          CFI R7L Frame(CFA, -14)
          CFI R8L Frame(CFA, -12)
          CFI R9L Frame(CFA, -10)
          CFI R10L Frame(CFA, -8)
          CFI R11L Frame(CFA, -6)
          CFI CFA SP+24
          CFI Block cfiCond19 Using cfiCommon0
          CFI (cfiCond19) Function ZDP_EndDeviceBindReq
          CFI (cfiCond19) Conditional ??ZDP_EndDeviceBindReq_6
          CFI (cfiCond19) R4L Frame(CFA, -20)
          CFI (cfiCond19) R5L Frame(CFA, -18)
          CFI (cfiCond19) R6L Frame(CFA, -16)
          CFI (cfiCond19) R7L Frame(CFA, -14)
          CFI (cfiCond19) R8L Frame(CFA, -12)
          CFI (cfiCond19) R9L Frame(CFA, -10)
          CFI (cfiCond19) R10L Frame(CFA, -8)
          CFI (cfiCond19) R11L Frame(CFA, -6)
          CFI (cfiCond19) CFA SP+24
          CFI Block cfiPicker20 Using cfiCommon1
          CFI (cfiPicker20) NoFunction
          CFI (cfiPicker20) Picker
        MOV.B   @R11, 0(R6)
        ADD.W   #0x1, R6
        MOV.B   0x1(R11), 0(R6)
        ADD.W   #0x1, R6
        ADD.B   #0x1, R14
        RETA
          CFI EndBlock cfiCond18
          CFI EndBlock cfiCond19
          CFI EndBlock cfiPicker20

        RSEG CODE:CODE:NOROOT(1)
ZDP_GenericRsp:
          CFI Block cfiBlock21 Using cfiCommon0
          CFI Function ZDP_GenericRsp
        FUNCALL ZDP_GenericRsp, fillAndSend
        LOCFRAME CSTACK, 8, STACK
        PUSH.W  R10
          CFI R10L Frame(CFA, -6)
          CFI CFA SP+6
        PUSH.B  R12
          CFI CFA SP+8
        MOV.W   0x8(SP), R12
        MOV.W   &ZDP_TmpBuf, R10
        MOV.B   R14, 0(R10)
        MOV.B   R15, 0x1(R10)
        RPT     #0x8
        RRUX.W  R15
        MOV.B   R15, 0x2(R10)
        MOV.B   #0x0, 0x3(R10)
        MOV.B   #0x4, R15
        MOV.W   R12, R14
        CALLA   #?Subroutine13
??CrossCallReturnLabel_5:
        ADD.W   #0x2, SP
          CFI CFA SP+6
        POP.W   R10
          CFI R10L SameValue
          CFI CFA SP+4
        RETA
          CFI EndBlock cfiBlock21

        RSEG CODE:CODE:NOROOT(1)
?Subroutine13:
          CFI Block cfiCond22 Using cfiCommon0
          CFI Function ZDP_MgmtLqiRsp
          CFI Conditional ??CrossCallReturnLabel_7
          CFI R4L Frame(CFA, -20)
          CFI R5L Frame(CFA, -18)
          CFI R6L Frame(CFA, -16)
          CFI R7L Frame(CFA, -14)
          CFI R8L Frame(CFA, -12)
          CFI R9L Frame(CFA, -10)
          CFI R10L Frame(CFA, -8)
          CFI R11L Frame(CFA, -6)
          CFI CFA SP+26
          CFI Block cfiCond23 Using cfiCommon0
          CFI (cfiCond23) Function ZDP_MgmtLqiRsp
          CFI (cfiCond23) Conditional ??CrossCallReturnLabel_6
          CFI (cfiCond23) R4L Frame(CFA, -20)
          CFI (cfiCond23) R5L Frame(CFA, -18)
          CFI (cfiCond23) R6L Frame(CFA, -16)
          CFI (cfiCond23) R7L Frame(CFA, -14)
          CFI (cfiCond23) R8L Frame(CFA, -12)
          CFI (cfiCond23) R9L Frame(CFA, -10)
          CFI (cfiCond23) R10L Frame(CFA, -8)
          CFI (cfiCond23) R11L Frame(CFA, -6)
          CFI (cfiCond23) CFA SP+26
          CFI Block cfiCond24 Using cfiCommon0
          CFI (cfiCond24) Function ZDP_GenericRsp
          CFI (cfiCond24) Conditional ??CrossCallReturnLabel_5
          CFI (cfiCond24) R10L Frame(CFA, -6)
          CFI (cfiCond24) CFA SP+12
          CFI Block cfiCond25 Using cfiCommon0
          CFI (cfiCond25) Function ZDP_UserDescRsp
          CFI (cfiCond25) Conditional ??CrossCallReturnLabel_4
          CFI (cfiCond25) R10L Frame(CFA, -8)
          CFI (cfiCond25) R11L Frame(CFA, -6)
          CFI (cfiCond25) CFA SP+14
          CFI Block cfiPicker26 Using cfiCommon1
          CFI (cfiPicker26) NoFunction
          CFI (cfiPicker26) Picker
        MOV.W   SP, R12
        ADD.W   #0x4, R12
        BRA     #fillAndSend
          CFI EndBlock cfiCond22
          CFI EndBlock cfiCond23
          CFI EndBlock cfiCond24
          CFI EndBlock cfiCond25
          CFI EndBlock cfiPicker26

        RSEG CODE:CODE:NOROOT(1)
ZDP_ServerDiscRsp:
          CFI Block cfiBlock27 Using cfiCommon0
          CFI Function ZDP_ServerDiscRsp
        FUNCALL ZDP_ServerDiscRsp, fillAndSend
        LOCFRAME CSTACK, 6, STACK
        PUSH.B  R12
          CFI CFA SP+6
        MOV.W   &ZDP_TmpBuf, R15
        MOV.B   R14, 0(R15)
        ADD.W   #0x1, R15
        MOV.W   0x6(SP), R14
        MOV.B   R14, 0(R15)
        ADD.W   #0x1, R15
        RPT     #0x8
        RRUX.W  R14
        MOV.B   R14, 0(R15)
        MOV.B   #0x10, &ZDP_TxOptions
        MOV.B   #0x3, R15
        MOV.W   #0x8015, R14
        CALLA   #?Subroutine10
??CrossCallReturnLabel_31:
        ADD.W   #0x2, SP
          CFI CFA SP+4
        RETA
          CFI EndBlock cfiBlock27

        RSEG CODE:CODE:NOROOT(1)
ZDP_UserDescRsp:
          CFI Block cfiBlock28 Using cfiCommon0
          CFI Function ZDP_UserDescRsp
        FUNCALL ZDP_UserDescRsp, osal_memcpy
        LOCFRAME CSTACK, 10, STACK
        FUNCALL ZDP_UserDescRsp, fillAndSend
        LOCFRAME CSTACK, 10, STACK
        PUSHM.W #0x2, R11
          CFI R10L Frame(CFA, -8)
          CFI R11L Frame(CFA, -6)
          CFI CFA SP+8
        PUSH.B  R12
          CFI CFA SP+10
        MOV.W   R13, R11
        MOV.W   R15, R13
        MOV.W   &ZDP_TmpBuf, R12
        MOV.B   @R15, R10
        ADD.B   #0x4, R10
        MOV.B   #0x0, 0(R12)
        ADD.W   #0x1, R12
        CALLA   #?Subroutine9
??CrossCallReturnLabel_2:
        MOV.B   @R15, 0(R12)
        ADD.W   #0x1, R12
        MOV.B   @R15, R14
        ADD.W   #0x1, R13
        CALLA   #osal_memcpy
        MOV.B   R10, R15
        MOV.W   #0x8011, R14
        MOV.W   R11, R13
        CALLA   #?Subroutine13
??CrossCallReturnLabel_4:
        ADD.W   #0x2, SP
          CFI CFA SP+8
        POPM.W  #0x2, R11
          CFI R10L SameValue
          CFI R11L SameValue
          CFI CFA SP+4
        RETA
          CFI EndBlock cfiBlock28

        RSEG CODE:CODE:NOROOT(1)
?Subroutine9:
          CFI Block cfiCond29 Using cfiCommon0
          CFI Function ZDP_MgmtNwkUpdateNotify
          CFI Conditional ??CrossCallReturnLabel_0
          CFI R4L Frame(CFA, -20)
          CFI R5L Frame(CFA, -18)
          CFI R6L Frame(CFA, -16)
          CFI R7L Frame(CFA, -14)
          CFI R8L Frame(CFA, -12)
          CFI R9L Frame(CFA, -10)
          CFI R10L Frame(CFA, -8)
          CFI R11L Frame(CFA, -6)
          CFI CFA SP+28
          CFI Block cfiCond30 Using cfiCommon0
          CFI (cfiCond30) Function ZDP_BindUnbindReq
          CFI (cfiCond30) Conditional ??CrossCallReturnLabel_1
          CFI (cfiCond30) R6L Frame(CFA, -16)
          CFI (cfiCond30) R7L Frame(CFA, -14)
          CFI (cfiCond30) R8L Frame(CFA, -12)
          CFI (cfiCond30) R9L Frame(CFA, -10)
          CFI (cfiCond30) R10L Frame(CFA, -8)
          CFI (cfiCond30) R11L Frame(CFA, -6)
          CFI (cfiCond30) CFA SP+20
          CFI Block cfiCond31 Using cfiCommon0
          CFI (cfiCond31) Function ZDP_UserDescRsp
          CFI (cfiCond31) Conditional ??CrossCallReturnLabel_2
          CFI (cfiCond31) R10L Frame(CFA, -8)
          CFI (cfiCond31) R11L Frame(CFA, -6)
          CFI (cfiCond31) CFA SP+14
          CFI Block cfiCond32 Using cfiCommon0
          CFI (cfiCond32) Function ZDP_EPRsp
          CFI (cfiCond32) Conditional ??CrossCallReturnLabel_3
          CFI (cfiCond32) R8L Frame(CFA, -12)
          CFI (cfiCond32) R9L Frame(CFA, -10)
          CFI (cfiCond32) R10L Frame(CFA, -8)
          CFI (cfiCond32) R11L Frame(CFA, -6)
          CFI (cfiCond32) CFA SP+18
          CFI Block cfiPicker33 Using cfiCommon1
          CFI (cfiPicker33) NoFunction
          CFI (cfiPicker33) Picker
        CALLA   #?Subroutine21
??CrossCallReturnLabel_17:
        ADD.W   #0x1, R12
        RETA
          CFI EndBlock cfiCond29
          CFI EndBlock cfiCond30
          CFI EndBlock cfiCond31
          CFI EndBlock cfiCond32
          CFI EndBlock cfiPicker33

        RSEG CODE:CODE:NOROOT(1)
?Subroutine21:
          CFI Block cfiCond34 Using cfiCommon0
          CFI Function ZDP_MgmtNwkUpdateReq
          CFI Conditional ??ZDP_MgmtNwkUpdateReq_1
          CFI R6L Frame(CFA, -16)
          CFI R7L Frame(CFA, -14)
          CFI R8L Frame(CFA, -12)
          CFI R9L Frame(CFA, -10)
          CFI R10L Frame(CFA, -8)
          CFI R11L Frame(CFA, -6)
          CFI CFA SP+20
          CFI Block cfiCond35 Using cfiCommon0
          CFI (cfiCond35) Function ZDP_MgmtNwkUpdateNotify
          CFI (cfiCond35) Conditional ??CrossCallReturnLabel_17, ??CrossCallReturnLabel_0
          CFI (cfiCond35) R4L Frame(CFA, -20)
          CFI (cfiCond35) R5L Frame(CFA, -18)
          CFI (cfiCond35) R6L Frame(CFA, -16)
          CFI (cfiCond35) R7L Frame(CFA, -14)
          CFI (cfiCond35) R8L Frame(CFA, -12)
          CFI (cfiCond35) R9L Frame(CFA, -10)
          CFI (cfiCond35) R10L Frame(CFA, -8)
          CFI (cfiCond35) R11L Frame(CFA, -6)
          CFI (cfiCond35) CFA SP+32
          CFI Block cfiCond36 Using cfiCommon0
          CFI (cfiCond36) Function ZDP_BindUnbindReq
          CFI (cfiCond36) Conditional ??CrossCallReturnLabel_17, ??CrossCallReturnLabel_1
          CFI (cfiCond36) R6L Frame(CFA, -16)
          CFI (cfiCond36) R7L Frame(CFA, -14)
          CFI (cfiCond36) R8L Frame(CFA, -12)
          CFI (cfiCond36) R9L Frame(CFA, -10)
          CFI (cfiCond36) R10L Frame(CFA, -8)
          CFI (cfiCond36) R11L Frame(CFA, -6)
          CFI (cfiCond36) CFA SP+24
          CFI Block cfiCond37 Using cfiCommon0
          CFI (cfiCond37) Function ZDP_UserDescRsp
          CFI (cfiCond37) Conditional ??CrossCallReturnLabel_17, ??CrossCallReturnLabel_2
          CFI (cfiCond37) R10L Frame(CFA, -8)
          CFI (cfiCond37) R11L Frame(CFA, -6)
          CFI (cfiCond37) CFA SP+18
          CFI Block cfiCond38 Using cfiCommon0
          CFI (cfiCond38) Function ZDP_EPRsp
          CFI (cfiCond38) Conditional ??CrossCallReturnLabel_17, ??CrossCallReturnLabel_3
          CFI (cfiCond38) R8L Frame(CFA, -12)
          CFI (cfiCond38) R9L Frame(CFA, -10)
          CFI (cfiCond38) R10L Frame(CFA, -8)
          CFI (cfiCond38) R11L Frame(CFA, -6)
          CFI (cfiCond38) CFA SP+22
          CFI Block cfiPicker39 Using cfiCommon1
          CFI (cfiPicker39) NoFunction
          CFI (cfiPicker39) Picker
        MOV.B   R14, 0(R12)
        ADD.W   #0x1, R12
        RPT     #0x8
        RRUX.W  R14
        MOV.B   R14, 0(R12)
        RETA
          CFI EndBlock cfiCond34
          CFI EndBlock cfiCond35
          CFI EndBlock cfiCond36
          CFI EndBlock cfiCond37
          CFI EndBlock cfiCond38
          CFI EndBlock cfiPicker39

        RSEG CODE:CODE:NOROOT(1)
ZDP_EPRsp:
          CFI Block cfiBlock40 Using cfiCommon0
          CFI Function ZDP_EPRsp
        FUNCALL ZDP_EPRsp, osal_memcpy
        LOCFRAME CSTACK, 14, STACK
        FUNCALL ZDP_EPRsp, fillAndSend
        LOCFRAME CSTACK, 14, STACK
        PUSHM.W #0x4, R11
          CFI R8L Frame(CFA, -12)
          CFI R9L Frame(CFA, -10)
          CFI R10L Frame(CFA, -8)
          CFI R11L Frame(CFA, -6)
          CFI CFA SP+12
        PUSH.B  R13
          CFI CFA SP+14
        MOV.W   R12, R11
        MOV.W   R14, R8
        MOV.W   0x12(SP), R13
        MOV.W   &ZDP_TmpBuf, R12
        MOV.B   #0x4, R10
        CMP.W   #0x8006, R11
        JEQ     ??ZDP_EPRsp_0
        MOV.B   #0x0, R9
        JMP     ??ZDP_EPRsp_1
??ZDP_EPRsp_0:
        MOV.B   #0x10, R9
??ZDP_EPRsp_1:
        MOV.B   R15, 0(R12)
        ADD.W   #0x1, R12
        MOV.W   0xe(SP), R14
        CALLA   #?Subroutine9
??CrossCallReturnLabel_3:
        MOV.B   0x10(SP), R14
        MOV.B   R14, 0(R12)
        ADD.W   #0x1, R12
        CMP.B   #0x0, R14
        JEQ     ??ZDP_EPRsp_2
        MOV.B   R14, R10
        ADD.B   #0x4, R10
        CALLA   #osal_memcpy
??ZDP_EPRsp_2:
        MOV.B   R9, &ZDP_TxOptions
        MOV.B   R10, R15
        MOV.W   R11, R14
        MOV.W   R8, R13
        CALLA   #?Subroutine10
??CrossCallReturnLabel_32:
        ADD.W   #0x2, SP
          CFI CFA SP+12
        POPM.W  #0x4, R11
          CFI R10L SameValue
          CFI R11L SameValue
          CFI R8L SameValue
          CFI R9L SameValue
          CFI CFA SP+4
        RETA
          CFI EndBlock cfiBlock40

        RSEG CODE:CODE:NOROOT(1)
ZDP_SimpleDescMsg:
          CFI Block cfiBlock41 Using cfiCommon0
          CFI Function ZDP_SimpleDescMsg
        FUNCALL ZDP_SimpleDescMsg, fillAndSend
        LOCFRAME CSTACK, 12, STACK
        PUSHM.W #0x4, R11
          CFI R8L Frame(CFA, -12)
          CFI R9L Frame(CFA, -10)
          CFI R10L Frame(CFA, -8)
          CFI R11L Frame(CFA, -6)
          CFI CFA SP+12
        MOV.B   R13, R10
        MOV.W   R14, R15
        MOV.W   &ZDP_TmpBuf, R11
        CMP.B   #0x0, R13
        JNE     ??ZDP_SimpleDescMsg_2
        CMP.W   #0x0, R14
        JEQ     ??ZDP_SimpleDescMsg_2
        MOV.B   0x7(R14), R13
        ADD.B   0xa(R14), R13
        RLA.B   R13
        ADD.B   #0xc, R13
        CMP.B   #0x4f, R13
        JNC     ??ZDP_SimpleDescMsg_3
        MOV.B   #0x10, R12
        JMP     ??ZDP_SimpleDescMsg_4
??ZDP_SimpleDescMsg_2:
        MOV.B   #0x4, R13
??ZDP_SimpleDescMsg_3:
        MOV.B   R10, 0(R11)
        ADD.W   #0x1, R11
        MOV.B   &ZDAppNwkAddr, 0(R11)
        ADD.W   #0x1, R11
        MOV.B   &ZDAppNwkAddr + 1, 0(R11)
        ADD.W   #0x1, R11
        CMP.B   #0x5, R13
        JNC     ??ZDP_SimpleDescMsg_5
        MOV.B   R13, R14
        SUB.B   #0x4, R14
        MOV.B   R14, 0(R11)
        ADD.W   #0x1, R11
        MOV.B   @R15, 0(R11)
        ADD.W   #0x1, R11
        MOV.B   0x2(R15), 0(R11)
        ADD.W   #0x1, R11
        MOV.B   0x3(R15), 0(R11)
        ADD.W   #0x1, R11
        MOV.B   0x4(R15), 0(R11)
        ADD.W   #0x1, R11
        MOV.B   0x5(R15), 0(R11)
        ADD.W   #0x1, R11
        MOV.B   0x6(R15), R14
        RPT     #0x4
        RLAX.B  R14
        MOV.B   R14, 0(R11)
        ADD.W   #0x1, R11
        MOV.B   0x7(R15), 0(R11)
        ADD.W   #0x1, R11
        CMP.B   #0x0, 0x7(R15)
        JEQ     ??ZDP_SimpleDescMsg_6
        MOV.B   #0x0, R14
        JMP     ??ZDP_SimpleDescMsg_7
??ZDP_SimpleDescMsg_0:
        MOV.B   R14, R10
        RLA.W   R10
        MOV.W   0x8(R15), R8
        ADD.W   R10, R8
        MOV.B   @R8, 0(R11)
        ADD.W   #0x1, R11
        MOV.W   0x8(R15), R8
        CALLA   #?Subroutine19
??ZDP_SimpleDescMsg_7:
        CMP.B   0x7(R15), R14
        JNC     ??ZDP_SimpleDescMsg_0
??ZDP_SimpleDescMsg_6:
        MOV.B   0xa(R15), 0(R11)
        ADD.W   #0x1, R11
        CMP.B   #0x0, 0xa(R15)
        JEQ     ??ZDP_SimpleDescMsg_8
        MOV.B   #0x0, R14
??ZDP_SimpleDescMsg_1:
        CMP.B   0xa(R15), R14
        JC      ??ZDP_SimpleDescMsg_8
        MOV.B   R14, R10
        RLA.W   R10
        MOV.W   0xc(R15), R8
        ADD.W   R10, R8
        MOV.B   @R8, 0(R11)
        ADD.W   #0x1, R11
        MOV.W   0xc(R15), R8
        CALLA   #?Subroutine19
??CrossCallReturnLabel_16:
        JMP     ??ZDP_SimpleDescMsg_1
??ZDP_SimpleDescMsg_5:
        MOV.B   #0x0, 0(R11)
??ZDP_SimpleDescMsg_8:
        MOV.B   R13, R15
        MOV.W   #0x8004, R14
        CALLA   #?Subroutine14
??ZDP_SimpleDescMsg_4:
        POPM.W  #0x4, R11
          CFI R10L SameValue
          CFI R11L SameValue
          CFI R8L SameValue
          CFI R9L SameValue
          CFI CFA SP+4
        RETA
          CFI EndBlock cfiBlock41

        RSEG CODE:CODE:NOROOT(1)
?Subroutine19:
          CFI Block cfiCond42 Using cfiCommon0
          CFI Function ZDP_SimpleDescMsg
          CFI Conditional ??ZDP_SimpleDescMsg_7
          CFI R8L Frame(CFA, -12)
          CFI R9L Frame(CFA, -10)
          CFI R10L Frame(CFA, -8)
          CFI R11L Frame(CFA, -6)
          CFI CFA SP+16
          CFI Block cfiCond43 Using cfiCommon0
          CFI (cfiCond43) Function ZDP_SimpleDescMsg
          CFI (cfiCond43) Conditional ??CrossCallReturnLabel_16
          CFI (cfiCond43) R8L Frame(CFA, -12)
          CFI (cfiCond43) R9L Frame(CFA, -10)
          CFI (cfiCond43) R10L Frame(CFA, -8)
          CFI (cfiCond43) R11L Frame(CFA, -6)
          CFI (cfiCond43) CFA SP+16
          CFI Block cfiPicker44 Using cfiCommon1
          CFI (cfiPicker44) NoFunction
          CFI (cfiPicker44) Picker
        ADD.W   R10, R8
        MOV.B   0x1(R8), 0(R11)
        ADD.W   #0x1, R11
        ADD.B   #0x1, R14
        RETA
          CFI EndBlock cfiCond42
          CFI EndBlock cfiCond43
          CFI EndBlock cfiPicker44

        RSEG CODE:CODE:NOROOT(1)
ZDP_PowerDescMsg:
          CFI Block cfiBlock45 Using cfiCommon0
          CFI Function ZDP_PowerDescMsg
        FUNCALL ZDP_PowerDescMsg, fillAndSend
        LOCFRAME CSTACK, 6, STACK
        PUSH.W  R10
          CFI R10L Frame(CFA, -6)
          CFI CFA SP+6
        MOV.W   &ZDP_TmpBuf, R10
        MOV.B   #0x0, 0(R10)
        ADD.W   #0x1, R10
        MOV.B   R13, 0(R10)
        ADD.W   #0x1, R10
        RPT     #0x8
        RRUX.W  R13
        MOV.B   R13, 0(R10)
        ADD.W   #0x1, R10
        MOV.B   @R14, 0(R10)
        ADD.W   #0x1, R10
        MOV.W   @R14, R14
        MOV.W   R14, R15
        RPT     #0x8
        RRUX.W  R15
        AND.B   #0xf, R15
        RPT     #0xc
        RRUX.W  R14
        RPT     #0x4
        RLAX.B  R14
        BIS.B   R15, R14
        MOV.B   R14, 0(R10)
        MOV.B   #0x5, R15
        MOV.W   #0x8003, R14
        CALLA   #?Subroutine14
??CrossCallReturnLabel_8:
        POP.W   R10
          CFI R10L SameValue
          CFI CFA SP+4
        RETA
          CFI EndBlock cfiBlock45

        RSEG CODE:CODE:NOROOT(1)
?Subroutine14:
          CFI Block cfiCond46 Using cfiCommon0
          CFI Function ZDP_SimpleDescMsg
          CFI Conditional ??ZDP_SimpleDescMsg_4
          CFI R8L Frame(CFA, -12)
          CFI R9L Frame(CFA, -10)
          CFI R10L Frame(CFA, -8)
          CFI R11L Frame(CFA, -6)
          CFI CFA SP+16
          CFI Block cfiCond47 Using cfiCommon0
          CFI (cfiCond47) Function ZDP_PowerDescMsg
          CFI (cfiCond47) Conditional ??CrossCallReturnLabel_8
          CFI (cfiCond47) R10L Frame(CFA, -6)
          CFI (cfiCond47) CFA SP+10
          CFI Block cfiPicker48 Using cfiCommon1
          CFI (cfiPicker48) NoFunction
          CFI (cfiPicker48) Picker
        MOV.W   R12, R13
        ADD.W   #0x2, R13
        ADD.W   #0x11, R12
        BRA     #fillAndSend
          CFI EndBlock cfiCond46
          CFI EndBlock cfiCond47
          CFI EndBlock cfiPicker48

        RSEG CODE:CODE:NOROOT(1)
ZDP_NodeDescMsg:
          CFI Block cfiBlock49 Using cfiCommon0
          CFI Function ZDP_NodeDescMsg
        FUNCALL ZDP_NodeDescMsg, fillAndSend
        LOCFRAME CSTACK, 4, STACK
        MOV.W   &ZDP_TmpBuf, R15
        MOV.B   #0x0, 0(R15)
        ADD.W   #0x1, R15
        MOV.B   R13, 0(R15)
        ADD.W   #0x1, R15
        RPT     #0x8
        RRUX.W  R13
        MOV.B   R13, 0(R15)
        ADD.W   #0x1, R15
        MOV.B   @R14, R13
        AND.B   #0x1f, R13
        MOV.B   R13, 0(R15)
        ADD.W   #0x1, R15
        MOV.B   0x1(R14), 0(R15)
        ADD.W   #0x1, R15
        MOV.B   0x2(R14), 0(R15)
        ADD.W   #0x1, R15
        MOV.B   0x3(R14), 0(R15)
        ADD.W   #0x1, R15
        MOV.B   0x4(R14), 0(R15)
        ADD.W   #0x1, R15
        MOV.B   0x5(R14), 0(R15)
        ADD.W   #0x1, R15
        MOV.B   0x6(R14), 0(R15)
        ADD.W   #0x1, R15
        MOV.B   0x7(R14), 0(R15)
        ADD.W   #0x1, R15
        MOV.B   0x8(R14), 0(R15)
        ADD.W   #0x1, R15
        MOV.B   0x9(R14), 0(R15)
        ADD.W   #0x1, R15
        MOV.B   0xa(R14), 0(R15)
        ADD.W   #0x1, R15
        MOV.B   0xb(R14), 0(R15)
        ADD.W   #0x1, R15
        MOV.B   0xc(R14), 0(R15)
        MOV.B   #0x10, R15
        MOV.W   #0x8002, R14
        MOV.W   R12, R13
        ADD.W   #0x2, R13
        ADD.W   #0x11, R12
        BRA     #fillAndSend
          CFI EndBlock cfiBlock49

        RSEG CODE:CODE:NOROOT(1)
zdpProcessAddrReq:
          CFI Block cfiBlock50 Using cfiCommon0
          CFI Function zdpProcessAddrReq
        FUNCALL zdpProcessAddrReq, sAddrExtCmp
        LOCFRAME CSTACK, 36, STACK
        FUNCALL zdpProcessAddrReq, AssocGetWithExt
        LOCFRAME CSTACK, 36, STACK
        FUNCALL zdpProcessAddrReq, AssocGetWithShort
        LOCFRAME CSTACK, 36, STACK
        FUNCALL zdpProcessAddrReq, AddrMgrEntryGet
        LOCFRAME CSTACK, 36, STACK
        FUNCALL zdpProcessAddrReq, sAddrExtCpy
        LOCFRAME CSTACK, 36, STACK
        FUNCALL zdpProcessAddrReq, AssocMakeList
        LOCFRAME CSTACK, 36, STACK
        FUNCALL zdpProcessAddrReq, osal_mem_free
        LOCFRAME CSTACK, 36, STACK
        FUNCALL zdpProcessAddrReq, fillAndSend
        LOCFRAME CSTACK, 36, STACK
        PUSHM.W #0x8, R11
          CFI R4L Frame(CFA, -20)
          CFI R5L Frame(CFA, -18)
          CFI R6L Frame(CFA, -16)
          CFI R7L Frame(CFA, -14)
          CFI R8L Frame(CFA, -12)
          CFI R9L Frame(CFA, -10)
          CFI R10L Frame(CFA, -8)
          CFI R11L Frame(CFA, -6)
          CFI CFA SP+20
        SUB.W   #0x10, SP
          CFI CFA SP+36
        MOV.W   R12, R11
        MOV.W   #0xfffe, R9
        MOV.W   #0x0, R6
        MOV.W   0xe(R12), R15
        CMP.W   #0x0, R15
        JEQ     ??zdpProcessAddrReq_5
        MOV.W   #0x2, R7
        JMP     ??zdpProcessAddrReq_6
??zdpProcessAddrReq_5:
        MOV.W   #0x8, R7
??zdpProcessAddrReq_6:
        MOV.W   0x16(R12), R14
        MOV.W   R14, R13
        ADD.W   R7, R13
        MOV.B   @R13, R7
        MOV.W   #ZDAppNwkAddr, R8
        CMP.W   #0x0, R15
        JNE     ??zdpProcessAddrReq_7
        MOV.W   R14, R6
        MOV.W   R14, R13
        MOV.W   #saveExtAddr, R12
        CALLA   #sAddrExtCmp
        CMP.B   #0x0, R12
        JEQ     ??zdpProcessAddrReq_8
        MOV.W   @R8, R9
        JMP     ??zdpProcessAddrReq_9
??zdpProcessAddrReq_8:
        MOV.W   R6, R12
        CALLA   #AssocGetWithExt
        CMP.W   #0x0, R12
        JEQ     ??zdpProcessAddrReq_10
        CMP.B   #0x1, 0x4(R12)
        JNE     ??zdpProcessAddrReq_10
        MOV.W   @R12, R9
        CMP.B   #0x0, R7
        JNE     ??zdpProcessAddrReq_11
        JMP     ??zdpProcessAddrReq_9
??zdpProcessAddrReq_7:
        MOV.B   @R14, R9
        MOV.B   0x1(R14), R15
        RPT     #0x8
        RLAX.W  R15
        ADD.W   R15, R9
        CMP.W   @R8, R9
        JNE     ??zdpProcessAddrReq_12
        MOV.W   #saveExtAddr, R6
        JMP     ??zdpProcessAddrReq_9
??zdpProcessAddrReq_12:
        MOV.W   R9, R12
        CALLA   #AssocGetWithShort
        CMP.W   #0x0, R12
        JEQ     ??zdpProcessAddrReq_10
        CMP.B   #0x1, 0x4(R12)
        JNE     ??zdpProcessAddrReq_10
        MOV.B   #0x0, 0x2(SP)
        MOV.W   0x2(R12), 0xe(SP)
        MOV.W   SP, R12
        ADD.W   #0x2, R12
        CALLA   #AddrMgrEntryGet
        CMP.B   #0x0, R12
        JEQ     ??zdpProcessAddrReq_13
        MOV.W   SP, R6
        ADD.W   #0x6, R6
??zdpProcessAddrReq_13:
        CMP.B   #0x0, R7
        JEQ     ??zdpProcessAddrReq_9
??zdpProcessAddrReq_11:
        MOV.B   #0xff, R7
??zdpProcessAddrReq_9:
        CMP.W   #0xfffe, R9
        JEQ     ??zdpProcessAddrReq_10
        CMP.W   #0x0, R6
        JNE     ??zdpProcessAddrReq_14
??zdpProcessAddrReq_10:
        CMP.B   #0x0, 0xc(R11)
        JNE     ??zdpProcessAddrReq_15
??zdpProcessAddrReq_14:
        MOV.W   &ZDP_TmpBuf, R12
        MOV.B   #0xb, R10
        CMP.W   #0xfffe, R9
        JEQ     ??zdpProcessAddrReq_16
        CMP.W   #0x0, R6
        JEQ     ??zdpProcessAddrReq_16
        CMP.B   #0x0, R7
        JEQ     ??zdpProcessAddrReq_4
        CMP.B   #0x1, R7
        JEQ     ??zdpProcessAddrReq_4
        MOV.B   #0x80, R5
        JMP     ??zdpProcessAddrReq_2
??zdpProcessAddrReq_4:
        MOV.B   #0x0, R5
        JMP     ??zdpProcessAddrReq_2
??zdpProcessAddrReq_16:
        MOV.B   #0x81, R5
        CMP.W   #0x0, 0xe(R11)
        JNE     ??zdpProcessAddrReq_17
        MOV.W   @R8, R9
        JMP     ??zdpProcessAddrReq_2
??zdpProcessAddrReq_17:
        MOV.W   #saveExtAddr, R6
??zdpProcessAddrReq_2:
        MOV.B   R5, 0(R12)
        ADD.W   #0x1, R12
        MOV.W   R6, R13
        CALLA   #sAddrExtCpy
        MOV.W   R12, R4
        MOV.B   R9, 0(R12)
        ADD.W   #0x1, R4
        MOV.W   R9, R15
        RPT     #0x8
        RRUX.W  R15
        MOV.B   R15, 0(R4)
        ADD.W   #0x1, R4
        CMP.B   #0x1, R7
        JNE     ??zdpProcessAddrReq_18
        CMP.W   @R8, R9
        JNE     ??zdpProcessAddrReq_18
        CMP.B   #0x0, R5
        JNE     ??zdpProcessAddrReq_18
        MOV.B   #0x0, 0(SP)
        MOV.W   SP, R12
        ADD.W   #0x0, R12
        CALLA   #AssocMakeList
        CMP.W   #0x0, R12
        JEQ     ??zdpProcessAddrReq_19
        CMP.W   #0x0, 0xe(R11)
        JEQ     ??zdpProcessAddrReq_20
        MOV.W   #0x2, R15
        JMP     ??zdpProcessAddrReq_21
??zdpProcessAddrReq_20:
        MOV.W   #0x8, R15
??zdpProcessAddrReq_21:
        MOV.W   0x16(R11), R7
        ADD.W   R15, R7
        MOV.B   0x1(R7), R14
        MOV.B   R14, R7
        RLA.W   R7
        MOV.W   R12, R15
        ADD.W   R7, R15
        CMP.B   @SP, R14
        JC      ??zdpProcessAddrReq_22
        MOV.B   @SP, R10
        SUB.B   R14, R10
        MOV.B   R10, 0(SP)
        RLA.B   R10
        ADD.B   #0xb, R10
        JMP     ??zdpProcessAddrReq_23
??zdpProcessAddrReq_22:
        MOV.B   #0x0, 0(SP)
??zdpProcessAddrReq_23:
        MOV.B   @SP, 0(R4)
        ADD.W   #0x1, R4
        MOV.B   R14, 0(R4)
        ADD.W   #0x1, R4
        ADD.B   #0x2, R10
        JMP     ??zdpProcessAddrReq_24
??zdpProcessAddrReq_0:
        MOV.B   @R15, 0(R4)
        ADD.W   #0x1, R4
        MOV.W   @R15+, R14
        RPT     #0x8
        RRUX.W  R14
        MOV.B   R14, 0(R4)
        ADD.W   #0x1, R4
        MOV.B   @SP, R14
        ADD.B   #0xff, R14
        MOV.B   R14, 0(SP)
??zdpProcessAddrReq_24:
        CMP.B   #0x0, 0(SP)
        JNE     ??zdpProcessAddrReq_0
        CALLA   #osal_mem_free
        JMP     ??zdpProcessAddrReq_18
??zdpProcessAddrReq_19:
        MOV.B   #0x0, 0(R4)
        MOV.B   #0xc, R10
??zdpProcessAddrReq_18:
        MOV.B   #0x10, &ZDP_TxOptions
        MOV.B   R10, R15
        MOV.W   0xe(R11), R14
        BIS.W   #0x8000, R14
        MOV.W   R11, R13
        ADD.W   #0x2, R13
        ADD.W   #0x11, R11
        MOV.W   R11, R12
        CALLA   #??Subroutine10_0
??zdpProcessAddrReq_15:
        ADD.W   #0x10, SP
          CFI CFA SP+20
        POPM.W  #0x8, R11
          CFI R10L SameValue
          CFI R11L SameValue
          CFI R4L SameValue
          CFI R5L SameValue
          CFI R6L SameValue
          CFI R7L SameValue
          CFI R8L SameValue
          CFI R9L SameValue
          CFI CFA SP+4
        RETA
          CFI EndBlock cfiBlock50

        RSEG CODE:CODE:NOROOT(1)
ZDP_DeviceAnnce:
          CFI Block cfiBlock51 Using cfiCommon0
          CFI Function ZDP_DeviceAnnce
        FUNCALL ZDP_DeviceAnnce, sAddrExtCpy
        LOCFRAME CSTACK, 16, STACK
        FUNCALL ZDP_DeviceAnnce, fillAndSend
        LOCFRAME CSTACK, 16, STACK
        PUSH.W  R10
          CFI R10L Frame(CFA, -6)
          CFI CFA SP+6
        SUB.W   #0xa, SP
          CFI CFA SP+16
        MOV.B   R14, R10
        CALLA   #?Subroutine17
??CrossCallReturnLabel_11:
        MOV.W   &ZDP_TmpBuf, R15
        MOV.B   R12, 0(R15)
        RPT     #0x8
        RRUX.W  R12
        MOV.B   R12, 0x1(R15)
        ADD.W   #0x2, R15
        MOV.W   R15, R12
        CALLA   #??Subroutine25_0
??CrossCallReturnLabel_30:
        MOV.B   R10, 0xa(R15)
        MOV.B   #0xb, R15
        MOV.W   #0x13, R14
        CALLA   #?Subroutine12
??CrossCallReturnLabel_40:
        ADD.W   #0xa, SP
          CFI CFA SP+6
        POP.W   R10
          CFI R10L SameValue
          CFI CFA SP+4
        RETA
          CFI EndBlock cfiBlock51

        RSEG CODE:CODE:NOROOT(1)
ZDP_ServerDiscReq:
          CFI Block cfiBlock52 Using cfiCommon0
          CFI Function ZDP_ServerDiscReq
        FUNCALL ZDP_ServerDiscReq, fillAndSend
        LOCFRAME CSTACK, 14, STACK
        SUB.W   #0xa, SP
          CFI CFA SP+14
        MOV.W   &ZDP_TmpBuf, R15
        CALLA   #?Subroutine17
??CrossCallReturnLabel_12:
        CALLA   #?Subroutine18
??CrossCallReturnLabel_14:
        CMP.B   #0x0, R13
        JNE     ??ZDP_ServerDiscReq_0
        MOV.B   #0x0, R14
        JMP     ??ZDP_ServerDiscReq_1
??ZDP_ServerDiscReq_0:
        MOV.B   #0x40, R14
??ZDP_ServerDiscReq_1:
        MOV.B   R14, &ZDP_TxOptions
        MOV.B   #0x2, R15
        MOV.W   #0x15, R14
        MOV.W   SP, R13
        ADD.W   #0x0, R13
        MOV.W   #ZDP_TransID, R12
        CALLA   #??Subroutine10_0
          CFI EndBlock cfiBlock52
??CrossCallReturnLabel_34:
        REQUIRE ?Subroutine4
        // Fall through to label ?Subroutine4

        RSEG CODE:CODE:NOROOT(1)
?Subroutine4:
          CFI Block cfiBlock53 Using cfiCommon0
          CFI NoFunction
          CFI CFA SP+14
        ADD.W   #0xa, SP
          CFI CFA SP+4
        RETA
          CFI EndBlock cfiBlock53

        RSEG CODE:CODE:NOROOT(1)
?Subroutine17:
          CFI Block cfiCond54 Using cfiCommon0
          CFI Function ZDP_DeviceAnnce
          CFI Conditional ??CrossCallReturnLabel_11
          CFI R10L Frame(CFA, -6)
          CFI CFA SP+20
          CFI Block cfiCond55 Using cfiCommon0
          CFI (cfiCond55) Function ZDP_ServerDiscReq
          CFI (cfiCond55) Conditional ??CrossCallReturnLabel_12
          CFI (cfiCond55) CFA SP+18
          CFI Block cfiCond56 Using cfiCommon0
          CFI (cfiCond56) Function ZDP_NwkAddrReq
          CFI (cfiCond56) Conditional ??CrossCallReturnLabel_13
          CFI (cfiCond56) R8L Frame(CFA, -12)
          CFI (cfiCond56) R9L Frame(CFA, -10)
          CFI (cfiCond56) R10L Frame(CFA, -8)
          CFI (cfiCond56) R11L Frame(CFA, -6)
          CFI (cfiCond56) CFA SP+26
          CFI Block cfiPicker57 Using cfiCommon1
          CFI (cfiPicker57) NoFunction
          CFI (cfiPicker57) Picker
        MOV.B   #0xf, 0xc(SP)
        MOV.W   #0xfffd, 0x4(SP)
        RETA
          CFI EndBlock cfiCond54
          CFI EndBlock cfiCond55
          CFI EndBlock cfiCond56
          CFI EndBlock cfiPicker57

        RSEG CODE:CODE:NOROOT(1)
?Subroutine10:
          CFI Block cfiCond58 Using cfiCommon0
          CFI Function ZDP_ServerDiscRsp
          CFI Conditional ??CrossCallReturnLabel_31
          CFI CFA SP+10
          CFI Block cfiCond59 Using cfiCommon0
          CFI (cfiCond59) Function ZDP_EPRsp
          CFI (cfiCond59) Conditional ??CrossCallReturnLabel_32
          CFI (cfiCond59) R8L Frame(CFA, -12)
          CFI (cfiCond59) R9L Frame(CFA, -10)
          CFI (cfiCond59) R10L Frame(CFA, -8)
          CFI (cfiCond59) R11L Frame(CFA, -6)
          CFI (cfiCond59) CFA SP+18
          CFI Block cfiPicker60 Using cfiCommon1
          CFI (cfiPicker60) NoFunction
          CFI (cfiPicker60) Picker
        MOV.W   SP, R12
        ADD.W   #0x4, R12
          CFI EndBlock cfiCond58
          CFI EndBlock cfiCond59
          CFI EndBlock cfiPicker60
        REQUIRE ??Subroutine10_0
        // Fall through to label ??Subroutine10_0

        RSEG CODE:CODE:NOROOT(1)
??Subroutine10_0:
          CFI Block cfiCond61 Using cfiCommon0
          CFI Function ZDP_BindUnbindReq
          CFI Conditional ??CrossCallReturnLabel_33
          CFI R6L Frame(CFA, -16)
          CFI R7L Frame(CFA, -14)
          CFI R8L Frame(CFA, -12)
          CFI R9L Frame(CFA, -10)
          CFI R10L Frame(CFA, -8)
          CFI R11L Frame(CFA, -6)
          CFI CFA SP+20
          CFI Block cfiCond62 Using cfiCommon0
          CFI (cfiCond62) Function ZDP_SendData
          CFI (cfiCond62) Conditional ??CrossCallReturnLabel_33
          CFI (cfiCond62) R6L Frame(CFA, -16)
          CFI (cfiCond62) R7L Frame(CFA, -14)
          CFI (cfiCond62) R8L Frame(CFA, -12)
          CFI (cfiCond62) R9L Frame(CFA, -10)
          CFI (cfiCond62) R10L Frame(CFA, -8)
          CFI (cfiCond62) R11L Frame(CFA, -6)
          CFI (cfiCond62) CFA SP+20
          CFI Block cfiCond63 Using cfiCommon0
          CFI (cfiCond63) Function zdpProcessAddrReq
          CFI (cfiCond63) Conditional ??zdpProcessAddrReq_15
          CFI (cfiCond63) R4L Frame(CFA, -20)
          CFI (cfiCond63) R5L Frame(CFA, -18)
          CFI (cfiCond63) R6L Frame(CFA, -16)
          CFI (cfiCond63) R7L Frame(CFA, -14)
          CFI (cfiCond63) R8L Frame(CFA, -12)
          CFI (cfiCond63) R9L Frame(CFA, -10)
          CFI (cfiCond63) R10L Frame(CFA, -8)
          CFI (cfiCond63) R11L Frame(CFA, -6)
          CFI (cfiCond63) CFA SP+40
          CFI Block cfiCond64 Using cfiCommon0
          CFI (cfiCond64) Function ZDP_ServerDiscReq
          CFI (cfiCond64) Conditional ??CrossCallReturnLabel_34
          CFI (cfiCond64) CFA SP+18
          CFI Block cfiCond65 Using cfiCommon0
          CFI (cfiCond65) Function ZDP_ServerDiscRsp
          CFI (cfiCond65) Conditional ??CrossCallReturnLabel_31
          CFI (cfiCond65) CFA SP+10
          CFI Block cfiCond66 Using cfiCommon0
          CFI (cfiCond66) Function ZDP_EPRsp
          CFI (cfiCond66) Conditional ??CrossCallReturnLabel_32
          CFI (cfiCond66) R8L Frame(CFA, -12)
          CFI (cfiCond66) R9L Frame(CFA, -10)
          CFI (cfiCond66) R10L Frame(CFA, -8)
          CFI (cfiCond66) R11L Frame(CFA, -6)
          CFI (cfiCond66) CFA SP+18
          CFI Block cfiPicker67 Using cfiCommon1
          CFI (cfiPicker67) NoFunction
          CFI (cfiPicker67) Picker
        CALLA   #fillAndSend
        MOV.B   #0x0, &ZDP_TxOptions
        RETA
          CFI EndBlock cfiCond61
          CFI EndBlock cfiCond62
          CFI EndBlock cfiCond63
          CFI EndBlock cfiCond64
          CFI EndBlock cfiCond65
          CFI EndBlock cfiCond66
          CFI EndBlock cfiPicker67

        RSEG CODE:CODE:NOROOT(1)
ZDP_UserDescSet:
          CFI Block cfiBlock68 Using cfiCommon0
          CFI Function ZDP_UserDescSet
        FUNCALL ZDP_UserDescSet, osal_memcpy
        LOCFRAME CSTACK, 8, STACK
        FUNCALL ZDP_UserDescSet, osal_memset
        LOCFRAME CSTACK, 8, STACK
        FUNCALL ZDP_UserDescSet, fillAndSend
        LOCFRAME CSTACK, 8, STACK
        PUSHM.W #0x2, R11
          CFI R10L Frame(CFA, -8)
          CFI R11L Frame(CFA, -6)
          CFI CFA SP+8
        MOV.W   R12, R11
        MOV.W   R14, R15
        MOV.W   &ZDP_TmpBuf, R12
        MOV.B   @R14, R10
        CMP.B   #0x10, R10
        JNC     ??ZDP_UserDescSet_1
        MOV.B   #0x10, R10
??ZDP_UserDescSet_1:
        MOV.B   R13, 0(R12)
        ADD.W   #0x1, R12
        RPT     #0x8
        RRUX.W  R13
        MOV.B   R13, 0(R12)
        ADD.W   #0x1, R12
        MOV.B   R10, 0(R12)
        ADD.W   #0x1, R12
        MOV.B   R10, R14
        ADD.W   #0x1, R15
        MOV.W   R15, R13
        CALLA   #osal_memcpy
        MOV.W   #0x10, R14
        SUB.W   R10, R14
        MOV.B   #0x20, R13
        CALLA   #osal_memset
        MOV.B   #0x13, R15
        MOV.W   #0x14, R14
        BRA     #?Subroutine0
          CFI EndBlock cfiBlock68

        RSEG CODE:CODE:NOROOT(1)
ZDP_SimpleDescReq:
          CFI Block cfiBlock69 Using cfiCommon0
          CFI Function ZDP_SimpleDescReq
        FUNCALL ZDP_SimpleDescReq, fillAndSend
        LOCFRAME CSTACK, 4, STACK
        CALLA   #?Subroutine15
??CrossCallReturnLabel_9:
        MOV.B   R14, 0x2(R15)
        MOV.B   #0x3, R15
        MOV.W   #0x4, R14
        BRA     #?Subroutine5
          CFI EndBlock cfiBlock69

        RSEG CODE:CODE:NOROOT(1)
ZDP_MatchDescReq:
          CFI Block cfiBlock70 Using cfiCommon0
          CFI Function ZDP_MatchDescReq
        FUNCALL ZDP_MatchDescReq, fillAndSend
        LOCFRAME CSTACK, 16, STACK
        PUSHM.W #0x6, R11
          CFI R6L Frame(CFA, -16)
          CFI R7L Frame(CFA, -14)
          CFI R8L Frame(CFA, -12)
          CFI R9L Frame(CFA, -10)
          CFI R10L Frame(CFA, -8)
          CFI R11L Frame(CFA, -6)
          CFI CFA SP+16
        MOV.W   &ZDP_TmpBuf, R8
        MOV.B   0x12(SP), R11
        MOV.B   R15, R10
        ADD.B   R11, R10
        RLA.B   R10
        ADD.B   #0x6, R10
        CMP.B   #0x4f, R10
        JNC     ??ZDP_MatchDescReq_2
        MOV.B   #0x10, R12
        JMP     ??ZDP_MatchDescReq_3
??ZDP_MatchDescReq_2:
        MOV.B   0x8(R12), R9
        CMP.B   #0xf, R9
        JEQ     ??ZDP_MatchDescReq_4
        CMP.B   #0x2, R9
        JNE     ??ZDP_MatchDescReq_5
??ZDP_MatchDescReq_4:
        CMP.W   #0xffff, 0(R12)
        JNE     ??ZDP_MatchDescReq_5
        MOV.W   #0xfffd, 0(R12)
??ZDP_MatchDescReq_5:
        CMP.W   #0xffff, R13
        JNE     ??ZDP_MatchDescReq_6
        MOV.W   #0xfffd, R13
??ZDP_MatchDescReq_6:
        MOV.B   R13, 0(R8)
        ADD.W   #0x1, R8
        RPT     #0x8
        RRUX.W  R13
        MOV.B   R13, 0(R8)
        ADD.W   #0x1, R8
        MOV.B   R14, 0(R8)
        ADD.W   #0x1, R8
        RPT     #0x8
        RRUX.W  R14
        MOV.B   R14, 0(R8)
        ADD.W   #0x1, R8
        MOV.B   R15, 0(R8)
        ADD.W   #0x1, R8
        CMP.B   #0x0, R15
        JEQ     ??ZDP_MatchDescReq_7
        MOV.B   #0x0, R14
        MOV.W   0x10(SP), R13
??ZDP_MatchDescReq_0:
        MOV.B   R14, R6
        RLA.W   R6
        MOV.W   R13, R9
        ADD.W   R6, R9
        MOV.B   @R9, 0(R8)
        ADD.W   #0x1, R8
        MOV.B   0x1(R9), 0(R8)
        ADD.W   #0x1, R8
        ADD.B   #0x1, R14
        CMP.B   R15, R14
        JNC     ??ZDP_MatchDescReq_0
??ZDP_MatchDescReq_7:
        MOV.B   R11, 0(R8)
        ADD.W   #0x1, R8
        CMP.B   #0x0, R11
        JEQ     ??ZDP_MatchDescReq_8
        MOV.B   #0x0, R14
        MOV.W   0x14(SP), R15
??ZDP_MatchDescReq_1:
        MOV.B   R14, R9
        RLA.W   R9
        MOV.W   R15, R13
        ADD.W   R9, R13
        MOV.B   @R13, 0(R8)
        ADD.W   #0x1, R8
        MOV.B   0x1(R13), 0(R8)
        ADD.W   #0x1, R8
        ADD.B   #0x1, R14
        CMP.B   R11, R14
        JNC     ??ZDP_MatchDescReq_1
??ZDP_MatchDescReq_8:
        MOV.B   R10, R15
        MOV.W   #0x6, R14
        MOV.W   R12, R13
        CALLA   #??Subroutine12_0
??ZDP_MatchDescReq_3:
        POPM.W  #0x6, R11
          CFI R10L SameValue
          CFI R11L SameValue
          CFI R6L SameValue
          CFI R7L SameValue
          CFI R8L SameValue
          CFI R9L SameValue
          CFI CFA SP+4
        RETA
          CFI EndBlock cfiBlock70

        RSEG CODE:CODE:NOROOT(1)
?Subroutine12:
          CFI Block cfiCond71 Using cfiCommon0
          CFI Function ZDP_DeviceAnnce
          CFI Conditional ??CrossCallReturnLabel_40
          CFI R10L Frame(CFA, -6)
          CFI CFA SP+20
          CFI Block cfiCond72 Using cfiCommon0
          CFI (cfiCond72) Function ZDP_IEEEAddrReq
          CFI (cfiCond72) Conditional ??CrossCallReturnLabel_39
          CFI (cfiCond72) CFA SP+18
          CFI Block cfiCond73 Using cfiCommon0
          CFI (cfiCond73) Function ZDP_NwkAddrReq
          CFI (cfiCond73) Conditional ??CrossCallReturnLabel_38
          CFI (cfiCond73) R8L Frame(CFA, -12)
          CFI (cfiCond73) R9L Frame(CFA, -10)
          CFI (cfiCond73) R10L Frame(CFA, -8)
          CFI (cfiCond73) R11L Frame(CFA, -6)
          CFI (cfiCond73) CFA SP+26
          CFI Block cfiPicker74 Using cfiCommon1
          CFI (cfiPicker74) NoFunction
          CFI (cfiPicker74) Picker
        MOV.W   SP, R13
        ADD.W   #0x4, R13
          CFI EndBlock cfiCond71
          CFI EndBlock cfiCond72
          CFI EndBlock cfiCond73
          CFI EndBlock cfiPicker74
        REQUIRE ??Subroutine12_0
        // Fall through to label ??Subroutine12_0

        RSEG CODE:CODE:NOROOT(1)
??Subroutine12_0:
          CFI Block cfiCond75 Using cfiCommon0
          CFI Function ZDP_MgmtNwkUpdateReq
          CFI Conditional ??CrossCallReturnLabel_37
          CFI R6L Frame(CFA, -16)
          CFI R7L Frame(CFA, -14)
          CFI R8L Frame(CFA, -12)
          CFI R9L Frame(CFA, -10)
          CFI R10L Frame(CFA, -8)
          CFI R11L Frame(CFA, -6)
          CFI CFA SP+20
          CFI Block cfiCond76 Using cfiCommon0
          CFI (cfiCond76) Function ZDP_MgmtLeaveReq
          CFI (cfiCond76) Conditional ??CrossCallReturnLabel_36
          CFI (cfiCond76) R8L Frame(CFA, -12)
          CFI (cfiCond76) R9L Frame(CFA, -10)
          CFI (cfiCond76) R10L Frame(CFA, -8)
          CFI (cfiCond76) R11L Frame(CFA, -6)
          CFI (cfiCond76) CFA SP+16
          CFI Block cfiCond77 Using cfiCommon0
          CFI (cfiCond77) Function ZDP_MgmtNwkDiscReq
          CFI (cfiCond77) Conditional ??CrossCallReturnLabel_36
          CFI (cfiCond77) R8L Frame(CFA, -12)
          CFI (cfiCond77) R9L Frame(CFA, -10)
          CFI (cfiCond77) R10L Frame(CFA, -8)
          CFI (cfiCond77) R11L Frame(CFA, -6)
          CFI (cfiCond77) CFA SP+16
          CFI Block cfiCond78 Using cfiCommon0
          CFI (cfiCond78) Function ZDP_MgmtDirectJoinReq
          CFI (cfiCond78) Conditional ??CrossCallReturnLabel_35
          CFI (cfiCond78) R10L Frame(CFA, -8)
          CFI (cfiCond78) R11L Frame(CFA, -6)
          CFI (cfiCond78) CFA SP+12
          CFI Block cfiCond79 Using cfiCommon0
          CFI (cfiCond79) Function ZDP_UserDescSet
          CFI (cfiCond79) Conditional ??CrossCallReturnLabel_35
          CFI (cfiCond79) R10L Frame(CFA, -8)
          CFI (cfiCond79) R11L Frame(CFA, -6)
          CFI (cfiCond79) CFA SP+12
          CFI Block cfiCond80 Using cfiCommon0
          CFI (cfiCond80) Function ZDP_EndDeviceBindReq
          CFI (cfiCond80) Conditional ??ZDP_EndDeviceBindReq_3
          CFI (cfiCond80) R4L Frame(CFA, -20)
          CFI (cfiCond80) R5L Frame(CFA, -18)
          CFI (cfiCond80) R6L Frame(CFA, -16)
          CFI (cfiCond80) R7L Frame(CFA, -14)
          CFI (cfiCond80) R8L Frame(CFA, -12)
          CFI (cfiCond80) R9L Frame(CFA, -10)
          CFI (cfiCond80) R10L Frame(CFA, -8)
          CFI (cfiCond80) R11L Frame(CFA, -6)
          CFI (cfiCond80) CFA SP+24
          CFI Block cfiCond81 Using cfiCommon0
          CFI (cfiCond81) Function ZDP_MatchDescReq
          CFI (cfiCond81) Conditional ??ZDP_MatchDescReq_3
          CFI (cfiCond81) R6L Frame(CFA, -16)
          CFI (cfiCond81) R7L Frame(CFA, -14)
          CFI (cfiCond81) R8L Frame(CFA, -12)
          CFI (cfiCond81) R9L Frame(CFA, -10)
          CFI (cfiCond81) R10L Frame(CFA, -8)
          CFI (cfiCond81) R11L Frame(CFA, -6)
          CFI (cfiCond81) CFA SP+20
          CFI Block cfiCond82 Using cfiCommon0
          CFI (cfiCond82) Function ZDP_DeviceAnnce
          CFI (cfiCond82) Conditional ??CrossCallReturnLabel_40
          CFI (cfiCond82) R10L Frame(CFA, -6)
          CFI (cfiCond82) CFA SP+20
          CFI Block cfiCond83 Using cfiCommon0
          CFI (cfiCond83) Function ZDP_IEEEAddrReq
          CFI (cfiCond83) Conditional ??CrossCallReturnLabel_39
          CFI (cfiCond83) CFA SP+18
          CFI Block cfiCond84 Using cfiCommon0
          CFI (cfiCond84) Function ZDP_NwkAddrReq
          CFI (cfiCond84) Conditional ??CrossCallReturnLabel_38
          CFI (cfiCond84) R8L Frame(CFA, -12)
          CFI (cfiCond84) R9L Frame(CFA, -10)
          CFI (cfiCond84) R10L Frame(CFA, -8)
          CFI (cfiCond84) R11L Frame(CFA, -6)
          CFI (cfiCond84) CFA SP+26
          CFI Block cfiPicker85 Using cfiCommon1
          CFI (cfiPicker85) NoFunction
          CFI (cfiPicker85) Picker
        MOV.W   #ZDP_TransID, R12
        BRA     #fillAndSend
          CFI EndBlock cfiCond75
          CFI EndBlock cfiCond76
          CFI EndBlock cfiCond77
          CFI EndBlock cfiCond78
          CFI EndBlock cfiCond79
          CFI EndBlock cfiCond80
          CFI EndBlock cfiCond81
          CFI EndBlock cfiCond82
          CFI EndBlock cfiCond83
          CFI EndBlock cfiCond84
          CFI EndBlock cfiPicker85

        RSEG CODE:CODE:NOROOT(1)
ZDP_IEEEAddrReq:
          CFI Block cfiBlock86 Using cfiCommon0
          CFI Function ZDP_IEEEAddrReq
        FUNCALL ZDP_IEEEAddrReq, fillAndSend
        LOCFRAME CSTACK, 14, STACK
        SUB.W   #0xa, SP
          CFI CFA SP+14
        MOV.W   &ZDP_TmpBuf, R15
        MOV.B   #0x2, 0x8(SP)
        MOV.W   R12, 0(SP)
        CALLA   #?Subroutine18
??CrossCallReturnLabel_15:
        ADD.W   #0x1, R15
        MOV.B   R13, 0(R15)
        ADD.W   #0x1, R15
        MOV.B   R14, 0(R15)
        MOV.B   #0x4, R15
        MOV.W   #0x1, R14
        CALLA   #?Subroutine12
??CrossCallReturnLabel_39:
        JMP     ?Subroutine4
          CFI EndBlock cfiBlock86

        RSEG CODE:CODE:NOROOT(1)
?Subroutine18:
          CFI Block cfiCond87 Using cfiCommon0
          CFI Function ZDP_ServerDiscReq
          CFI Conditional ??CrossCallReturnLabel_14
          CFI CFA SP+18
          CFI Block cfiCond88 Using cfiCommon0
          CFI (cfiCond88) Function ZDP_IEEEAddrReq
          CFI (cfiCond88) Conditional ??CrossCallReturnLabel_15
          CFI (cfiCond88) CFA SP+18
          CFI Block cfiPicker89 Using cfiCommon1
          CFI (cfiPicker89) NoFunction
          CFI (cfiPicker89) Picker
        MOV.B   R12, 0(R15)
        ADD.W   #0x1, R15
        RPT     #0x8
        RRUX.W  R12
        MOV.B   R12, 0(R15)
        RETA
          CFI EndBlock cfiCond87
          CFI EndBlock cfiCond88
          CFI EndBlock cfiPicker89

        RSEG CODE:CODE:NOROOT(1)
ZDP_NwkAddrReq:
          CFI Block cfiBlock90 Using cfiCommon0
          CFI Function ZDP_NwkAddrReq
        FUNCALL ZDP_NwkAddrReq, sAddrExtCmp
        LOCFRAME CSTACK, 22, STACK
        FUNCALL ZDP_NwkAddrReq, sAddrExtCpy
        LOCFRAME CSTACK, 22, STACK
        FUNCALL ZDP_NwkAddrReq, fillAndSend
        LOCFRAME CSTACK, 22, STACK
        PUSHM.W #0x4, R11
          CFI R8L Frame(CFA, -12)
          CFI R9L Frame(CFA, -10)
          CFI R10L Frame(CFA, -8)
          CFI R11L Frame(CFA, -6)
          CFI CFA SP+12
        SUB.W   #0xa, SP
          CFI CFA SP+22
        MOV.W   R12, R8
        MOV.B   R13, R10
        MOV.B   R14, R11
        MOV.W   &ZDP_TmpBuf, R9
        MOV.W   R12, R13
        MOV.W   #saveExtAddr, R12
        CALLA   #sAddrExtCmp
        CMP.B   #0x0, R12
        JNE     ??ZDP_NwkAddrReq_0
        CALLA   #?Subroutine17
??CrossCallReturnLabel_13:
        JMP     ??ZDP_NwkAddrReq_1
??ZDP_NwkAddrReq_0:
        MOV.B   #0x2, 0x8(SP)
        MOV.W   &ZDAppNwkAddr, 0(SP)
??ZDP_NwkAddrReq_1:
        MOV.W   R8, R13
        MOV.W   R9, R12
        CALLA   #sAddrExtCpy
        MOV.W   R12, R9
        MOV.B   R10, 0(R12)
        ADD.W   #0x1, R9
        MOV.B   R11, 0(R9)
        MOV.B   #0xa, R15
        MOV.W   #0x0, R14
        CALLA   #?Subroutine12
??CrossCallReturnLabel_38:
        ADD.W   #0xa, SP
          CFI CFA SP+12
        POPM.W  #0x4, R11
          CFI R10L SameValue
          CFI R11L SameValue
          CFI R8L SameValue
          CFI R9L SameValue
          CFI CFA SP+4
        RETA
          CFI EndBlock cfiBlock90

        RSEG CODE:CODE:NOROOT(1)
ZDP_NWKAddrOfInterestReq:
          CFI Block cfiBlock91 Using cfiCommon0
          CFI Function ZDP_NWKAddrOfInterestReq
        FUNCALL ZDP_NWKAddrOfInterestReq, fillAndSend
        LOCFRAME CSTACK, 4, STACK
        CALLA   #?Subroutine15
??CrossCallReturnLabel_10:
        MOV.B   #0x2, R15
        MOV.B   R14, R14
        BRA     #?Subroutine5
          CFI EndBlock cfiBlock91

        RSEG CODE:CODE:NOROOT(1)
?Subroutine15:
          CFI Block cfiCond92 Using cfiCommon0
          CFI Function ZDP_SimpleDescReq
          CFI Conditional ??CrossCallReturnLabel_9
          CFI CFA SP+8
          CFI Block cfiCond93 Using cfiCommon0
          CFI (cfiCond93) Function ZDP_NWKAddrOfInterestReq
          CFI (cfiCond93) Conditional ??CrossCallReturnLabel_10
          CFI (cfiCond93) CFA SP+8
          CFI Block cfiPicker94 Using cfiCommon1
          CFI (cfiPicker94) NoFunction
          CFI (cfiPicker94) Picker
        MOV.W   &ZDP_TmpBuf, R15
        MOV.B   R13, 0(R15)
        RPT     #0x8
        RRUX.W  R13
        MOV.B   R13, 0x1(R15)
        RETA
          CFI EndBlock cfiCond92
          CFI EndBlock cfiCond93
          CFI EndBlock cfiPicker94

        RSEG CODE:CODE:REORDER:NOROOT(1)
ZDP_SendData:
          CFI Block cfiBlock95 Using cfiCommon0
          CFI Function ZDP_SendData
        FUNCALL ZDP_SendData, fillAndSend
        LOCFRAME CSTACK, 16, STACK
        PUSHM.W #0x6, R11
          CFI R6L Frame(CFA, -16)
          CFI R7L Frame(CFA, -14)
          CFI R8L Frame(CFA, -12)
          CFI R9L Frame(CFA, -10)
          CFI R10L Frame(CFA, -8)
          CFI R11L Frame(CFA, -6)
          CFI CFA SP+16
        MOV.B   0x12(SP), R8
        MOV.W   &ZDP_TmpBuf, R9
        MOV.B   R15, R6
        MOV.W   0x10(SP), R11
        JMP     ??ZDP_SendData_1
??ZDP_SendData_0:
        MOV.B   @R11+, 0(R9)
        ADD.W   #0x1, R9
??ZDP_SendData_1:
        MOV.B   R6, R10
        ADD.B   #0xff, R6
        CMP.B   #0x0, R10
        JNE     ??ZDP_SendData_0
        CMP.B   #0x0, R8
        JNE     ??ZDP_SendData_2
        MOV.B   #0x0, R10
        JMP     ??ZDP_SendData_3
??ZDP_SendData_2:
        MOV.B   #0x40, R10
??ZDP_SendData_3:
        MOV.B   R10, &ZDP_TxOptions
        BRA     #?Subroutine2
          CFI EndBlock cfiBlock95
// 1242 
// 1243   return fillAndSend( &ZDP_TransID, dstAddr, Mgmt_Direct_Join_req, (Z_EXTADDR_LEN + 1) );
// 1244 }
// 1245 
// 1246 /*********************************************************************
// 1247  * @fn          ZDP_MgmtPermitJoinReq
// 1248  *
// 1249  * @brief       This builds and send a Mgmt_Permit_Join_req message.
// 1250  *
// 1251  * @param       dstAddr - destination address of the message
// 1252  * @param       duration - Permit duration
// 1253  * @param       TcSignificance - Trust Center Significance
// 1254  *
// 1255  * @return      afStatus_t
// 1256  */
// 1257 afStatus_t ZDP_MgmtPermitJoinReq( zAddrType_t *dstAddr, byte duration,
// 1258                                   byte TcSignificance, byte SecurityEnable )
// 1259 {
// 1260   (void)SecurityEnable;  // Intentionally unreferenced parameter
// 1261 
// 1262   // Build buffer
// 1263   ZDP_TmpBuf[ZDP_MGMT_PERMIT_JOIN_REQ_DURATION] = duration;
// 1264   ZDP_TmpBuf[ZDP_MGMT_PERMIT_JOIN_REQ_TC_SIG]   = TcSignificance;
// 1265 
// 1266   // Send the message
// 1267   return fillAndSend( &ZDP_TransID, dstAddr, Mgmt_Permit_Join_req,
// 1268                       ZDP_MGMT_PERMIT_JOIN_REQ_SIZE );
// 1269 }
// 1270 
// 1271 /*********************************************************************
// 1272  * @fn          ZDP_MgmtLeaveReq
// 1273  *
// 1274  * @brief       This builds and send a Mgmt_Leave_req message.
// 1275  *
// 1276  * @param       dstAddr - destination address of the message
// 1277  *              IEEEAddr - IEEE adddress of device that is removed
// 1278  *              RemoveChildren - set to 1 to remove the children of the
// 1279  *                                device as well. 0 otherwise.
// 1280  *              Rejoin - set to 1 if the removed device should rejoin
// 1281                          afterwards. 0 otherwise.
// 1282  *
// 1283  * @return      afStatus_t
// 1284  */
// 1285 afStatus_t ZDP_MgmtLeaveReq( zAddrType_t *dstAddr, uint8 *IEEEAddr, uint8 RemoveChildren,
// 1286                  uint8 Rejoin, uint8 SecurityEnable )
// 1287 
// 1288 {
// 1289   (void)SecurityEnable;  // Intentionally unreferenced parameter
// 1290 
// 1291   osal_cpyExtAddr( ZDP_TmpBuf, IEEEAddr );
// 1292   ZDP_TmpBuf[Z_EXTADDR_LEN] = 0;
// 1293 
// 1294   if ( RemoveChildren == TRUE )
// 1295   {
// 1296     ZDP_TmpBuf[Z_EXTADDR_LEN] |= ZDP_MGMT_LEAVE_REQ_RC;
// 1297   }
// 1298   if ( Rejoin == TRUE )
// 1299   {
// 1300     ZDP_TmpBuf[Z_EXTADDR_LEN] |= ZDP_MGMT_LEAVE_REQ_REJOIN;
// 1301   }
// 1302 
// 1303   return fillAndSend( &ZDP_TransID, dstAddr, Mgmt_Leave_req, (Z_EXTADDR_LEN + 1) );
// 1304 }
// 1305 
// 1306 /*********************************************************************
// 1307  * @fn          ZDP_MgmtNwkUpdateReq
// 1308  *
// 1309  * @brief       This builds and send a Mgmt_NWK_Update_req message. This
// 1310  *              function sends a unicast or broadcast message.
// 1311  *
// 1312  * @param       dstAddr - destination address of the message
// 1313  * @param       ChannelMask - 32 bit address bit map
// 1314  * @param       ScanDuration - length of time to spend scanning each channel
// 1315  * @param       ScanCount - number of energy scans to be conducted
// 1316  * @param       NwkUpdateId - NWk Update Id value
// 1317  * @param       NwkManagerAddr - NWK address for device with Network Manager
// 1318  *                               bit set in its Node Descriptor
// 1319  *
// 1320  * @return      afStatus_t
// 1321  */

        RSEG CODE:CODE:REORDER:NOROOT(1)
// 1322 afStatus_t ZDP_MgmtNwkUpdateReq( zAddrType_t *dstAddr,
ZDP_MgmtNwkUpdateReq:
          CFI Block cfiBlock96 Using cfiCommon0
          CFI Function ZDP_MgmtNwkUpdateReq
// 1323                                  uint32 ChannelMask,
// 1324                                  uint8 ScanDuration,
// 1325                                  uint8 ScanCount,
// 1326                                  uint8 NwkUpdateId,
// 1327                                  uint16 NwkManagerAddr )
// 1328 {
        FUNCALL ZDP_MgmtNwkUpdateReq, osal_buffer_uint32
        LOCFRAME CSTACK, 16, STACK
        FUNCALL ZDP_MgmtNwkUpdateReq, fillAndSend
        LOCFRAME CSTACK, 16, STACK
        PUSHM.W #0x6, R11
          CFI R6L Frame(CFA, -16)
          CFI R7L Frame(CFA, -14)
          CFI R8L Frame(CFA, -12)
          CFI R9L Frame(CFA, -10)
          CFI R10L Frame(CFA, -8)
          CFI R11L Frame(CFA, -6)
          CFI CFA SP+16
        MOV.W   R12, R8
        MOV.B   R13, R11
        MOV.B   0x10(SP), R9
        MOV.B   0x12(SP), R6
// 1329   uint8 *pBuf = ZDP_TmpBuf;
// 1330   byte len = sizeof( uint32 ) + 1;  // ChannelMask + ScanDuration
        MOV.B   #0x5, R10
// 1331 
// 1332   pBuf = osal_buffer_uint32( pBuf, ChannelMask );
        MOV.W   &ZDP_TmpBuf, R12
        CALLA   #osal_buffer_uint32
// 1333 
// 1334   *pBuf++ = ScanDuration;
        MOV.B   R11, 0(R12)
        ADD.W   #0x1, R12
// 1335 
// 1336   if ( ScanDuration <= 0x05 )
        CMP.B   #0x6, R11
        JC      ??ZDP_MgmtNwkUpdateReq_0
// 1337   {
// 1338     // Request is to scan over channelMask
// 1339     len += sizeof( uint8 );
        MOV.B   #0x6, R10
// 1340 
// 1341     *pBuf++ = ScanCount;
        MOV.B   R9, 0(R12)
        JMP     ??ZDP_MgmtNwkUpdateReq_1
// 1342   }
// 1343   else if ( ( ScanDuration == 0xFE ) || ( ScanDuration == 0xFF ) )
??ZDP_MgmtNwkUpdateReq_0:
        CMP.B   #0xfe, R11
        JEQ     ??ZDP_MgmtNwkUpdateReq_2
        CMP.B   #0xff, R11
        JNE     ??ZDP_MgmtNwkUpdateReq_1
// 1344   {
// 1345     // Request is to change Channel (0xFE) or apsChannelMask and NwkManagerAddr (0xFF)
// 1346     len += sizeof( uint8 );
??ZDP_MgmtNwkUpdateReq_2:
        MOV.B   #0x6, R10
// 1347 
// 1348     *pBuf++ = NwkUpdateId;
        MOV.B   R6, 0(R12)
        ADD.W   #0x1, R12
// 1349 
// 1350     if ( ScanDuration == 0xFF )
        CMP.B   #0xff, R11
        JNE     ??ZDP_MgmtNwkUpdateReq_1
// 1351     {
// 1352       len += sizeof( uint16 );
        MOV.B   #0x8, R10
        MOV.W   0x14(SP), R14
// 1353 
// 1354       *pBuf++  = LO_UINT16( NwkManagerAddr );
        CALLA   #?Subroutine21
// 1355       *pBuf++  = HI_UINT16( NwkManagerAddr );
// 1356     }
// 1357   }
// 1358 
// 1359   return fillAndSend( &ZDP_TransID, dstAddr, Mgmt_NWK_Update_req, len );
??ZDP_MgmtNwkUpdateReq_1:
        MOV.B   R10, R15
        MOV.W   #0x38, R14
        MOV.W   R8, R13
        CALLA   #??Subroutine12_0
??CrossCallReturnLabel_37:
        POPM.W  #0x6, R11
          CFI R10L SameValue
          CFI R11L SameValue
          CFI R6L SameValue
          CFI R7L SameValue
          CFI R8L SameValue
          CFI R9L SameValue
          CFI CFA SP+4
        RETA
          CFI EndBlock cfiBlock96
// 1360 }
// 1361 
// 1362 
// 1363 /*********************************************************************
// 1364  * Network Management Responses
// 1365  */
// 1366 
// 1367 /*********************************************************************
// 1368  * @fn          ZDP_MgmtNwkDiscRsp
// 1369  *
// 1370  * @brief       This builds and send a Mgmt_NWK_Disc_rsp message. This
// 1371  *              function sends a unicast message.
// 1372  *
// 1373  * @param       dstAddr - destination address of the message
// 1374  * @param       Status - message status (ZDP_SUCCESS or other)
// 1375  * @param       NetworkCount - Total number of networks found
// 1376  * @param       StartIndex - Starting index within the reporting network
// 1377  *                           list
// 1378  * @param       NetworkListCount - number of network lists included
// 1379  *                                 in this message
// 1380  * @param       NetworkList - List of network descriptors
// 1381  * @param       SecurityEnable - Security Options
// 1382  *
// 1383  * @return      afStatus_t
// 1384  */

        RSEG CODE:CODE:NOROOT(1)
?Subroutine6:
          CFI Block cfiCond97 Using cfiCommon0
          CFI Function ZDP_MgmtBindRsp
          CFI Conditional ??CrossCallReturnLabel_18
          CFI R6L Frame(CFA, -16)
          CFI R7L Frame(CFA, -14)
          CFI R8L Frame(CFA, -12)
          CFI R9L Frame(CFA, -10)
          CFI R10L Frame(CFA, -8)
          CFI R11L Frame(CFA, -6)
          CFI CFA SP+22
          CFI Block cfiCond98 Using cfiCommon0
          CFI (cfiCond98) Function ZDP_MgmtNwkDiscRsp
          CFI (cfiCond98) Conditional ??CrossCallReturnLabel_19
          CFI (cfiCond98) R4L Frame(CFA, -20)
          CFI (cfiCond98) R5L Frame(CFA, -18)
          CFI (cfiCond98) R6L Frame(CFA, -16)
          CFI (cfiCond98) R7L Frame(CFA, -14)
          CFI (cfiCond98) R8L Frame(CFA, -12)
          CFI (cfiCond98) R9L Frame(CFA, -10)
          CFI (cfiCond98) R10L Frame(CFA, -8)
          CFI (cfiCond98) R11L Frame(CFA, -6)
          CFI (cfiCond98) CFA SP+26
          CFI Block cfiPicker99 Using cfiCommon1
          CFI (cfiPicker99) NoFunction
          CFI (cfiPicker99) Picker
// 1385 afStatus_t ZDP_MgmtNwkDiscRsp( byte TransSeq, zAddrType_t *dstAddr,
// 1386                             byte Status,
// 1387                             byte NetworkCount,
// 1388                             byte StartIndex,
// 1389                             byte NetworkListCount,
// 1390                             networkDesc_t *NetworkList,
// 1391                             byte SecurityEnable )
// 1392 {
// 1393   uint8 *buf;
// 1394   uint8 *pBuf;
// 1395   byte len = 1+1+1+1;  // Status + NetworkCount + StartIndex + NetworkCountList.
// 1396   byte idx;
// 1397 
// 1398   (void)SecurityEnable;  // Intentionally unreferenced parameter
// 1399 
// 1400   len += (NetworkListCount * ( ZDP_NETWORK_EXTENDED_DISCRIPTOR_SIZE - 2 ));
// 1401 
// 1402   buf = osal_mem_alloc( len+1 );
// 1403   if ( buf == NULL )
// 1404   {
// 1405     return afStatus_MEM_FAIL;
// 1406   }
// 1407 
// 1408   pBuf = buf+1;
// 1409 
// 1410   *pBuf++ = Status;
// 1411   *pBuf++ = NetworkCount;
// 1412   *pBuf++ = StartIndex;
// 1413   *pBuf++ = NetworkListCount;
// 1414 
// 1415   for ( idx = 0; idx < NetworkListCount; idx++ )
// 1416   {
// 1417     osal_cpyExtAddr( pBuf, NetworkList->extendedPANID);
// 1418     pBuf += Z_EXTADDR_LEN;
// 1419 
// 1420     *pBuf++  = NetworkList->logicalChannel;                // LogicalChannel
// 1421     *pBuf    = NetworkList->stackProfile;                  // Stack profile
// 1422     *pBuf++ |= (byte)(NetworkList->version << 4);          // ZigBee Version
// 1423     *pBuf    = BEACON_ORDER_NO_BEACONS;                    // Beacon Order
// 1424     *pBuf++ |= (uint8)(BEACON_ORDER_NO_BEACONS << 4);      // Superframe Order
// 1425 
// 1426     if ( NetworkList->chosenRouter != INVALID_NODE_ADDR )
// 1427     {
// 1428       *pBuf++ = TRUE;                         // Permit Joining
// 1429     }
// 1430     else
// 1431     {
// 1432       *pBuf++ = FALSE;
// 1433     }
// 1434 
// 1435     NetworkList = NetworkList->nextDesc;    // Move to next list entry
// 1436   }
// 1437 
// 1438   FillAndSendBuffer( &TransSeq, dstAddr, Mgmt_NWK_Disc_rsp, len, buf );
        MOV.W   R9, R15
          CFI EndBlock cfiCond97
          CFI EndBlock cfiCond98
          CFI EndBlock cfiPicker99
        REQUIRE ??Subroutine6_0
        // Fall through to label ??Subroutine6_0

        RSEG CODE:CODE:REORDER:NOROOT(1)
??Subroutine6_0:
          CFI Block cfiCond100 Using cfiCommon0
          CFI Function ZDP_MgmtRtgRsp
          CFI Conditional ??CrossCallReturnLabel_20
          CFI R4L Frame(CFA, -20)
          CFI R5L Frame(CFA, -18)
          CFI R6L Frame(CFA, -16)
          CFI R7L Frame(CFA, -14)
          CFI R8L Frame(CFA, -12)
          CFI R9L Frame(CFA, -10)
          CFI R10L Frame(CFA, -8)
          CFI R11L Frame(CFA, -6)
          CFI CFA SP+26
          CFI Block cfiCond101 Using cfiCommon0
          CFI (cfiCond101) Function ZDP_MgmtLqiRsp
          CFI (cfiCond101) Conditional ??CrossCallReturnLabel_21
          CFI (cfiCond101) R4L Frame(CFA, -20)
          CFI (cfiCond101) R5L Frame(CFA, -18)
          CFI (cfiCond101) R6L Frame(CFA, -16)
          CFI (cfiCond101) R7L Frame(CFA, -14)
          CFI (cfiCond101) R8L Frame(CFA, -12)
          CFI (cfiCond101) R9L Frame(CFA, -10)
          CFI (cfiCond101) R10L Frame(CFA, -8)
          CFI (cfiCond101) R11L Frame(CFA, -6)
          CFI (cfiCond101) CFA SP+26
          CFI Block cfiCond102 Using cfiCommon0
          CFI (cfiCond102) Function ZDP_MgmtBindRsp
          CFI (cfiCond102) Conditional ??CrossCallReturnLabel_18
          CFI (cfiCond102) R6L Frame(CFA, -16)
          CFI (cfiCond102) R7L Frame(CFA, -14)
          CFI (cfiCond102) R8L Frame(CFA, -12)
          CFI (cfiCond102) R9L Frame(CFA, -10)
          CFI (cfiCond102) R10L Frame(CFA, -8)
          CFI (cfiCond102) R11L Frame(CFA, -6)
          CFI (cfiCond102) CFA SP+22
          CFI Block cfiCond103 Using cfiCommon0
          CFI (cfiCond103) Function ZDP_MgmtNwkDiscRsp
          CFI (cfiCond103) Conditional ??CrossCallReturnLabel_19
          CFI (cfiCond103) R4L Frame(CFA, -20)
          CFI (cfiCond103) R5L Frame(CFA, -18)
          CFI (cfiCond103) R6L Frame(CFA, -16)
          CFI (cfiCond103) R7L Frame(CFA, -14)
          CFI (cfiCond103) R8L Frame(CFA, -12)
          CFI (cfiCond103) R9L Frame(CFA, -10)
          CFI (cfiCond103) R10L Frame(CFA, -8)
          CFI (cfiCond103) R11L Frame(CFA, -6)
          CFI (cfiCond103) CFA SP+26
          CFI Block cfiPicker104 Using cfiCommon1
          CFI (cfiPicker104) NoFunction
          CFI (cfiPicker104) Picker
// 1439 }
// 1440 
// 1441 /*********************************************************************
// 1442  * @fn          ZDP_MgmtLqiRsp
// 1443  *
// 1444  * @brief       This builds and send a Mgmt_Lqi_rsp message. This
// 1445  *              function sends a unicast message.
// 1446  *
// 1447  * @param       dstAddr - destination address of the message
// 1448  * @param       Status - message status (ZDP_SUCCESS or other)
// 1449  * @param       NeighborLqiEntries - Total number of entries found
// 1450  * @param       StartIndex - Starting index within the reporting list
// 1451  * @param       NeighborLqiCount - number of lists included
// 1452  *                                 in this message
// 1453  * @param       NeighborLqiList - List of NeighborLqiItems.  This list
// 1454  *                is the list to be sent, not the entire list
// 1455  * @param       SecurityEnable - true if secure
// 1456  *
// 1457  * @return      ZStatus_t
// 1458  */
// 1459 ZStatus_t ZDP_MgmtLqiRsp( byte TransSeq, zAddrType_t *dstAddr,
// 1460                           byte Status,
// 1461                           byte NeighborLqiEntries,
// 1462                           byte StartIndex,
// 1463                           byte NeighborLqiCount,
// 1464                           ZDP_MgmtLqiItem_t* NeighborList,
// 1465                           byte SecurityEnable )
// 1466 {
// 1467   ZDP_MgmtLqiItem_t* list = NeighborList;
// 1468   uint8 *buf, *pBuf;
// 1469   byte len, x;
// 1470 
// 1471   (void)SecurityEnable;  // Intentionally unreferenced parameter
// 1472 
// 1473   if ( ZSuccess != Status )
// 1474   {
// 1475     ZDP_TmpBuf[0] = Status;
// 1476     return fillAndSend( &TransSeq, dstAddr, Mgmt_Lqi_rsp, 1 );
// 1477   }
// 1478 
// 1479   // (Status + NeighborLqiEntries + StartIndex + NeighborLqiCount) +
// 1480   //  neighbor LQI data.
// 1481   len = (1 + 1 + 1 + 1) + (NeighborLqiCount * ZDP_MGMTLQI_EXTENDED_SIZE);
// 1482 
// 1483   buf = osal_mem_alloc( len+1 );
// 1484   if ( buf == NULL )
// 1485   {
// 1486     return afStatus_MEM_FAIL;
// 1487   }
// 1488 
// 1489   pBuf = buf+1;
// 1490 
// 1491   *pBuf++ = Status;
// 1492   *pBuf++ = NeighborLqiEntries;
// 1493   *pBuf++ = StartIndex;
// 1494   *pBuf++ = NeighborLqiCount;
// 1495 
// 1496   for ( x = 0; x < NeighborLqiCount; x++ )
// 1497   {
// 1498     osal_cpyExtAddr( pBuf, list->extPanID);         // Extended PanID
// 1499     pBuf += Z_EXTADDR_LEN;
// 1500 
// 1501     // EXTADDR
// 1502     pBuf = osal_cpyExtAddr( pBuf, list->extAddr );
// 1503 
// 1504     // NWKADDR
// 1505     *pBuf++ = LO_UINT16( list->nwkAddr );
// 1506     *pBuf++ = HI_UINT16( list->nwkAddr );
// 1507 
// 1508     // DEVICETYPE
// 1509     *pBuf = list->devType;
// 1510 
// 1511     // RXONIDLE
// 1512     *pBuf |= (uint8)(list->rxOnIdle << 2);
// 1513 
// 1514     // RELATIONSHIP
// 1515     *pBuf++ |= (uint8)(list->relation << 4);
// 1516 
// 1517     // PERMITJOINING
// 1518     *pBuf++ = (uint8)(list->permit);
// 1519 
// 1520     // DEPTH
// 1521     *pBuf++ = list->depth;
// 1522 
// 1523     // LQI
// 1524     *pBuf++ = list->lqi;
// 1525 
// 1526     list++; // next list entry
// 1527   }
// 1528 
// 1529   FillAndSendBuffer( &TransSeq, dstAddr, Mgmt_Lqi_rsp, len, buf );
        ADD.W   #0x1, R15
        MOV.W   R15, &ZDP_TmpBuf
        MOV.B   R10, R15
        RETA
          CFI EndBlock cfiCond100
          CFI EndBlock cfiCond101
          CFI EndBlock cfiCond102
          CFI EndBlock cfiCond103
          CFI EndBlock cfiPicker104

        RSEG CODE:CODE:NOROOT(1)
ZDP_MgmtRtgRsp:
          CFI Block cfiBlock105 Using cfiCommon0
          CFI Function ZDP_MgmtRtgRsp
        FUNCALL ZDP_MgmtRtgRsp, osal_mem_alloc
        LOCFRAME CSTACK, 22, STACK
        FUNCALL ZDP_MgmtRtgRsp, fillAndSend
        LOCFRAME CSTACK, 22, STACK
        FUNCALL ZDP_MgmtRtgRsp, osal_mem_free
        LOCFRAME CSTACK, 22, STACK
        PUSHM.W #0x8, R11
          CFI R4L Frame(CFA, -20)
          CFI R5L Frame(CFA, -18)
          CFI R6L Frame(CFA, -16)
          CFI R7L Frame(CFA, -14)
          CFI R8L Frame(CFA, -12)
          CFI R9L Frame(CFA, -10)
          CFI R10L Frame(CFA, -8)
          CFI R11L Frame(CFA, -6)
          CFI CFA SP+20
        PUSH.B  R12
          CFI CFA SP+22
        MOV.W   R13, R6
        MOV.B   R14, R11
        MOV.B   R15, R8
        MOV.B   0x16(SP), R4
        MOV.B   0x18(SP), R7
        MOV.B   #0x4, R10
        RPT     #0x5
        ADDX.B  R7, R10
        CALLA   #?Subroutine8
??CrossCallReturnLabel_22:
        JNE     ??ZDP_MgmtRtgRsp_1
        MOV.B   #0x10, R12
        JMP     ??ZDP_MgmtRtgRsp_2
??ZDP_MgmtRtgRsp_1:
        MOV.W   R12, R14
        ADD.W   #0x1, R14
        MOV.B   R11, 0(R14)
        ADD.W   #0x1, R14
        MOV.B   R8, 0(R14)
        ADD.W   #0x1, R14
        MOV.B   R4, 0(R14)
        ADD.W   #0x1, R14
        MOV.B   R7, 0(R14)
        ADD.W   #0x1, R14
        MOV.B   #0x0, R13
        MOV.W   0x1a(SP), R15
        JMP     ??ZDP_MgmtRtgRsp_3
??ZDP_MgmtRtgRsp_0:
        MOV.B   @R15, 0(R14)
        ADD.W   #0x1, R14
        MOV.B   0x1(R15), 0(R14)
        ADD.W   #0x1, R14
        MOV.B   0x5(R15), 0(R14)
        ADD.W   #0x1, R14
        MOV.B   0x2(R15), 0(R14)
        ADD.W   #0x1, R14
        MOV.B   0x3(R15), 0(R14)
        ADD.W   #0x1, R14
        ADD.W   #0x8, R15
        ADD.B   #0x1, R13
??ZDP_MgmtRtgRsp_3:
        CMP.B   R7, R13
        JNC     ??ZDP_MgmtRtgRsp_0
        MOV.W   R12, R15
        CALLA   #??Subroutine6_0
??CrossCallReturnLabel_20:
        MOV.W   #0x8032, R14
        CALLA   #?Subroutine7
          CFI EndBlock cfiBlock105
??ZDP_MgmtRtgRsp_2:
        REQUIRE ?Subroutine3
        // Fall through to label ?Subroutine3

        RSEG CODE:CODE:NOROOT(1)
?Subroutine3:
          CFI Block cfiBlock106 Using cfiCommon0
          CFI NoFunction
          CFI CFA SP+22
          CFI R4L Frame(CFA, -20)
          CFI R5L Frame(CFA, -18)
          CFI R6L Frame(CFA, -16)
          CFI R7L Frame(CFA, -14)
          CFI R8L Frame(CFA, -12)
          CFI R9L Frame(CFA, -10)
          CFI R10L Frame(CFA, -8)
          CFI R11L Frame(CFA, -6)
        ADD.W   #0x2, SP
          CFI CFA SP+20
        POPM.W  #0x8, R11
          CFI CFA SP+4
          CFI R4L SameValue
          CFI R5L SameValue
          CFI R6L SameValue
          CFI R7L SameValue
          CFI R8L SameValue
          CFI R9L SameValue
          CFI R10L SameValue
          CFI R11L SameValue
        RETA
          CFI EndBlock cfiBlock106

        RSEG CODE:CODE:NOROOT(1)
?Subroutine8:
          CFI Block cfiCond107 Using cfiCommon0
          CFI Function ZDP_MgmtRtgRsp
          CFI Conditional ??CrossCallReturnLabel_22
          CFI R4L Frame(CFA, -20)
          CFI R5L Frame(CFA, -18)
          CFI R6L Frame(CFA, -16)
          CFI R7L Frame(CFA, -14)
          CFI R8L Frame(CFA, -12)
          CFI R9L Frame(CFA, -10)
          CFI R10L Frame(CFA, -8)
          CFI R11L Frame(CFA, -6)
          CFI CFA SP+26
          CFI Block cfiCond108 Using cfiCommon0
          CFI (cfiCond108) Function ZDP_MgmtNwkDiscRsp
          CFI (cfiCond108) Conditional ??CrossCallReturnLabel_23
          CFI (cfiCond108) R4L Frame(CFA, -20)
          CFI (cfiCond108) R5L Frame(CFA, -18)
          CFI (cfiCond108) R6L Frame(CFA, -16)
          CFI (cfiCond108) R7L Frame(CFA, -14)
          CFI (cfiCond108) R8L Frame(CFA, -12)
          CFI (cfiCond108) R9L Frame(CFA, -10)
          CFI (cfiCond108) R10L Frame(CFA, -8)
          CFI (cfiCond108) R11L Frame(CFA, -6)
          CFI (cfiCond108) CFA SP+26
          CFI Block cfiPicker109 Using cfiCommon1
          CFI (cfiPicker109) NoFunction
          CFI (cfiPicker109) Picker
        MOV.B   R10, R12
          CFI EndBlock cfiCond107
          CFI EndBlock cfiCond108
          CFI EndBlock cfiPicker109
        REQUIRE ??Subroutine8_0
        // Fall through to label ??Subroutine8_0

        RSEG CODE:CODE:NOROOT(1)
??Subroutine8_0:
          CFI Block cfiCond110 Using cfiCommon0
          CFI Function ZDP_MgmtNwkUpdateNotify
          CFI Conditional ??CrossCallReturnLabel_24
          CFI R4L Frame(CFA, -20)
          CFI R5L Frame(CFA, -18)
          CFI R6L Frame(CFA, -16)
          CFI R7L Frame(CFA, -14)
          CFI R8L Frame(CFA, -12)
          CFI R9L Frame(CFA, -10)
          CFI R10L Frame(CFA, -8)
          CFI R11L Frame(CFA, -6)
          CFI CFA SP+28
          CFI Block cfiCond111 Using cfiCommon0
          CFI (cfiCond111) Function ZDP_MgmtBindRsp
          CFI (cfiCond111) Conditional ??CrossCallReturnLabel_25
          CFI (cfiCond111) R6L Frame(CFA, -16)
          CFI (cfiCond111) R7L Frame(CFA, -14)
          CFI (cfiCond111) R8L Frame(CFA, -12)
          CFI (cfiCond111) R9L Frame(CFA, -10)
          CFI (cfiCond111) R10L Frame(CFA, -8)
          CFI (cfiCond111) R11L Frame(CFA, -6)
          CFI (cfiCond111) CFA SP+22
          CFI Block cfiCond112 Using cfiCommon0
          CFI (cfiCond112) Function ZDP_MgmtRtgRsp
          CFI (cfiCond112) Conditional ??CrossCallReturnLabel_22
          CFI (cfiCond112) R4L Frame(CFA, -20)
          CFI (cfiCond112) R5L Frame(CFA, -18)
          CFI (cfiCond112) R6L Frame(CFA, -16)
          CFI (cfiCond112) R7L Frame(CFA, -14)
          CFI (cfiCond112) R8L Frame(CFA, -12)
          CFI (cfiCond112) R9L Frame(CFA, -10)
          CFI (cfiCond112) R10L Frame(CFA, -8)
          CFI (cfiCond112) R11L Frame(CFA, -6)
          CFI (cfiCond112) CFA SP+26
          CFI Block cfiCond113 Using cfiCommon0
          CFI (cfiCond113) Function ZDP_MgmtNwkDiscRsp
          CFI (cfiCond113) Conditional ??CrossCallReturnLabel_23
          CFI (cfiCond113) R4L Frame(CFA, -20)
          CFI (cfiCond113) R5L Frame(CFA, -18)
          CFI (cfiCond113) R6L Frame(CFA, -16)
          CFI (cfiCond113) R7L Frame(CFA, -14)
          CFI (cfiCond113) R8L Frame(CFA, -12)
          CFI (cfiCond113) R9L Frame(CFA, -10)
          CFI (cfiCond113) R10L Frame(CFA, -8)
          CFI (cfiCond113) R11L Frame(CFA, -6)
          CFI (cfiCond113) CFA SP+26
          CFI Block cfiPicker114 Using cfiCommon1
          CFI (cfiPicker114) NoFunction
          CFI (cfiPicker114) Picker
        ADD.W   #0x1, R12
        CALLA   #osal_mem_alloc
        MOV.W   R12, R9
        CMP.W   #0x0, R12
        RETA
          CFI EndBlock cfiCond110
          CFI EndBlock cfiCond111
          CFI EndBlock cfiCond112
          CFI EndBlock cfiCond113
          CFI EndBlock cfiPicker114

        RSEG CODE:CODE:NOROOT(1)
?Subroutine7:
          CFI Block cfiCond115 Using cfiCommon0
          CFI Function ZDP_MgmtRtgRsp
          CFI Conditional ??ZDP_MgmtRtgRsp_2
          CFI R4L Frame(CFA, -20)
          CFI R5L Frame(CFA, -18)
          CFI R6L Frame(CFA, -16)
          CFI R7L Frame(CFA, -14)
          CFI R8L Frame(CFA, -12)
          CFI R9L Frame(CFA, -10)
          CFI R10L Frame(CFA, -8)
          CFI R11L Frame(CFA, -6)
          CFI CFA SP+26
          CFI Block cfiCond116 Using cfiCommon0
          CFI (cfiCond116) Function ZDP_MgmtNwkDiscRsp
          CFI (cfiCond116) Conditional ??ZDP_MgmtNwkDiscRsp_3
          CFI (cfiCond116) R4L Frame(CFA, -20)
          CFI (cfiCond116) R5L Frame(CFA, -18)
          CFI (cfiCond116) R6L Frame(CFA, -16)
          CFI (cfiCond116) R7L Frame(CFA, -14)
          CFI (cfiCond116) R8L Frame(CFA, -12)
          CFI (cfiCond116) R9L Frame(CFA, -10)
          CFI (cfiCond116) R10L Frame(CFA, -8)
          CFI (cfiCond116) R11L Frame(CFA, -6)
          CFI (cfiCond116) CFA SP+26
          CFI Block cfiPicker117 Using cfiCommon1
          CFI (cfiPicker117) NoFunction
          CFI (cfiPicker117) Picker
        MOV.W   R6, R13
          CFI EndBlock cfiCond115
          CFI EndBlock cfiCond116
          CFI EndBlock cfiPicker117
        REQUIRE ??Subroutine24_0
        // Fall through to label ??Subroutine24_0

        RSEG CODE:CODE:NOROOT(1)
??Subroutine24_0:
          CFI Block cfiCond118 Using cfiCommon0
          CFI Function ZDP_MgmtBindRsp
          CFI Conditional ??ZDP_MgmtBindRsp_3
          CFI R6L Frame(CFA, -16)
          CFI R7L Frame(CFA, -14)
          CFI R8L Frame(CFA, -12)
          CFI R9L Frame(CFA, -10)
          CFI R10L Frame(CFA, -8)
          CFI R11L Frame(CFA, -6)
          CFI CFA SP+22
          CFI Block cfiCond119 Using cfiCommon0
          CFI (cfiCond119) Function ZDP_MgmtRtgRsp
          CFI (cfiCond119) Conditional ??ZDP_MgmtRtgRsp_2
          CFI (cfiCond119) R4L Frame(CFA, -20)
          CFI (cfiCond119) R5L Frame(CFA, -18)
          CFI (cfiCond119) R6L Frame(CFA, -16)
          CFI (cfiCond119) R7L Frame(CFA, -14)
          CFI (cfiCond119) R8L Frame(CFA, -12)
          CFI (cfiCond119) R9L Frame(CFA, -10)
          CFI (cfiCond119) R10L Frame(CFA, -8)
          CFI (cfiCond119) R11L Frame(CFA, -6)
          CFI (cfiCond119) CFA SP+26
          CFI Block cfiCond120 Using cfiCommon0
          CFI (cfiCond120) Function ZDP_MgmtNwkDiscRsp
          CFI (cfiCond120) Conditional ??ZDP_MgmtNwkDiscRsp_3
          CFI (cfiCond120) R4L Frame(CFA, -20)
          CFI (cfiCond120) R5L Frame(CFA, -18)
          CFI (cfiCond120) R6L Frame(CFA, -16)
          CFI (cfiCond120) R7L Frame(CFA, -14)
          CFI (cfiCond120) R8L Frame(CFA, -12)
          CFI (cfiCond120) R9L Frame(CFA, -10)
          CFI (cfiCond120) R10L Frame(CFA, -8)
          CFI (cfiCond120) R11L Frame(CFA, -6)
          CFI (cfiCond120) CFA SP+26
          CFI Block cfiPicker121 Using cfiCommon1
          CFI (cfiPicker121) NoFunction
          CFI (cfiPicker121) Picker
        MOV.W   SP, R12
        ADD.W   #0x4, R12
        CALLA   #?Subroutine20
??CrossCallReturnLabel_27:
        MOV.B   R10, R12
        RETA
          CFI EndBlock cfiCond118
          CFI EndBlock cfiCond119
          CFI EndBlock cfiCond120
          CFI EndBlock cfiPicker121

        RSEG CODE:CODE:NOROOT(1)
?Subroutine20:
          CFI Block cfiCond122 Using cfiCommon0
          CFI Function ZDP_MgmtNwkUpdateNotify
          CFI Conditional ??CrossCallReturnLabel_26
          CFI R4L Frame(CFA, -20)
          CFI R5L Frame(CFA, -18)
          CFI R6L Frame(CFA, -16)
          CFI R7L Frame(CFA, -14)
          CFI R8L Frame(CFA, -12)
          CFI R9L Frame(CFA, -10)
          CFI R10L Frame(CFA, -8)
          CFI R11L Frame(CFA, -6)
          CFI CFA SP+28
          CFI Block cfiCond123 Using cfiCommon0
          CFI (cfiCond123) Function ZDP_MgmtRtgRsp
          CFI (cfiCond123) Conditional ??CrossCallReturnLabel_27, ??ZDP_MgmtRtgRsp_2
          CFI (cfiCond123) R4L Frame(CFA, -20)
          CFI (cfiCond123) R5L Frame(CFA, -18)
          CFI (cfiCond123) R6L Frame(CFA, -16)
          CFI (cfiCond123) R7L Frame(CFA, -14)
          CFI (cfiCond123) R8L Frame(CFA, -12)
          CFI (cfiCond123) R9L Frame(CFA, -10)
          CFI (cfiCond123) R10L Frame(CFA, -8)
          CFI (cfiCond123) R11L Frame(CFA, -6)
          CFI (cfiCond123) CFA SP+30
          CFI Block cfiCond124 Using cfiCommon0
          CFI (cfiCond124) Function ZDP_MgmtNwkDiscRsp
          CFI (cfiCond124) Conditional ??CrossCallReturnLabel_27, ??ZDP_MgmtNwkDiscRsp_3
          CFI (cfiCond124) R4L Frame(CFA, -20)
          CFI (cfiCond124) R5L Frame(CFA, -18)
          CFI (cfiCond124) R6L Frame(CFA, -16)
          CFI (cfiCond124) R7L Frame(CFA, -14)
          CFI (cfiCond124) R8L Frame(CFA, -12)
          CFI (cfiCond124) R9L Frame(CFA, -10)
          CFI (cfiCond124) R10L Frame(CFA, -8)
          CFI (cfiCond124) R11L Frame(CFA, -6)
          CFI (cfiCond124) CFA SP+30
          CFI Block cfiCond125 Using cfiCommon0
          CFI (cfiCond125) Function ZDP_MgmtBindRsp
          CFI (cfiCond125) Conditional ??CrossCallReturnLabel_27, ??ZDP_MgmtBindRsp_3
          CFI (cfiCond125) R6L Frame(CFA, -16)
          CFI (cfiCond125) R7L Frame(CFA, -14)
          CFI (cfiCond125) R8L Frame(CFA, -12)
          CFI (cfiCond125) R9L Frame(CFA, -10)
          CFI (cfiCond125) R10L Frame(CFA, -8)
          CFI (cfiCond125) R11L Frame(CFA, -6)
          CFI (cfiCond125) CFA SP+26
          CFI Block cfiPicker126 Using cfiCommon1
          CFI (cfiPicker126) NoFunction
          CFI (cfiPicker126) Picker
        CALLA   #fillAndSend
        MOV.B   R12, R10
        MOV.W   R9, R12
        CALLA   #osal_mem_free
        MOV.W   #ZDP_Buf + 1, &ZDP_TmpBuf
        RETA
          CFI EndBlock cfiCond122
          CFI EndBlock cfiCond123
          CFI EndBlock cfiCond124
          CFI EndBlock cfiCond125
          CFI EndBlock cfiPicker126

        RSEG CODE:CODE:NOROOT(1)
ZDP_MgmtLqiRsp:
          CFI Block cfiBlock127 Using cfiCommon0
          CFI Function ZDP_MgmtLqiRsp
        FUNCALL ZDP_MgmtLqiRsp, fillAndSend
        LOCFRAME CSTACK, 22, STACK
        FUNCALL ZDP_MgmtLqiRsp, osal_mem_alloc
        LOCFRAME CSTACK, 22, STACK
        FUNCALL ZDP_MgmtLqiRsp, sAddrExtCpy
        LOCFRAME CSTACK, 22, STACK
        FUNCALL ZDP_MgmtLqiRsp, sAddrExtCpy
        LOCFRAME CSTACK, 22, STACK
        FUNCALL ZDP_MgmtLqiRsp, fillAndSend
        LOCFRAME CSTACK, 22, STACK
        FUNCALL ZDP_MgmtLqiRsp, osal_mem_free
        LOCFRAME CSTACK, 22, STACK
        PUSHM.W #0x8, R11
          CFI R4L Frame(CFA, -20)
          CFI R5L Frame(CFA, -18)
          CFI R6L Frame(CFA, -16)
          CFI R7L Frame(CFA, -14)
          CFI R8L Frame(CFA, -12)
          CFI R9L Frame(CFA, -10)
          CFI R10L Frame(CFA, -8)
          CFI R11L Frame(CFA, -6)
          CFI CFA SP+20
        PUSH.B  R12
          CFI CFA SP+22
        MOV.W   R13, R9
        MOV.B   R15, R11
        MOV.B   0x16(SP), R7
        MOV.W   0x1a(SP), R8
        CMP.B   #0x0, R14
        JEQ     ??ZDP_MgmtLqiRsp_1
        MOV.W   &ZDP_TmpBuf, R15
        MOV.B   R14, 0(R15)
        MOV.B   #0x1, R15
        MOV.W   #0x8031, R14
        CALLA   #?Subroutine13
??CrossCallReturnLabel_7:
        JMP     ??ZDP_MgmtLqiRsp_2
??ZDP_MgmtLqiRsp_1:
        MOV.B   0x18(SP), R4
        MOV.B   R4, R10
        RLA.B   R10
        MOV.B   R10, R14
        RLA.B   R10
        ADD.B   R10, R14
        RPT     #0x2
        RLAX.B  R10
        ADD.B   R14, R10
        ADD.B   #0x4, R10
        MOV.B   R10, R12
        ADD.W   #0x1, R12
        CALLA   #osal_mem_alloc
        MOV.W   R12, R6
        CMP.W   #0x0, R12
        JNE     ??ZDP_MgmtLqiRsp_3
        MOV.B   #0x10, R12
        JMP     ??ZDP_MgmtLqiRsp_2
??ZDP_MgmtLqiRsp_3:
        MOV.W   R12, R5
        ADD.W   #0x1, R5
        MOV.B   #0x0, 0(R5)
        ADD.W   #0x1, R5
        MOV.B   R11, 0(R5)
        ADD.W   #0x1, R5
        MOV.B   R7, 0(R5)
        ADD.W   #0x1, R5
        MOV.B   R4, 0(R5)
        ADD.W   #0x1, R5
        MOV.B   #0x0, R11
        JMP     ??ZDP_MgmtLqiRsp_4
??ZDP_MgmtLqiRsp_0:
        MOV.W   R8, R13
        ADD.W   #0x2, R13
        MOV.W   R5, R12
        CALLA   #sAddrExtCpy
        MOV.W   R8, R13
        ADD.W   #0xa, R13
        ADD.W   #0x8, R5
        MOV.W   R5, R12
        CALLA   #sAddrExtCpy
        MOV.W   R12, R5
        MOV.B   0x12(R8), 0(R12)
        ADD.W   #0x1, R5
        MOV.B   0x13(R8), 0(R5)
        ADD.W   #0x1, R5
        MOV.B   0x14(R8), 0(R5)
        MOV.B   0x15(R8), R14
        RPT     #0x2
        RLAX.B  R14
        BIS.B   R14, 0(R5)
        MOV.W   R5, R15
        ADD.W   #0x1, R5
        MOV.B   0x16(R8), R14
        RPT     #0x4
        RLAX.B  R14
        BIS.B   R14, 0(R15)
        MOV.B   0x17(R8), 0(R5)
        ADD.W   #0x1, R5
        MOV.B   0x18(R8), 0(R5)
        ADD.W   #0x1, R5
        MOV.B   0x19(R8), 0(R5)
        ADD.W   #0x1, R5
        ADD.W   #0x1a, R8
        ADD.B   #0x1, R11
??ZDP_MgmtLqiRsp_4:
        CMP.B   R4, R11
        JNC     ??ZDP_MgmtLqiRsp_0
        MOV.W   R6, R15
        CALLA   #??Subroutine6_0
??CrossCallReturnLabel_21:
        MOV.W   #0x8031, R14
        MOV.W   R9, R13
        CALLA   #?Subroutine13
??CrossCallReturnLabel_6:
        MOV.B   R12, R10
        MOV.W   R6, R12
        CALLA   #osal_mem_free
        MOV.W   #ZDP_Buf + 1, &ZDP_TmpBuf
        MOV.B   R10, R12
??ZDP_MgmtLqiRsp_2:
        JMP     ?Subroutine3
          CFI EndBlock cfiBlock127

        RSEG CODE:CODE:REORDER:NOROOT(1)
ZDP_MgmtNwkDiscRsp:
          CFI Block cfiBlock128 Using cfiCommon0
          CFI Function ZDP_MgmtNwkDiscRsp
        FUNCALL ZDP_MgmtNwkDiscRsp, osal_mem_alloc
        LOCFRAME CSTACK, 22, STACK
        FUNCALL ZDP_MgmtNwkDiscRsp, sAddrExtCpy
        LOCFRAME CSTACK, 22, STACK
        FUNCALL ZDP_MgmtNwkDiscRsp, fillAndSend
        LOCFRAME CSTACK, 22, STACK
        FUNCALL ZDP_MgmtNwkDiscRsp, osal_mem_free
        LOCFRAME CSTACK, 22, STACK
        PUSHM.W #0x8, R11
          CFI R4L Frame(CFA, -20)
          CFI R5L Frame(CFA, -18)
          CFI R6L Frame(CFA, -16)
          CFI R7L Frame(CFA, -14)
          CFI R8L Frame(CFA, -12)
          CFI R9L Frame(CFA, -10)
          CFI R10L Frame(CFA, -8)
          CFI R11L Frame(CFA, -6)
          CFI CFA SP+20
        PUSH.B  R12
          CFI CFA SP+22
        MOV.W   R13, R6
        MOV.B   R14, R11
        MOV.B   R15, R8
        MOV.B   0x16(SP), R5
        MOV.B   0x18(SP), R7
        MOV.B   #0x4, R10
        RPT     #0xc
        ADDX.B  R7, R10
        CALLA   #?Subroutine8
??CrossCallReturnLabel_23:
        JNE     ??ZDP_MgmtNwkDiscRsp_2
        MOV.B   #0x10, R12
        JMP     ??ZDP_MgmtNwkDiscRsp_3
??ZDP_MgmtNwkDiscRsp_2:
        MOV.W   R12, R4
        ADD.W   #0x1, R4
        MOV.B   R11, 0(R4)
        ADD.W   #0x1, R4
        MOV.B   R8, 0(R4)
        ADD.W   #0x1, R4
        MOV.B   R5, 0(R4)
        ADD.W   #0x1, R4
        MOV.B   R7, 0(R4)
        ADD.W   #0x1, R4
        MOV.B   #0x0, R8
        MOV.W   0x1a(SP), R11
        JMP     ??ZDP_MgmtNwkDiscRsp_4
??ZDP_MgmtNwkDiscRsp_0:
        MOV.B   #0x0, 0(R4)
??ZDP_MgmtNwkDiscRsp_6:
        ADD.W   #0x1, R4
        MOV.W   0x16(R11), R11
        ADD.B   #0x1, R8
??ZDP_MgmtNwkDiscRsp_4:
        CMP.B   R7, R8
        JC      ??ZDP_MgmtNwkDiscRsp_5
        MOV.W   R11, R13
        ADD.W   #0xc, R13
        MOV.W   R4, R12
        CALLA   #sAddrExtCpy
        ADD.W   #0x8, R4
        MOV.B   0x2(R11), 0(R4)
        ADD.W   #0x1, R4
        MOV.B   0x6(R11), 0(R4)
        MOV.W   R4, R15
        ADD.W   #0x1, R4
        MOV.B   0x5(R11), R14
        RPT     #0x4
        RLAX.B  R14
        BIS.B   R14, 0(R15)
        MOV.B   #0xf, 0(R4)
        MOV.W   R4, R15
        ADD.W   #0x1, R4
        BIS.B   #0xf0, 0(R15)
        CMP.W   #0xfffe, 0x8(R11)
        JEQ     ??ZDP_MgmtNwkDiscRsp_0
        MOV.B   #0x1, 0(R4)
        JMP     ??ZDP_MgmtNwkDiscRsp_6
??ZDP_MgmtNwkDiscRsp_5:
        CALLA   #?Subroutine6
??CrossCallReturnLabel_19:
        MOV.W   #0x8030, R14
        CALLA   #?Subroutine7
??ZDP_MgmtNwkDiscRsp_3:
        JMP     ?Subroutine3
          CFI EndBlock cfiBlock128
// 1530 }
// 1531 
// 1532 /*********************************************************************
// 1533  * @fn          ZDP_MgmtRtgRsp
// 1534  *
// 1535  * @brief       This builds and send a Mgmt_Rtg_rsp message. This
// 1536  *              function sends a unicast message.
// 1537  *
// 1538  * @param       dstAddr - destination address of the message
// 1539  * @param       Status - message status (ZDP_SUCCESS or other)
// 1540  * @param       RoutingTableEntries - Total number of entries
// 1541  * @param       StartIndex - Starting index within the reporting list
// 1542  * @param       RoutingTableListCount - number of entries included
// 1543  *                                      in this message
// 1544  * @param       RoutingTableList - List of Routing Table entries
// 1545  * @param       SecurityEnable - true to enable security for this message
// 1546  *
// 1547  * @return      ZStatus_t
// 1548  */
// 1549 ZStatus_t ZDP_MgmtRtgRsp( byte TransSeq, zAddrType_t *dstAddr,
// 1550                             byte Status,
// 1551                             byte RoutingTableEntries,
// 1552                             byte StartIndex,
// 1553                             byte RoutingListCount,
// 1554                             rtgItem_t *RoutingTableList,
// 1555                             byte SecurityEnable )
// 1556 {
// 1557   uint8 *buf;
// 1558   uint8 *pBuf;
// 1559   // Status + RoutingTableEntries + StartIndex + RoutingListCount.
// 1560   byte len = 1 + 1 + 1 + 1;
// 1561   byte x;
// 1562 
// 1563   (void)SecurityEnable;  // Intentionally unreferenced parameter
// 1564 
// 1565   // Add an array for Routing List data
// 1566   len += (RoutingListCount * ZDP_ROUTINGENTRY_SIZE);
// 1567 
// 1568   buf = osal_mem_alloc( (short)(len+1) );
// 1569   if ( buf == NULL )
// 1570   {
// 1571     return afStatus_MEM_FAIL;
// 1572   }
// 1573 
// 1574   pBuf = buf+1;
// 1575 
// 1576   *pBuf++ = Status;
// 1577   *pBuf++ = RoutingTableEntries;
// 1578   *pBuf++ = StartIndex;
// 1579   *pBuf++ = RoutingListCount;
// 1580 
// 1581   for ( x = 0; x < RoutingListCount; x++ )
// 1582   {
// 1583     *pBuf++ = LO_UINT16( RoutingTableList->dstAddress );  // Destination Address
// 1584     *pBuf++ = HI_UINT16( RoutingTableList->dstAddress );
// 1585     *pBuf++ = RoutingTableList->status;
// 1586     *pBuf++ = LO_UINT16( RoutingTableList->nextHopAddress );  // Next hop
// 1587     *pBuf++ = HI_UINT16( RoutingTableList->nextHopAddress );
// 1588     RoutingTableList++;    // Move to next list entry
// 1589   }
// 1590 
// 1591   FillAndSendBuffer( &TransSeq, dstAddr, Mgmt_Rtg_rsp, len, buf );
// 1592 }
// 1593 
// 1594 /*********************************************************************
// 1595  * @fn          ZDP_MgmtBindRsp
// 1596  *
// 1597  * @brief       This builds and send a Mgmt_Bind_rsp message. This
// 1598  *              function sends a unicast message.
// 1599  *
// 1600  * @param       dstAddr - destination address of the message
// 1601  * @param       Status - message status (ZDP_SUCCESS or other)
// 1602  * @param       BindingTableEntries - Total number of entries
// 1603  * @param       StartIndex - Starting index within the reporting list
// 1604  * @param       BindingTableListCount - number of entries included
// 1605  *                                 in this message
// 1606  * @param       BindingTableList - List of Binding Table entries
// 1607  * @param       SecurityEnable - Security Options
// 1608  *
// 1609  * @return      ZStatus_t
// 1610  */

        RSEG CODE:CODE:REORDER:NOROOT(1)
// 1611 ZStatus_t ZDP_MgmtBindRsp( byte TransSeq, zAddrType_t *dstAddr,
ZDP_MgmtBindRsp:
          CFI Block cfiBlock129 Using cfiCommon0
          CFI Function ZDP_MgmtBindRsp
// 1612                             byte Status,
// 1613                             byte BindingTableEntries,
// 1614                             byte StartIndex,
// 1615                             byte BindingTableListCount,
// 1616                             apsBindingItem_t *BindingTableList,
// 1617                             byte SecurityEnable )
// 1618 {
        FUNCALL ZDP_MgmtBindRsp, osal_mem_alloc
        LOCFRAME CSTACK, 18, STACK
        FUNCALL ZDP_MgmtBindRsp, sAddrExtCpy
        LOCFRAME CSTACK, 18, STACK
        FUNCALL ZDP_MgmtBindRsp, sAddrExtCpy
        LOCFRAME CSTACK, 18, STACK
        FUNCALL ZDP_MgmtBindRsp, fillAndSend
        LOCFRAME CSTACK, 18, STACK
        FUNCALL ZDP_MgmtBindRsp, osal_mem_free
        LOCFRAME CSTACK, 18, STACK
        PUSHM.W #0x6, R11
          CFI R6L Frame(CFA, -16)
          CFI R7L Frame(CFA, -14)
          CFI R8L Frame(CFA, -12)
          CFI R9L Frame(CFA, -10)
          CFI R10L Frame(CFA, -8)
          CFI R11L Frame(CFA, -6)
          CFI CFA SP+16
        PUSH.B  R12
          CFI CFA SP+18
        MOV.W   R13, R8
        MOV.B   R14, R10
        MOV.B   R15, R11
        MOV.B   0x12(SP), R7
        MOV.B   0x14(SP), R6
// 1619   uint8 *buf;
// 1620   uint8 *pBuf;
// 1621   uint8 maxLen; // maxLen is the maximum packet length to allocate enough memory space
// 1622   uint8 len;    // Actual length varies due to different addrMode
// 1623   uint8 x;
// 1624   byte extZdpBindEntrySize = ZDP_BINDINGENTRY_SIZE + 1 + 1; // One more byte for cluserID and DstAddrMode
// 1625   byte shortZdpBindEntrySize = ZDP_BINDINGENTRY_SIZE + 1 + 1 + 2 - 8 - 1; // clusterID + DstAddrMode + shortAddr - ExtAddr - DstEndpoint
// 1626 
// 1627   (void)SecurityEnable;  // Intentionally unreferenced parameter
// 1628 
// 1629   // Status + BindingTableEntries + StartIndex + BindingTableListCount.
// 1630   maxLen = 1 + 1 + 1 + 1;
// 1631   maxLen += (BindingTableListCount * extZdpBindEntrySize );  //max length
// 1632   buf = osal_mem_alloc( maxLen + 1 );  // +1 for transaction ID
        MOV.B   R6, R12
        MOV.B   R6, R14
        RPT     #0x2
        RLAX.B  R12
        ADD.B   R12, R14
        RPT     #0x2
        RLAX.B  R12
        ADD.B   R14, R12
        ADD.B   #0x4, R12
        CALLA   #??Subroutine8_0
// 1633 
// 1634   if ( buf == NULL )
??CrossCallReturnLabel_25:
        JNE     ??ZDP_MgmtBindRsp_2
// 1635   {
// 1636     return afStatus_MEM_FAIL;
        MOV.B   #0x10, R12
        JMP     ??ZDP_MgmtBindRsp_3
// 1637   }
// 1638 
// 1639   pBuf = buf+1;
??ZDP_MgmtBindRsp_2:
        ADD.W   #0x1, R12
// 1640 
// 1641   *pBuf++ = Status;
        MOV.B   R10, 0(R12)
        ADD.W   #0x1, R12
// 1642   *pBuf++ = BindingTableEntries;
        MOV.B   R11, 0(R12)
        ADD.W   #0x1, R12
// 1643   *pBuf++ = StartIndex;
        MOV.B   R7, 0(R12)
        ADD.W   #0x1, R12
// 1644   *pBuf++ = BindingTableListCount;
        MOV.B   R6, 0(R12)
        ADD.W   #0x1, R12
// 1645 
// 1646   // Initial length = Status + BindingTableEntries + StartIndex + BindingTableListCount.
// 1647   // length += ZDP_BINDINGENTRY_SIZE   -- Version 1.0
// 1648   //           extZdpBindEntrySize     -- Version 1.1 extended address mode
// 1649   //           shortZdpBindEntrySize   -- Version 1.1 group address mode
// 1650 
// 1651   len = 1 + 1 + 1 + 1;
        MOV.B   #0x4, R10
// 1652   for ( x = 0; x < BindingTableListCount; x++ )
        MOV.B   #0x0, R7
        MOV.W   0x16(SP), R11
        JMP     ??ZDP_MgmtBindRsp_4
// 1653   {
// 1654     pBuf = osal_cpyExtAddr( pBuf, BindingTableList->srcAddr );
// 1655     *pBuf++ = BindingTableList->srcEP;
// 1656 
// 1657     // Cluster ID
// 1658     *pBuf++ = LO_UINT16( BindingTableList->clusterID );
// 1659     *pBuf++ = HI_UINT16( BindingTableList->clusterID );
// 1660 
// 1661     *pBuf++ = BindingTableList->dstAddr.addrMode;
// 1662     if ( BindingTableList->dstAddr.addrMode == Addr64Bit )
// 1663     {
// 1664       len += extZdpBindEntrySize;
// 1665       pBuf = osal_cpyExtAddr( pBuf, BindingTableList->dstAddr.addr.extAddr );
// 1666       *pBuf++ = BindingTableList->dstEP;
// 1667     }
// 1668     else
// 1669     {
// 1670       len += shortZdpBindEntrySize;
??ZDP_MgmtBindRsp_0:
        ADD.B   #0xe, R10
// 1671       *pBuf++ = LO_UINT16( BindingTableList->dstAddr.addr.shortAddr );
        MOV.B   0xc(R11), 0(R12)
        ADD.W   #0x1, R12
// 1672       *pBuf++ = HI_UINT16( BindingTableList->dstAddr.addr.shortAddr );
        MOV.B   0xd(R11), 0(R12)
??ZDP_MgmtBindRsp_6:
        ADD.W   #0x1, R12
// 1673     }
// 1674     BindingTableList++;    // Move to next list entry
        ADD.W   #0x18, R11
        ADD.B   #0x1, R7
??ZDP_MgmtBindRsp_4:
        CMP.B   R6, R7
        JC      ??ZDP_MgmtBindRsp_5
        MOV.W   R11, R13
        CALLA   #sAddrExtCpy
        MOV.B   0x8(R11), 0(R12)
        ADD.W   #0x1, R12
        MOV.B   0xa(R11), 0(R12)
        ADD.W   #0x1, R12
        MOV.B   0xb(R11), 0(R12)
        ADD.W   #0x1, R12
        MOV.B   0x14(R11), 0(R12)
        ADD.W   #0x1, R12
        CMP.B   #0x3, 0x14(R11)
        JNE     ??ZDP_MgmtBindRsp_0
        ADD.B   #0x15, R10
        MOV.W   R11, R13
        ADD.W   #0xc, R13
        CALLA   #sAddrExtCpy
        MOV.B   0x16(R11), 0(R12)
        JMP     ??ZDP_MgmtBindRsp_6
// 1675   }
// 1676 
// 1677   FillAndSendBuffer( &TransSeq, dstAddr, Mgmt_Bind_rsp, len, buf );
??ZDP_MgmtBindRsp_5:
        CALLA   #?Subroutine6
??CrossCallReturnLabel_18:
        MOV.W   #0x8033, R14
        MOV.W   R8, R13
        CALLA   #??Subroutine24_0
??ZDP_MgmtBindRsp_3:
        ADD.W   #0x2, SP
          CFI CFA SP+16
        POPM.W  #0x6, R11
          CFI R10L SameValue
          CFI R11L SameValue
          CFI R6L SameValue
          CFI R7L SameValue
          CFI R8L SameValue
          CFI R9L SameValue
          CFI CFA SP+4
        RETA
          CFI EndBlock cfiBlock129
// 1678 }
// 1679 
// 1680 /*********************************************************************
// 1681  * @fn          ZDP_MgmtNwkUpdateNotify
// 1682  *
// 1683  * @brief       This builds and send a Mgmt_NWK_Update_notify message. This
// 1684  *              function sends a unicast message.
// 1685  *
// 1686  * @param       dstAddr - destination address of the message
// 1687  * @param       status - message status (ZDP_SUCCESS or other)
// 1688  * @param       scannedChannels - List of channels scanned by the request
// 1689  * @param       totalTransmissions - Total transmissions
// 1690  * @param       transmissionFailures - Sum of transmission failures
// 1691  * @param       listCount - Number of records contained in the energyValues list
// 1692  * @param       energyValues - List of descriptors, one for each of ListCount,
// 1693  *                             of the enegry detect descriptors
// 1694  * @param       txOptions - Transmit options
// 1695  * @param       securityEnable - Security options
// 1696  *
// 1697  * @return      afStatus_t
// 1698  */

        RSEG CODE:CODE:REORDER:NOROOT(1)
// 1699 afStatus_t ZDP_MgmtNwkUpdateNotify( uint8 TransSeq, zAddrType_t *dstAddr,
ZDP_MgmtNwkUpdateNotify:
          CFI Block cfiBlock130 Using cfiCommon0
          CFI Function ZDP_MgmtNwkUpdateNotify
// 1700                                     uint8 status, uint32 scannedChannels,
// 1701                                     uint16 totalTransmissions, uint16 transmissionFailures,
// 1702                                     uint8 listCount, uint8 *energyValues, uint8 txOptions,
// 1703                                     uint8 securityEnable )
// 1704 {
        FUNCALL ZDP_MgmtNwkUpdateNotify, osal_mem_alloc
        LOCFRAME CSTACK, 24, STACK
        FUNCALL ZDP_MgmtNwkUpdateNotify, osal_buffer_uint32
        LOCFRAME CSTACK, 24, STACK
        FUNCALL ZDP_MgmtNwkUpdateNotify, osal_memcpy
        LOCFRAME CSTACK, 24, STACK
        FUNCALL ZDP_MgmtNwkUpdateNotify, fillAndSend
        LOCFRAME CSTACK, 24, STACK
        FUNCALL ZDP_MgmtNwkUpdateNotify, osal_mem_free
        LOCFRAME CSTACK, 24, STACK
        PUSHM.W #0x8, R11
          CFI R4L Frame(CFA, -20)
          CFI R5L Frame(CFA, -18)
          CFI R6L Frame(CFA, -16)
          CFI R7L Frame(CFA, -14)
          CFI R8L Frame(CFA, -12)
          CFI R9L Frame(CFA, -10)
          CFI R10L Frame(CFA, -8)
          CFI R11L Frame(CFA, -6)
          CFI CFA SP+20
        PUSH.B  R12
          CFI CFA SP+22
        PUSH.W  R13
          CFI CFA SP+24
        MOV.B   R14, R4
        MOV.W   R15, R7
        MOV.W   0x18(SP), R10
        MOV.W   0x1a(SP), R11
        MOV.B   0x22(SP), R5
        MOV.B   0x1e(SP), R6
// 1705   uint8 *buf;
// 1706   uint8 *pBuf;
// 1707   uint8 len;
// 1708 
// 1709   (void)securityEnable;  // Intentionally unreferenced parameter
// 1710 
// 1711   // Status + ScannedChannels + totalTransmissions + transmissionFailures + ListCount + energyValues
// 1712   len = 1 + 4 + 2 + 2 + 1 + listCount;
        MOV.B   R6, R8
        ADD.B   #0xa, R8
// 1713 
// 1714   buf = osal_mem_alloc( len+1 ); // +1 for transaction ID
        MOV.B   R8, R12
        CALLA   #??Subroutine8_0
// 1715   if ( buf == NULL )
??CrossCallReturnLabel_24:
        JNE     ??ZDP_MgmtNwkUpdateNotify_0
// 1716   {
// 1717     return afStatus_MEM_FAIL;
        MOV.B   #0x10, R12
        JMP     ??ZDP_MgmtNwkUpdateNotify_1
// 1718   }
// 1719 
// 1720   pBuf = buf+1;
??ZDP_MgmtNwkUpdateNotify_0:
        ADD.W   #0x1, R12
// 1721 
// 1722   *pBuf++ = status;
        MOV.B   R4, 0(R12)
        ADD.W   #0x1, R12
// 1723 
// 1724   pBuf = osal_buffer_uint32( pBuf, scannedChannels );
        MOV.W   R10, R14
        MOV.W   R11, R15
        CALLA   #osal_buffer_uint32
// 1725 
// 1726   *pBuf++ = LO_UINT16( totalTransmissions );
        MOV.B   R7, 0(R12)
        ADD.W   #0x1, R12
// 1727   *pBuf++ = HI_UINT16( totalTransmissions );
        RPT     #0x8
        RRUX.W  R7
        MOV.B   R7, 0(R12)
        ADD.W   #0x1, R12
        MOV.W   0x1c(SP), R14
// 1728 
// 1729   *pBuf++ = LO_UINT16( transmissionFailures );
        CALLA   #?Subroutine9
// 1730   *pBuf++ = HI_UINT16( transmissionFailures );
// 1731 
// 1732   *pBuf++ = listCount;
??CrossCallReturnLabel_0:
        MOV.B   R6, 0(R12)
        ADD.W   #0x1, R12
// 1733 
// 1734   if ( listCount > 0 )
        CMP.B   #0x0, R6
        JEQ     ??ZDP_MgmtNwkUpdateNotify_2
// 1735     osal_memcpy( pBuf, energyValues, listCount );
        MOV.B   R6, R14
        MOV.W   0x20(SP), R13
        CALLA   #osal_memcpy
// 1736 
// 1737   FillAndSendBufferTxOptions( &TransSeq, dstAddr, Mgmt_NWK_Update_notify, len, buf, txOptions );
??ZDP_MgmtNwkUpdateNotify_2:
        MOV.W   R9, R15
        ADD.W   #0x1, R15
        MOV.W   R15, &ZDP_TmpBuf
        MOV.B   R5, &ZDP_TxOptions
        MOV.B   R8, R15
        MOV.W   #0x8038, R14
        MOV.W   @SP, R13
        MOV.W   SP, R12
        ADD.W   #0x2, R12
        CALLA   #?Subroutine20
??CrossCallReturnLabel_26:
        MOV.B   #0x0, &ZDP_TxOptions
        MOV.B   R10, R12
??ZDP_MgmtNwkUpdateNotify_1:
        ADD.W   #0x4, SP
          CFI CFA SP+20
        POPM.W  #0x8, R11
          CFI R10L SameValue
          CFI R11L SameValue
          CFI R4L SameValue
          CFI R5L SameValue
          CFI R6L SameValue
          CFI R7L SameValue
          CFI R8L SameValue
          CFI R9L SameValue
          CFI CFA SP+4
        RETA
          CFI EndBlock cfiBlock130
// 1738 }
// 1739 
// 1740 /*********************************************************************
// 1741  * Functions to register for ZDO Over-the-air messages
// 1742  */
// 1743 
// 1744 /*********************************************************************
// 1745  * @fn          ZDO_RegisterForZDOMsg
// 1746  *
// 1747  * @brief       Call this function to register of an incoming over
// 1748  *              the air ZDO message - probably a response message
// 1749  *              but requests can also be received.
// 1750  *              Messages are delivered to the task with ZDO_CB_MSG
// 1751  *              as the message ID.
// 1752  *
// 1753  * @param       taskID - Where you would like the message delivered
// 1754  * @param       clusterID - What message?
// 1755  *
// 1756  * @return      ZSuccess - successful, ZMemError if not
// 1757  */

        RSEG CODE:CODE:REORDER:NOROOT(1)
// 1758 ZStatus_t ZDO_RegisterForZDOMsg( uint8 taskID, uint16 clusterID )
ZDO_RegisterForZDOMsg:
          CFI Block cfiBlock131 Using cfiCommon0
          CFI Function ZDO_RegisterForZDOMsg
// 1759 {
        FUNCALL ZDO_RegisterForZDOMsg, osal_mem_alloc
        LOCFRAME CSTACK, 12, STACK
        PUSHM.W #0x4, R11
          CFI R8L Frame(CFA, -12)
          CFI R9L Frame(CFA, -10)
          CFI R10L Frame(CFA, -8)
          CFI R11L Frame(CFA, -6)
          CFI CFA SP+12
        MOV.B   R12, R10
        MOV.W   R13, R11
// 1760   ZDO_MsgCB_t *pList;
// 1761   ZDO_MsgCB_t *pLast;
// 1762   ZDO_MsgCB_t *pNew;
// 1763 
// 1764   // Look for duplicate
// 1765   pList = pLast = zdoMsgCBs;
        MOV.W   &zdoMsgCBs, R8
        MOV.W   R8, R15
        JMP     ??ZDO_RegisterForZDOMsg_1
// 1766   while ( pList )
// 1767   {
// 1768     if ( pList->taskID == taskID && pList->clusterID == clusterID )
??ZDO_RegisterForZDOMsg_0:
        CMP.B   R12, 0x2(R15)
        JNE     ??ZDO_RegisterForZDOMsg_2
        CMP.W   R13, 0x4(R15)
        JEQ     ??ZDO_RegisterForZDOMsg_3
// 1769       return ( ZSuccess );
// 1770     pLast = pList;
??ZDO_RegisterForZDOMsg_2:
        MOV.W   R15, R8
// 1771     pList = (ZDO_MsgCB_t *)pList->next;
        MOV.W   @R15, R15
// 1772   }
??ZDO_RegisterForZDOMsg_1:
        CMP.W   #0x0, R15
        JNE     ??ZDO_RegisterForZDOMsg_0
// 1773 
// 1774   // Add to the list
// 1775   pNew = (ZDO_MsgCB_t *)osal_mem_alloc( sizeof ( ZDO_MsgCB_t ) );
        MOV.W   #0x6, R12
        CALLA   #osal_mem_alloc
// 1776   if ( pNew )
        CMP.W   #0x0, R12
        JEQ     ??ZDO_RegisterForZDOMsg_4
// 1777   {
// 1778     pNew->taskID = taskID;
        MOV.B   R10, 0x2(R12)
// 1779     pNew->clusterID = clusterID;
        MOV.W   R11, 0x4(R12)
// 1780     pNew->next = NULL;
        MOV.W   #0x0, 0(R12)
// 1781     if ( zdoMsgCBs )
        CMP.W   #0x0, &zdoMsgCBs
        JEQ     ??ZDO_RegisterForZDOMsg_5
// 1782     {
// 1783       pLast->next = pNew;
        MOV.W   R12, 0(R8)
        JMP     ??ZDO_RegisterForZDOMsg_3
// 1784     }
// 1785     else
// 1786       zdoMsgCBs = pNew;
??ZDO_RegisterForZDOMsg_5:
        MOV.W   R12, &zdoMsgCBs
// 1787     return ( ZSuccess );
??ZDO_RegisterForZDOMsg_3:
        MOV.B   #0x0, R12
        JMP     ??ZDO_RegisterForZDOMsg_6
// 1788   }
// 1789   else
// 1790     return ( ZMemError );
??ZDO_RegisterForZDOMsg_4:
        MOV.B   #0x10, R12
??ZDO_RegisterForZDOMsg_6:
        POPM.W  #0x4, R11
          CFI R10L SameValue
          CFI R11L SameValue
          CFI R8L SameValue
          CFI R9L SameValue
          CFI CFA SP+4
        RETA
          CFI EndBlock cfiBlock131
// 1791 }
// 1792 
// 1793 /*********************************************************************
// 1794  * @fn          ZDO_RemoveRegisteredCB
// 1795  *
// 1796  * @brief       Call this function if you don't want to receive the
// 1797  *              incoming message.
// 1798  *
// 1799  * @param       taskID - Where the messages are being delivered.
// 1800  * @param       clusterID - What message?
// 1801  *
// 1802  * @return      ZSuccess - successful, ZFailure if not found
// 1803  */

        RSEG CODE:CODE:REORDER:NOROOT(1)
// 1804 ZStatus_t ZDO_RemoveRegisteredCB( uint8 taskID, uint16 clusterID )
ZDO_RemoveRegisteredCB:
          CFI Block cfiBlock132 Using cfiCommon0
          CFI Function ZDO_RemoveRegisteredCB
// 1805 {
// 1806   ZDO_MsgCB_t *pList;
// 1807   ZDO_MsgCB_t *pLast = NULL;
        FUNCALL ZDO_RemoveRegisteredCB, osal_mem_free
        LOCFRAME CSTACK, 4, STACK
        MOV.W   #0x0, R14
// 1808 
// 1809   pList = zdoMsgCBs;
        MOV.W   &zdoMsgCBs, R15
        JMP     ??ZDO_RemoveRegisteredCB_1
// 1810   while ( pList )
// 1811   {
// 1812     if ( pList->taskID == taskID && pList->clusterID == clusterID )
// 1813     {
// 1814       if ( pLast )
// 1815       {
// 1816         // remove this one from the linked list
// 1817         pLast->next = pList->next;
// 1818       }
// 1819       else if ( pList->next )
// 1820       {
// 1821         // remove the first one from the linked list
// 1822         zdoMsgCBs = pList->next;
// 1823       }
// 1824       else
// 1825       {
// 1826         // remove the only item from the list
// 1827         zdoMsgCBs = (ZDO_MsgCB_t *)NULL;
// 1828       }
// 1829       osal_mem_free( pList );
// 1830       return ( ZSuccess );
// 1831     }
// 1832     pLast = pList;
??ZDO_RemoveRegisteredCB_0:
        MOV.W   R15, R14
// 1833     pList = pList->next;
        MOV.W   @R15, R15
??ZDO_RemoveRegisteredCB_1:
        CMP.W   #0x0, R15
        JEQ     ??ZDO_RemoveRegisteredCB_2
        CMP.B   R12, 0x2(R15)
        JNE     ??ZDO_RemoveRegisteredCB_0
        CMP.W   R13, 0x4(R15)
        JNE     ??ZDO_RemoveRegisteredCB_0
        MOV.W   @R15, R13
        CMP.W   #0x0, R14
        JEQ     ??ZDO_RemoveRegisteredCB_3
        MOV.W   R13, 0(R14)
        JMP     ??ZDO_RemoveRegisteredCB_4
??ZDO_RemoveRegisteredCB_3:
        CMP.W   #0x0, R13
        JEQ     ??ZDO_RemoveRegisteredCB_5
        MOV.W   R13, &zdoMsgCBs
        JMP     ??ZDO_RemoveRegisteredCB_4
??ZDO_RemoveRegisteredCB_5:
        MOV.W   #0x0, &zdoMsgCBs
??ZDO_RemoveRegisteredCB_4:
        MOV.W   R15, R12
        CALLA   #osal_mem_free
        MOV.B   #0x0, R12
        RETA
// 1834   }
// 1835 
// 1836   return ( ZFailure );
??ZDO_RemoveRegisteredCB_2:
        MOV.B   #0x1, R12
        RETA
          CFI EndBlock cfiBlock132
// 1837 }
// 1838 
// 1839 /*********************************************************************
// 1840  * @fn          ZDO_SendMsgCBs
// 1841  *
// 1842  * @brief       This function sends messages to registered tasks.
// 1843  *              Local to ZDO and shouldn't be called outside of ZDO.
// 1844  *
// 1845  * @param       inMsg - incoming message
// 1846  *
// 1847  * @return      TRUE if sent to at least 1 task, FALSE if not
// 1848  */

        RSEG CODE:CODE:REORDER:NOROOT(1)
// 1849 uint8 ZDO_SendMsgCBs( zdoIncomingMsg_t *inMsg )
ZDO_SendMsgCBs:
          CFI Block cfiBlock133 Using cfiCommon0
          CFI Function ZDO_SendMsgCBs
// 1850 {
        FUNCALL ZDO_SendMsgCBs, osal_msg_allocate
        LOCFRAME CSTACK, 12, STACK
        FUNCALL ZDO_SendMsgCBs, osal_memcpy
        LOCFRAME CSTACK, 12, STACK
        FUNCALL ZDO_SendMsgCBs, osal_memcpy
        LOCFRAME CSTACK, 12, STACK
        FUNCALL ZDO_SendMsgCBs, osal_msg_send
        LOCFRAME CSTACK, 12, STACK
        PUSHM.W #0x4, R11
          CFI R8L Frame(CFA, -12)
          CFI R9L Frame(CFA, -10)
          CFI R10L Frame(CFA, -8)
          CFI R11L Frame(CFA, -6)
          CFI CFA SP+12
        MOV.W   R12, R11
// 1851   uint8 ret = FALSE;
        MOV.B   #0x0, R10
// 1852   ZDO_MsgCB_t *pList = zdoMsgCBs;
        MOV.W   &zdoMsgCBs, R8
        JMP     ??ZDO_SendMsgCBs_1
// 1853   while ( pList )
// 1854   {
// 1855     if ( pList->clusterID == inMsg->clusterID )
??ZDO_SendMsgCBs_0:
        CMP.W   0xe(R11), 0x4(R8)
        JNE     ??ZDO_SendMsgCBs_2
// 1856     {
// 1857       zdoIncomingMsg_t *msgPtr;
// 1858 
// 1859       // Send the address to the task
// 1860       msgPtr = (zdoIncomingMsg_t *)osal_msg_allocate( sizeof( zdoIncomingMsg_t ) + inMsg->asduLen );
        MOV.B   0x12(R11), R12
        ADD.W   #0x18, R12
        CALLA   #osal_msg_allocate
        MOV.W   R12, R9
// 1861       if ( msgPtr )
        CMP.W   #0x0, R12
        JEQ     ??ZDO_SendMsgCBs_2
// 1862       {
// 1863         // copy struct
// 1864         osal_memcpy( msgPtr, inMsg, sizeof( zdoIncomingMsg_t ));
        MOV.W   #0x18, R14
        MOV.W   R11, R13
        CALLA   #osal_memcpy
// 1865 
// 1866         if ( inMsg->asduLen )
        CMP.B   #0x0, 0x12(R11)
        JEQ     ??ZDO_SendMsgCBs_3
// 1867         {
// 1868           msgPtr->asdu = (byte*)(((byte*)msgPtr) + sizeof( zdoIncomingMsg_t ));
        MOV.W   R9, R12
        ADD.W   #0x18, R12
        MOV.W   R12, 0x16(R9)
// 1869           osal_memcpy( msgPtr->asdu, inMsg->asdu, inMsg->asduLen );
        MOV.B   0x12(R11), R14
        MOV.W   0x16(R11), R13
        CALLA   #osal_memcpy
// 1870         }
// 1871 
// 1872         msgPtr->hdr.event = ZDO_CB_MSG;
??ZDO_SendMsgCBs_3:
        MOV.B   #0xd3, 0(R9)
// 1873         osal_msg_send( pList->taskID, (uint8 *)msgPtr );
        MOV.W   R9, R13
        MOV.B   0x2(R8), R12
        CALLA   #osal_msg_send
// 1874         ret = TRUE;
        MOV.B   #0x1, R10
// 1875       }
// 1876     }
// 1877     pList = (ZDO_MsgCB_t *)pList->next;
??ZDO_SendMsgCBs_2:
        MOV.W   @R8, R8
// 1878   }
??ZDO_SendMsgCBs_1:
        CMP.W   #0x0, R8
        JNE     ??ZDO_SendMsgCBs_0
// 1879   return ( ret );
        MOV.B   R10, R12
        POPM.W  #0x4, R11
          CFI R10L SameValue
          CFI R11L SameValue
          CFI R8L SameValue
          CFI R9L SameValue
          CFI CFA SP+4
        RETA
          CFI EndBlock cfiBlock133
// 1880 }
// 1881 
// 1882 /*********************************************************************
// 1883  * Incoming message processor
// 1884  */
// 1885 
// 1886 /*********************************************************************
// 1887  * @fn          ZDP_IncomingData
// 1888  *
// 1889  * @brief       This function indicates the transfer of a data PDU (ASDU)
// 1890  *              from the APS sub-layer to the ZDO.
// 1891  *
// 1892  * @param       pData - Incoming Message
// 1893  *
// 1894  * @return      none
// 1895  */

        RSEG CODE:CODE:REORDER:NOROOT(1)
// 1896 void ZDP_IncomingData( afIncomingMSGPacket_t *pData )
ZDP_IncomingData:
          CFI Block cfiBlock134 Using cfiCommon0
          CFI Function ZDP_IncomingData
// 1897 {
        FUNCALL ZDP_IncomingData, ZDO_SendMsgCBs
        LOCFRAME CSTACK, 32, STACK
        FUNCALL ZDP_IncomingData
        LOCFRAME CSTACK, 32, STACK
        FUNCALL ZDP_IncomingData, ZDApp_InMsgCB
        LOCFRAME CSTACK, 32, STACK
        PUSHM.W #0x2, R11
          CFI R10L Frame(CFA, -8)
          CFI R11L Frame(CFA, -6)
          CFI CFA SP+8
        SUB.W   #0x18, SP
          CFI CFA SP+32
// 1898   uint8 x = 0;
        MOV.B   #0x0, R10
// 1899   uint8 handled;
// 1900   zdoIncomingMsg_t inMsg;
// 1901 
// 1902   inMsg.srcAddr.addrMode = Addr16Bit;
        MOV.B   #0x2, 0xa(SP)
// 1903   inMsg.srcAddr.addr.shortAddr = pData->srcAddr.addr.shortAddr;
        MOV.W   0x6(R12), 0x2(SP)
// 1904   inMsg.wasBroadcast = pData->wasBroadcast;
        MOV.B   0x15(R12), 0xc(SP)
// 1905   inMsg.clusterID = pData->clusterId;
        MOV.W   0x4(R12), 0xe(SP)
// 1906   inMsg.SecurityUse = pData->SecurityUse;
        MOV.B   0x19(R12), 0x10(SP)
// 1907 
// 1908   inMsg.asduLen = pData->cmd.DataLength-1;
        MOV.B   0x22(R12), R14
        ADD.B   #0xff, R14
        MOV.B   R14, 0x12(SP)
// 1909   inMsg.asdu = pData->cmd.Data+1;
        MOV.W   0x24(R12), R15
        ADD.W   #0x1, R15
        MOV.W   R15, 0x16(SP)
// 1910   inMsg.TransSeq = pData->cmd.Data[0];
        MOV.W   0x24(R12), R15
        MOV.B   @R15, 0x11(SP)
// 1911   inMsg.macDestAddr = pData->macDestAddr;
        MOV.W   0x12(R12), 0x14(SP)
// 1912 
// 1913   handled = ZDO_SendMsgCBs( &inMsg );
        MOV.W   SP, R11
        ADD.W   #0x0, R11
        MOV.W   R11, R12
        CALLA   #ZDO_SendMsgCBs
        JMP     ??ZDP_IncomingData_2
// 1914 
// 1915 #if (defined MT_ZDO_CB_FUNC)
// 1916 #if !defined MT_TASK
// 1917   if (zgZdoDirectCB)
// 1918 #endif
// 1919   {
// 1920     MT_ZdoDirectCB( pData, &inMsg );
// 1921   }
// 1922 #endif
// 1923 
// 1924   while ( zdpMsgProcs[x].clusterID != 0xFFFF )
// 1925   {
// 1926     if ( zdpMsgProcs[x].clusterID == inMsg.clusterID )
// 1927     {
// 1928       zdpMsgProcs[x].pFn( &inMsg );
// 1929       return;
// 1930     }
// 1931     x++;
??ZDP_IncomingData_0:
        ADD.B   #0x1, R10
??ZDP_IncomingData_2:
        MOV.W   R10, R15
        RPT     #0x5
        ADDX.W  R10, R15
        MOV.W   zdpMsgProcs(R15), R14
        CMP.W   #0xffff, R14
        JEQ     ??ZDP_IncomingData_3
        CMP.W   0xe(SP), R14
        JNE     ??ZDP_IncomingData_0
        MOV.W   R11, R12
        MOV.W   zdpMsgProcs + 2(R15), R14
        MOV.W   zdpMsgProcs + 4(R15), R15
        CALLA   #?IndCallR15
        JMP     ??ZDP_IncomingData_1
// 1932   }
// 1933 
// 1934   // Handle unhandled messages
// 1935   if ( !handled )
??ZDP_IncomingData_3:
        CMP.B   #0x0, R12
        JNE     ??ZDP_IncomingData_1
// 1936     ZDApp_InMsgCB( &inMsg );
        MOV.W   R11, R12
        CALLA   #ZDApp_InMsgCB
// 1937 }
??ZDP_IncomingData_1:
        ADD.W   #0x18, SP
          CFI CFA SP+8
        POPM.W  #0x2, R11
          CFI R10L SameValue
          CFI R11L SameValue
          CFI CFA SP+4
        RETA
          CFI EndBlock cfiBlock134

        RSEG DATA16_ID:CONST:SORT:NOROOT(1)
`?<Initializer for ZDP_TmpBuf>`:
        DC16 ZDP_Buf + 1H

        RSEG CODE:CODE:REORDER:NOROOT(1)
?setjmp_save_r4:
        REQUIRE ?setjmp_r4
        REQUIRE ?longjmp_r4

        RSEG CODE:CODE:REORDER:NOROOT(1)
?setjmp_save_r5:
        REQUIRE ?setjmp_r5
        REQUIRE ?longjmp_r5

        END
// 1938 
// 1939 /*********************************************************************
// 1940 *********************************************************************/
// 1941 
// 
// 3 980 bytes in segment CODE
//    73 bytes in segment DATA16_C
//     2 bytes in segment DATA16_I
//     2 bytes in segment DATA16_ID
//    84 bytes in segment DATA16_Z
// 
// 3 980 bytes of CODE  memory
//    75 bytes of CONST memory
//    86 bytes of DATA  memory
//
//Errors: none
//Warnings: none
